TMS320C6x Assembler PC v7.4.2 Sat Sep 26 11:10:16 2015

Tools Copyright (c) 1996-2012 Texas Instruments Incorporated
package/lib/Regression/regress_d_c/./../packages/ti/vlib/src/VLIB_haarDetectObjectsDense/VLIB_haarDetectObjectsDense_d.se66 PAGE    1

       1                    ;******************************************************************************
       2                    ;* TMS320C6x C/C++ Codegen                                          PC v7.4.2 *
       3                    ;* Date/Time created: Sat Sep 26 11:10:15 2015                                *
       4                    ;******************************************************************************
       5                            .compiler_opts --abi=eabi --c64p_l1d_workaround=off --endian=little --hll_source=on --long_pre
       6                    
       7                    ;******************************************************************************
       8                    ;* GLOBAL FILE PARAMETERS                                                     *
       9                    ;*                                                                            *
      10                    ;*   Architecture      : TMS320C66xx                                          *
      11                    ;*   Optimization      : Enabled at level 3                                   *
      12                    ;*   Optimizing for    : Speed                                                *
      13                    ;*                       Based on options: -o3, no -ms                        *
      14                    ;*   Endian            : Little                                               *
      15                    ;*   Interrupt Thrshld : 10000                                                *
      16                    ;*   Data Access Model : Far                                                  *
      17                    ;*   Pipelining        : Enabled                                              *
      18                    ;*   Speculate Loads   : Enabled with threshold = 0                           *
      19                    ;*   Memory Aliases    : Presume are aliases (pessimistic)                    *
      20                    ;*   Debug Info        : DWARF Debug w/Optimization                           *
      21                    ;*                                                                            *
      22                    ;******************************************************************************
      23                    
      24                            .asg    A15, FP
      25                            .asg    B14, DP
      26                            .asg    B15, SP
      27                            .global $bss
      28                    
      29                    
      30                    $C$DW$CU        .dwtag  DW_TAG_compile_unit
      31                            .dwattr $C$DW$CU, DW_AT_name("./../packages/ti/vlib/src/VLIB_haarDetectObjectsDense/VLIB_haarD
      32                            .dwattr $C$DW$CU, DW_AT_producer("TI TMS320C6x C/C++ Codegen PC v7.4.2 Copyright (c) 1996-2012
      33                            .dwattr $C$DW$CU, DW_AT_TI_version(0x01)
      34                            .dwattr $C$DW$CU, DW_AT_comp_dir("c:\nightlybuilds\vlib\ti\vlib\vlib\examples")
      35                    
      36                    $C$DW$1 .dwtag  DW_TAG_subprogram, DW_AT_name("memcpy")
      37                            .dwattr $C$DW$1, DW_AT_TI_symbol_name("memcpy")
      38                            .dwattr $C$DW$1, DW_AT_type(*$C$DW$T$3)
      39                            .dwattr $C$DW$1, DW_AT_declaration
      40                            .dwattr $C$DW$1, DW_AT_external
      41                            .dwattr $C$DW$1, DW_AT_decl_file("C:/VLIB_Tools/CCSV5_4_0/ccsv5/tools/compiler/C6000/include/s
      42                            .dwattr $C$DW$1, DW_AT_decl_line(0x56)
      43                            .dwattr $C$DW$1, DW_AT_decl_column(0x16)
      44                    $C$DW$2 .dwtag  DW_TAG_formal_parameter
      45                            .dwattr $C$DW$2, DW_AT_type(*$C$DW$T$3)
      46                    $C$DW$3 .dwtag  DW_TAG_formal_parameter
      47                            .dwattr $C$DW$3, DW_AT_type(*$C$DW$T$82)
      48                    $C$DW$4 .dwtag  DW_TAG_formal_parameter
      49                            .dwattr $C$DW$4, DW_AT_type(*$C$DW$T$83)
      50                            .dwendtag $C$DW$1
      51                    
      52                    
      53                    $C$DW$5 .dwtag  DW_TAG_subprogram, DW_AT_name("_itoll")
      54                            .dwattr $C$DW$5, DW_AT_TI_symbol_name("_itoll")
      55                            .dwattr $C$DW$5, DW_AT_type(*$C$DW$T$14)
TMS320C6x Assembler PC v7.4.2 Sat Sep 26 11:10:16 2015

Tools Copyright (c) 1996-2012 Texas Instruments Incorporated
package/lib/Regression/regress_d_c/./../packages/ti/vlib/src/VLIB_haarDetectObjectsDense/VLIB_haarDetectObjectsDense_d.se66 PAGE    2

      56                            .dwattr $C$DW$5, DW_AT_declaration
      57                            .dwattr $C$DW$5, DW_AT_external
      58                            .dwattr $C$DW$5, DW_AT_decl_file("C:/VLIB_Tools/CCSV5_4_0/ccsv5/tools/compiler/C6000/include/c
      59                            .dwattr $C$DW$5, DW_AT_decl_line(0xdf)
      60                            .dwattr $C$DW$5, DW_AT_decl_column(0x0b)
      61                    $C$DW$6 .dwtag  DW_TAG_formal_parameter
      62                            .dwattr $C$DW$6, DW_AT_type(*$C$DW$T$11)
      63                    $C$DW$7 .dwtag  DW_TAG_formal_parameter
      64                            .dwattr $C$DW$7, DW_AT_type(*$C$DW$T$11)
      65                            .dwendtag $C$DW$5
      66                    
      67                    
      68                    $C$DW$8 .dwtag  DW_TAG_subprogram, DW_AT_name("printf")
      69                            .dwattr $C$DW$8, DW_AT_TI_symbol_name("printf")
      70                            .dwattr $C$DW$8, DW_AT_type(*$C$DW$T$10)
      71                            .dwattr $C$DW$8, DW_AT_declaration
      72                            .dwattr $C$DW$8, DW_AT_external
      73                            .dwattr $C$DW$8, DW_AT_decl_file("C:/VLIB_Tools/CCSV5_4_0/ccsv5/tools/compiler/C6000/include/s
      74                            .dwattr $C$DW$8, DW_AT_decl_line(0xb8)
      75                            .dwattr $C$DW$8, DW_AT_decl_column(0x19)
      76                    $C$DW$9 .dwtag  DW_TAG_formal_parameter
      77                            .dwattr $C$DW$9, DW_AT_type(*$C$DW$T$138)
      78                    $C$DW$10        .dwtag  DW_TAG_unspecified_parameters
      79                            .dwendtag $C$DW$8
      80                    
      81                    
      82                    $C$DW$11        .dwtag  DW_TAG_subprogram, DW_AT_name("sprintf")
      83                            .dwattr $C$DW$11, DW_AT_TI_symbol_name("sprintf")
      84                            .dwattr $C$DW$11, DW_AT_type(*$C$DW$T$10)
      85                            .dwattr $C$DW$11, DW_AT_declaration
      86                            .dwattr $C$DW$11, DW_AT_external
      87                            .dwattr $C$DW$11, DW_AT_decl_file("C:/VLIB_Tools/CCSV5_4_0/ccsv5/tools/compiler/C6000/include/
      88                            .dwattr $C$DW$11, DW_AT_decl_line(0xbc)
      89                            .dwattr $C$DW$11, DW_AT_decl_column(0x19)
      90                    $C$DW$12        .dwtag  DW_TAG_formal_parameter
      91                            .dwattr $C$DW$12, DW_AT_type(*$C$DW$T$44)
      92                    $C$DW$13        .dwtag  DW_TAG_formal_parameter
      93                            .dwattr $C$DW$13, DW_AT_type(*$C$DW$T$138)
      94                    $C$DW$14        .dwtag  DW_TAG_unspecified_parameters
      95                            .dwendtag $C$DW$11
      96                    
      97                    
      98                    $C$DW$15        .dwtag  DW_TAG_subprogram, DW_AT_name("malloc")
      99                            .dwattr $C$DW$15, DW_AT_TI_symbol_name("malloc")
     100                            .dwattr $C$DW$15, DW_AT_type(*$C$DW$T$3)
     101                            .dwattr $C$DW$15, DW_AT_declaration
     102                            .dwattr $C$DW$15, DW_AT_external
     103                            .dwattr $C$DW$15, DW_AT_decl_file("C:/VLIB_Tools/CCSV5_4_0/ccsv5/tools/compiler/C6000/include/
     104                            .dwattr $C$DW$15, DW_AT_decl_line(0x82)
     105                            .dwattr $C$DW$15, DW_AT_decl_column(0x19)
     106                    $C$DW$16        .dwtag  DW_TAG_formal_parameter
     107                            .dwattr $C$DW$16, DW_AT_type(*$C$DW$T$83)
     108                            .dwendtag $C$DW$15
     109                    
     110                    
TMS320C6x Assembler PC v7.4.2 Sat Sep 26 11:10:16 2015

Tools Copyright (c) 1996-2012 Texas Instruments Incorporated
package/lib/Regression/regress_d_c/./../packages/ti/vlib/src/VLIB_haarDetectObjectsDense/VLIB_haarDetectObjectsDense_d.se66 PAGE    3

     111                    $C$DW$17        .dwtag  DW_TAG_subprogram, DW_AT_name("free")
     112                            .dwattr $C$DW$17, DW_AT_TI_symbol_name("free")
     113                            .dwattr $C$DW$17, DW_AT_declaration
     114                            .dwattr $C$DW$17, DW_AT_external
     115                            .dwattr $C$DW$17, DW_AT_decl_file("C:/VLIB_Tools/CCSV5_4_0/ccsv5/tools/compiler/C6000/include/
     116                            .dwattr $C$DW$17, DW_AT_decl_line(0x86)
     117                            .dwattr $C$DW$17, DW_AT_decl_column(0x19)
     118                    $C$DW$18        .dwtag  DW_TAG_formal_parameter
     119                            .dwattr $C$DW$18, DW_AT_type(*$C$DW$T$3)
     120                            .dwendtag $C$DW$17
     121                    
     122                    
     123                    $C$DW$19        .dwtag  DW_TAG_subprogram, DW_AT_name("VLIB_cache_inval")
     124                            .dwattr $C$DW$19, DW_AT_TI_symbol_name("VLIB_cache_inval")
     125                            .dwattr $C$DW$19, DW_AT_type(*$C$DW$T$10)
     126                            .dwattr $C$DW$19, DW_AT_declaration
     127                            .dwattr $C$DW$19, DW_AT_external
     128                            .dwattr $C$DW$19, DW_AT_decl_file(".\..\packages\ti\vlib\src\VLIB_haarDetectObjectsDense\..\co
     129                            .dwattr $C$DW$19, DW_AT_decl_line(0x58)
     130                            .dwattr $C$DW$19, DW_AT_decl_column(0x05)
     131                    
     132                    $C$DW$20        .dwtag  DW_TAG_subprogram, DW_AT_name("VLIB_profile_init")
     133                            .dwattr $C$DW$20, DW_AT_TI_symbol_name("VLIB_profile_init")
     134                            .dwattr $C$DW$20, DW_AT_declaration
     135                            .dwattr $C$DW$20, DW_AT_external
     136                            .dwattr $C$DW$20, DW_AT_decl_file(".\..\packages\ti\vlib\src\VLIB_haarDetectObjectsDense\..\co
     137                            .dwattr $C$DW$20, DW_AT_decl_line(0x7b)
     138                            .dwattr $C$DW$20, DW_AT_decl_column(0x06)
     139                    $C$DW$21        .dwtag  DW_TAG_formal_parameter
     140                            .dwattr $C$DW$21, DW_AT_type(*$C$DW$T$10)
     141                    $C$DW$22        .dwtag  DW_TAG_formal_parameter
     142                            .dwattr $C$DW$22, DW_AT_type(*$C$DW$T$44)
     143                            .dwendtag $C$DW$20
     144                    
     145                    
     146                    $C$DW$23        .dwtag  DW_TAG_subprogram, DW_AT_name("VLIB_profile_setMode")
     147                            .dwattr $C$DW$23, DW_AT_TI_symbol_name("VLIB_profile_setMode")
     148                            .dwattr $C$DW$23, DW_AT_declaration
     149                            .dwattr $C$DW$23, DW_AT_external
     150                            .dwattr $C$DW$23, DW_AT_decl_file(".\..\packages\ti\vlib\src\VLIB_haarDetectObjectsDense\..\co
     151                            .dwattr $C$DW$23, DW_AT_decl_line(0x7c)
     152                            .dwattr $C$DW$23, DW_AT_decl_column(0x06)
     153                    $C$DW$24        .dwtag  DW_TAG_formal_parameter
     154                            .dwattr $C$DW$24, DW_AT_type(*$C$DW$T$10)
     155                    $C$DW$25        .dwtag  DW_TAG_formal_parameter
     156                            .dwattr $C$DW$25, DW_AT_type(*$C$DW$T$10)
     157                    $C$DW$26        .dwtag  DW_TAG_formal_parameter
     158                            .dwattr $C$DW$26, DW_AT_type(*$C$DW$T$44)
     159                    $C$DW$27        .dwtag  DW_TAG_formal_parameter
     160                            .dwattr $C$DW$27, DW_AT_type(*$C$DW$T$10)
     161                            .dwendtag $C$DW$23
     162                    
     163                    
     164                    $C$DW$28        .dwtag  DW_TAG_subprogram, DW_AT_name("VLIB_formula_add_test")
     165                            .dwattr $C$DW$28, DW_AT_TI_symbol_name("VLIB_formula_add_test")
TMS320C6x Assembler PC v7.4.2 Sat Sep 26 11:10:16 2015

Tools Copyright (c) 1996-2012 Texas Instruments Incorporated
package/lib/Regression/regress_d_c/./../packages/ti/vlib/src/VLIB_haarDetectObjectsDense/VLIB_haarDetectObjectsDense_d.se66 PAGE    4

     166                            .dwattr $C$DW$28, DW_AT_declaration
     167                            .dwattr $C$DW$28, DW_AT_external
     168                            .dwattr $C$DW$28, DW_AT_decl_file(".\..\packages\ti\vlib\src\VLIB_haarDetectObjectsDense\..\co
     169                            .dwattr $C$DW$28, DW_AT_decl_line(0x7d)
     170                            .dwattr $C$DW$28, DW_AT_decl_column(0x06)
     171                    $C$DW$29        .dwtag  DW_TAG_formal_parameter
     172                            .dwattr $C$DW$29, DW_AT_type(*$C$DW$T$10)
     173                    $C$DW$30        .dwtag  DW_TAG_formal_parameter
     174                            .dwattr $C$DW$30, DW_AT_type(*$C$DW$T$10)
     175                    $C$DW$31        .dwtag  DW_TAG_formal_parameter
     176                            .dwattr $C$DW$31, DW_AT_type(*$C$DW$T$10)
     177                    $C$DW$32        .dwtag  DW_TAG_formal_parameter
     178                            .dwattr $C$DW$32, DW_AT_type(*$C$DW$T$10)
     179                    $C$DW$33        .dwtag  DW_TAG_formal_parameter
     180                            .dwattr $C$DW$33, DW_AT_type(*$C$DW$T$44)
     181                    $C$DW$34        .dwtag  DW_TAG_formal_parameter
     182                            .dwattr $C$DW$34, DW_AT_type(*$C$DW$T$10)
     183                            .dwendtag $C$DW$28
     184                    
     185                    
     186                    $C$DW$35        .dwtag  DW_TAG_subprogram, DW_AT_name("VLIB_skip_test")
     187                            .dwattr $C$DW$35, DW_AT_TI_symbol_name("VLIB_skip_test")
     188                            .dwattr $C$DW$35, DW_AT_declaration
     189                            .dwattr $C$DW$35, DW_AT_external
     190                            .dwattr $C$DW$35, DW_AT_decl_file(".\..\packages\ti\vlib\src\VLIB_haarDetectObjectsDense\..\co
     191                            .dwattr $C$DW$35, DW_AT_decl_line(0x7e)
     192                            .dwattr $C$DW$35, DW_AT_decl_column(0x06)
     193                    $C$DW$36        .dwtag  DW_TAG_formal_parameter
     194                            .dwattr $C$DW$36, DW_AT_type(*$C$DW$T$44)
     195                            .dwendtag $C$DW$35
     196                    
     197                    
     198                    $C$DW$37        .dwtag  DW_TAG_subprogram, DW_AT_name("VLIB_profile_cycle_report")
     199                            .dwattr $C$DW$37, DW_AT_TI_symbol_name("VLIB_profile_cycle_report")
     200                            .dwattr $C$DW$37, DW_AT_declaration
     201                            .dwattr $C$DW$37, DW_AT_external
     202                            .dwattr $C$DW$37, DW_AT_decl_file(".\..\packages\ti\vlib\src\VLIB_haarDetectObjectsDense\..\co
     203                            .dwattr $C$DW$37, DW_AT_decl_line(0x7f)
     204                            .dwattr $C$DW$37, DW_AT_decl_column(0x06)
     205                    $C$DW$38        .dwtag  DW_TAG_formal_parameter
     206                            .dwattr $C$DW$38, DW_AT_type(*$C$DW$T$10)
     207                    $C$DW$39        .dwtag  DW_TAG_formal_parameter
     208                            .dwattr $C$DW$39, DW_AT_type(*$C$DW$T$44)
     209                    $C$DW$40        .dwtag  DW_TAG_formal_parameter
     210                            .dwattr $C$DW$40, DW_AT_type(*$C$DW$T$44)
     211                            .dwendtag $C$DW$37
     212                    
     213                    
     214                    $C$DW$41        .dwtag  DW_TAG_subprogram, DW_AT_name("initStack")
     215                            .dwattr $C$DW$41, DW_AT_TI_symbol_name("initStack")
     216                            .dwattr $C$DW$41, DW_AT_declaration
     217                            .dwattr $C$DW$41, DW_AT_external
     218                            .dwattr $C$DW$41, DW_AT_decl_file(".\..\packages\ti\vlib\src\VLIB_haarDetectObjectsDense\..\co
     219                            .dwattr $C$DW$41, DW_AT_decl_line(0x80)
     220                            .dwattr $C$DW$41, DW_AT_decl_column(0x06)
TMS320C6x Assembler PC v7.4.2 Sat Sep 26 11:10:16 2015

Tools Copyright (c) 1996-2012 Texas Instruments Incorporated
package/lib/Regression/regress_d_c/./../packages/ti/vlib/src/VLIB_haarDetectObjectsDense/VLIB_haarDetectObjectsDense_d.se66 PAGE    5

     221                    $C$DW$42        .dwtag  DW_TAG_formal_parameter
     222                            .dwattr $C$DW$42, DW_AT_type(*$C$DW$T$38)
     223                            .dwendtag $C$DW$41
     224                    
     225                    
     226                    $C$DW$43        .dwtag  DW_TAG_subprogram, DW_AT_name("setStackDepth")
     227                            .dwattr $C$DW$43, DW_AT_TI_symbol_name("setStackDepth")
     228                            .dwattr $C$DW$43, DW_AT_declaration
     229                            .dwattr $C$DW$43, DW_AT_external
     230                            .dwattr $C$DW$43, DW_AT_decl_file(".\..\packages\ti\vlib\src\VLIB_haarDetectObjectsDense\..\co
     231                            .dwattr $C$DW$43, DW_AT_decl_line(0x81)
     232                            .dwattr $C$DW$43, DW_AT_decl_column(0x06)
     233                    
     234                    $C$DW$44        .dwtag  DW_TAG_subprogram, DW_AT_name("getSP")
     235                            .dwattr $C$DW$44, DW_AT_TI_symbol_name("getSP")
     236                            .dwattr $C$DW$44, DW_AT_type(*$C$DW$T$38)
     237                            .dwattr $C$DW$44, DW_AT_declaration
     238                            .dwattr $C$DW$44, DW_AT_external
     239                            .dwattr $C$DW$44, DW_AT_decl_file(".\..\packages\ti\vlib\src\VLIB_haarDetectObjectsDense\..\co
     240                            .dwattr $C$DW$44, DW_AT_decl_line(0x82)
     241                            .dwattr $C$DW$44, DW_AT_decl_column(0x0a)
     242                    
     243                    $C$DW$45        .dwtag  DW_TAG_subprogram, DW_AT_name("VLIB_stack_memory")
     244                            .dwattr $C$DW$45, DW_AT_TI_symbol_name("VLIB_stack_memory")
     245                            .dwattr $C$DW$45, DW_AT_declaration
     246                            .dwattr $C$DW$45, DW_AT_external
     247                            .dwattr $C$DW$45, DW_AT_decl_file(".\..\packages\ti\vlib\src\VLIB_haarDetectObjectsDense\..\co
     248                            .dwattr $C$DW$45, DW_AT_decl_line(0x83)
     249                            .dwattr $C$DW$45, DW_AT_decl_column(0x06)
     250                    
     251                    $C$DW$46        .dwtag  DW_TAG_subprogram, DW_AT_name("VLIB_fillBuffer")
     252                            .dwattr $C$DW$46, DW_AT_TI_symbol_name("VLIB_fillBuffer")
     253                            .dwattr $C$DW$46, DW_AT_declaration
     254                            .dwattr $C$DW$46, DW_AT_external
     255                            .dwattr $C$DW$46, DW_AT_decl_file(".\..\packages\ti\vlib\src\VLIB_haarDetectObjectsDense\../co
     256                            .dwattr $C$DW$46, DW_AT_decl_line(0x7a)
     257                            .dwattr $C$DW$46, DW_AT_decl_column(0x06)
     258                    $C$DW$47        .dwtag  DW_TAG_formal_parameter
     259                            .dwattr $C$DW$47, DW_AT_type(*$C$DW$T$21)
     260                    $C$DW$48        .dwtag  DW_TAG_formal_parameter
     261                            .dwattr $C$DW$48, DW_AT_type(*$C$DW$T$21)
     262                    $C$DW$49        .dwtag  DW_TAG_formal_parameter
     263                            .dwattr $C$DW$49, DW_AT_type(*$C$DW$T$3)
     264                    $C$DW$50        .dwtag  DW_TAG_formal_parameter
     265                            .dwattr $C$DW$50, DW_AT_type(*$C$DW$T$3)
     266                    $C$DW$51        .dwtag  DW_TAG_formal_parameter
     267                            .dwattr $C$DW$51, DW_AT_type(*$C$DW$T$104)
     268                    $C$DW$52        .dwtag  DW_TAG_formal_parameter
     269                            .dwattr $C$DW$52, DW_AT_type(*$C$DW$T$104)
     270                    $C$DW$53        .dwtag  DW_TAG_formal_parameter
     271                            .dwattr $C$DW$53, DW_AT_type(*$C$DW$T$104)
     272                    $C$DW$54        .dwtag  DW_TAG_formal_parameter
     273                            .dwattr $C$DW$54, DW_AT_type(*$C$DW$T$21)
     274                    $C$DW$55        .dwtag  DW_TAG_formal_parameter
     275                            .dwattr $C$DW$55, DW_AT_type(*$C$DW$T$44)
TMS320C6x Assembler PC v7.4.2 Sat Sep 26 11:10:16 2015

Tools Copyright (c) 1996-2012 Texas Instruments Incorporated
package/lib/Regression/regress_d_c/./../packages/ti/vlib/src/VLIB_haarDetectObjectsDense/VLIB_haarDetectObjectsDense_d.se66 PAGE    6

     276                            .dwendtag $C$DW$46
     277                    
     278                    
     279                    $C$DW$56        .dwtag  DW_TAG_subprogram, DW_AT_name("VLIB_malloc")
     280                            .dwattr $C$DW$56, DW_AT_TI_symbol_name("VLIB_malloc")
     281                            .dwattr $C$DW$56, DW_AT_type(*$C$DW$T$3)
     282                            .dwattr $C$DW$56, DW_AT_declaration
     283                            .dwattr $C$DW$56, DW_AT_external
     284                            .dwattr $C$DW$56, DW_AT_decl_file(".\..\packages\ti\vlib\src\VLIB_haarDetectObjectsDense\../co
     285                            .dwattr $C$DW$56, DW_AT_decl_line(0xb2)
     286                            .dwattr $C$DW$56, DW_AT_decl_column(0x07)
     287                    $C$DW$57        .dwtag  DW_TAG_formal_parameter
     288                            .dwattr $C$DW$57, DW_AT_type(*$C$DW$T$83)
     289                            .dwendtag $C$DW$56
     290                    
     291                    
     292                    $C$DW$58        .dwtag  DW_TAG_subprogram, DW_AT_name("VLIB_free")
     293                            .dwattr $C$DW$58, DW_AT_TI_symbol_name("VLIB_free")
     294                            .dwattr $C$DW$58, DW_AT_declaration
     295                            .dwattr $C$DW$58, DW_AT_external
     296                            .dwattr $C$DW$58, DW_AT_decl_file(".\..\packages\ti\vlib\src\VLIB_haarDetectObjectsDense\../co
     297                            .dwattr $C$DW$58, DW_AT_decl_line(0xb7)
     298                            .dwattr $C$DW$58, DW_AT_decl_column(0x07)
     299                    $C$DW$59        .dwtag  DW_TAG_formal_parameter
     300                            .dwattr $C$DW$59, DW_AT_type(*$C$DW$T$3)
     301                            .dwendtag $C$DW$58
     302                    
     303                    
     304                    $C$DW$60        .dwtag  DW_TAG_subprogram, DW_AT_name("VLIB_haarDetectObjectsDense")
     305                            .dwattr $C$DW$60, DW_AT_TI_symbol_name("VLIB_haarDetectObjectsDense")
     306                            .dwattr $C$DW$60, DW_AT_type(*$C$DW$T$27)
     307                            .dwattr $C$DW$60, DW_AT_declaration
     308                            .dwattr $C$DW$60, DW_AT_external
     309                            .dwattr $C$DW$60, DW_AT_decl_file(".\..\packages\ti\vlib\src\VLIB_haarDetectObjectsDense\c66/V
     310                            .dwattr $C$DW$60, DW_AT_decl_line(0x4b)
     311                            .dwattr $C$DW$60, DW_AT_decl_column(0x0c)
     312                    $C$DW$61        .dwtag  DW_TAG_formal_parameter
     313                            .dwattr $C$DW$61, DW_AT_type(*$C$DW$T$145)
     314                    $C$DW$62        .dwtag  DW_TAG_formal_parameter
     315                            .dwattr $C$DW$62, DW_AT_type(*$C$DW$T$145)
     316                    $C$DW$63        .dwtag  DW_TAG_formal_parameter
     317                            .dwattr $C$DW$63, DW_AT_type(*$C$DW$T$38)
     318                    $C$DW$64        .dwtag  DW_TAG_formal_parameter
     319                            .dwattr $C$DW$64, DW_AT_type(*$C$DW$T$38)
     320                    $C$DW$65        .dwtag  DW_TAG_formal_parameter
     321                            .dwattr $C$DW$65, DW_AT_type(*$C$DW$T$38)
     322                    $C$DW$66        .dwtag  DW_TAG_formal_parameter
     323                            .dwattr $C$DW$66, DW_AT_type(*$C$DW$T$38)
     324                    $C$DW$67        .dwtag  DW_TAG_formal_parameter
     325                            .dwattr $C$DW$67, DW_AT_type(*$C$DW$T$38)
     326                    $C$DW$68        .dwtag  DW_TAG_formal_parameter
     327                            .dwattr $C$DW$68, DW_AT_type(*$C$DW$T$38)
     328                    $C$DW$69        .dwtag  DW_TAG_formal_parameter
     329                            .dwattr $C$DW$69, DW_AT_type(*$C$DW$T$38)
     330                    $C$DW$70        .dwtag  DW_TAG_formal_parameter
TMS320C6x Assembler PC v7.4.2 Sat Sep 26 11:10:16 2015

Tools Copyright (c) 1996-2012 Texas Instruments Incorporated
package/lib/Regression/regress_d_c/./../packages/ti/vlib/src/VLIB_haarDetectObjectsDense/VLIB_haarDetectObjectsDense_d.se66 PAGE    7

     331                            .dwattr $C$DW$70, DW_AT_type(*$C$DW$T$63)
     332                    $C$DW$71        .dwtag  DW_TAG_formal_parameter
     333                            .dwattr $C$DW$71, DW_AT_type(*$C$DW$T$67)
     334                    $C$DW$72        .dwtag  DW_TAG_formal_parameter
     335                            .dwattr $C$DW$72, DW_AT_type(*$C$DW$T$131)
     336                    $C$DW$73        .dwtag  DW_TAG_formal_parameter
     337                            .dwattr $C$DW$73, DW_AT_type(*$C$DW$T$131)
     338                            .dwendtag $C$DW$60
     339                    
     340                    
     341                    $C$DW$74        .dwtag  DW_TAG_subprogram, DW_AT_name("VLIB_haarDetectObjectsDense_cn")
     342                            .dwattr $C$DW$74, DW_AT_TI_symbol_name("VLIB_haarDetectObjectsDense_cn")
     343                            .dwattr $C$DW$74, DW_AT_type(*$C$DW$T$27)
     344                            .dwattr $C$DW$74, DW_AT_declaration
     345                            .dwattr $C$DW$74, DW_AT_external
     346                            .dwattr $C$DW$74, DW_AT_decl_file(".\..\packages\ti\vlib\src\VLIB_haarDetectObjectsDense\VLIB_
     347                            .dwattr $C$DW$74, DW_AT_decl_line(0x22)
     348                            .dwattr $C$DW$74, DW_AT_decl_column(0x09)
     349                    $C$DW$75        .dwtag  DW_TAG_formal_parameter
     350                            .dwattr $C$DW$75, DW_AT_type(*$C$DW$T$39)
     351                    $C$DW$76        .dwtag  DW_TAG_formal_parameter
     352                            .dwattr $C$DW$76, DW_AT_type(*$C$DW$T$39)
     353                    $C$DW$77        .dwtag  DW_TAG_formal_parameter
     354                            .dwattr $C$DW$77, DW_AT_type(*$C$DW$T$38)
     355                    $C$DW$78        .dwtag  DW_TAG_formal_parameter
     356                            .dwattr $C$DW$78, DW_AT_type(*$C$DW$T$38)
     357                    $C$DW$79        .dwtag  DW_TAG_formal_parameter
     358                            .dwattr $C$DW$79, DW_AT_type(*$C$DW$T$38)
     359                    $C$DW$80        .dwtag  DW_TAG_formal_parameter
     360                            .dwattr $C$DW$80, DW_AT_type(*$C$DW$T$38)
     361                    $C$DW$81        .dwtag  DW_TAG_formal_parameter
     362                            .dwattr $C$DW$81, DW_AT_type(*$C$DW$T$38)
     363                    $C$DW$82        .dwtag  DW_TAG_formal_parameter
     364                            .dwattr $C$DW$82, DW_AT_type(*$C$DW$T$38)
     365                    $C$DW$83        .dwtag  DW_TAG_formal_parameter
     366                            .dwattr $C$DW$83, DW_AT_type(*$C$DW$T$38)
     367                    $C$DW$84        .dwtag  DW_TAG_formal_parameter
     368                            .dwattr $C$DW$84, DW_AT_type(*$C$DW$T$42)
     369                    $C$DW$85        .dwtag  DW_TAG_formal_parameter
     370                            .dwattr $C$DW$85, DW_AT_type(*$C$DW$T$66)
     371                    $C$DW$86        .dwtag  DW_TAG_formal_parameter
     372                            .dwattr $C$DW$86, DW_AT_type(*$C$DW$T$130)
     373                    $C$DW$87        .dwtag  DW_TAG_formal_parameter
     374                            .dwattr $C$DW$87, DW_AT_type(*$C$DW$T$130)
     375                            .dwendtag $C$DW$74
     376                    
     377                    
     378                    $C$DW$88        .dwtag  DW_TAG_subprogram, DW_AT_name("haarDetectObjectsDense_getTestParams")
     379                            .dwattr $C$DW$88, DW_AT_TI_symbol_name("haarDetectObjectsDense_getTestParams")
     380                            .dwattr $C$DW$88, DW_AT_declaration
     381                            .dwattr $C$DW$88, DW_AT_external
     382                            .dwattr $C$DW$88, DW_AT_decl_file(".\..\packages\ti\vlib\src\VLIB_haarDetectObjectsDense\VLIB_
     383                            .dwattr $C$DW$88, DW_AT_decl_line(0x34)
     384                            .dwattr $C$DW$88, DW_AT_decl_column(0x06)
     385                    $C$DW$89        .dwtag  DW_TAG_formal_parameter
TMS320C6x Assembler PC v7.4.2 Sat Sep 26 11:10:16 2015

Tools Copyright (c) 1996-2012 Texas Instruments Incorporated
package/lib/Regression/regress_d_c/./../packages/ti/vlib/src/VLIB_haarDetectObjectsDense/VLIB_haarDetectObjectsDense_d.se66 PAGE    8

     386                            .dwattr $C$DW$89, DW_AT_type(*$C$DW$T$73)
     387                    $C$DW$90        .dwtag  DW_TAG_formal_parameter
     388                            .dwattr $C$DW$90, DW_AT_type(*$C$DW$T$107)
     389                            .dwendtag $C$DW$88
     390                    
     391                    $C$DW$91        .dwtag  DW_TAG_variable, DW_AT_name("test_cases")
     392                            .dwattr $C$DW$91, DW_AT_TI_symbol_name("test_cases")
     393                            .dwattr $C$DW$91, DW_AT_type(*$C$DW$T$27)
     394                            .dwattr $C$DW$91, DW_AT_declaration
     395                            .dwattr $C$DW$91, DW_AT_external
     396                            .dwattr $C$DW$91, DW_AT_decl_file(".\..\packages\ti\vlib\src\VLIB_haarDetectObjectsDense\../co
     397                            .dwattr $C$DW$91, DW_AT_decl_line(0x60)
     398                            .dwattr $C$DW$91, DW_AT_decl_column(0x13)
     399                    $C$DW$92        .dwtag  DW_TAG_variable, DW_AT_name("act_kernel")
     400                            .dwattr $C$DW$92, DW_AT_TI_symbol_name("act_kernel")
     401                            .dwattr $C$DW$92, DW_AT_type(*$C$DW$T$10)
     402                            .dwattr $C$DW$92, DW_AT_declaration
     403                            .dwattr $C$DW$92, DW_AT_external
     404                            .dwattr $C$DW$92, DW_AT_decl_file(".\..\packages\ti\vlib\src\VLIB_haarDetectObjectsDense\../co
     405                            .dwattr $C$DW$92, DW_AT_decl_line(0x62)
     406                            .dwattr $C$DW$92, DW_AT_decl_column(0x13)
     407                    $C$DW$93        .dwtag  DW_TAG_variable, DW_AT_name("desc")
     408                            .dwattr $C$DW$93, DW_AT_TI_symbol_name("desc")
     409                            .dwattr $C$DW$93, DW_AT_type(*$C$DW$T$199)
     410                            .dwattr $C$DW$93, DW_AT_declaration
     411                            .dwattr $C$DW$93, DW_AT_external
     412                            .dwattr $C$DW$93, DW_AT_decl_file(".\..\packages\ti\vlib\src\VLIB_haarDetectObjectsDense\../co
     413                            .dwattr $C$DW$93, DW_AT_decl_line(0x63)
     414                            .dwattr $C$DW$93, DW_AT_decl_column(0x13)
     415                    $C$DW$94        .dwtag  DW_TAG_variable, DW_AT_name("testPatternString")
     416                            .dwattr $C$DW$94, DW_AT_TI_symbol_name("testPatternString")
     417                            .dwattr $C$DW$94, DW_AT_type(*$C$DW$T$199)
     418                            .dwattr $C$DW$94, DW_AT_declaration
     419                            .dwattr $C$DW$94, DW_AT_external
     420                            .dwattr $C$DW$94, DW_AT_decl_file(".\..\packages\ti\vlib\src\VLIB_haarDetectObjectsDense\../co
     421                            .dwattr $C$DW$94, DW_AT_decl_line(0x64)
     422                            .dwattr $C$DW$94, DW_AT_decl_column(0x13)
     423                    $C$DW$95        .dwtag  DW_TAG_variable, DW_AT_name("est_test")
     424                            .dwattr $C$DW$95, DW_AT_TI_symbol_name("est_test")
     425                            .dwattr $C$DW$95, DW_AT_type(*$C$DW$T$10)
     426                            .dwattr $C$DW$95, DW_AT_declaration
     427                            .dwattr $C$DW$95, DW_AT_external
     428                            .dwattr $C$DW$95, DW_AT_decl_file(".\..\packages\ti\vlib\src\VLIB_haarDetectObjectsDense\..\co
     429                            .dwattr $C$DW$95, DW_AT_decl_line(0x75)
     430                            .dwattr $C$DW$95, DW_AT_decl_column(0x14)
     431                    $C$DW$96        .dwtag  DW_TAG_variable, DW_AT_name("beg_count")
     432                            .dwattr $C$DW$96, DW_AT_TI_symbol_name("beg_count")
     433                            .dwattr $C$DW$96, DW_AT_type(*$C$DW$T$188)
     434                            .dwattr $C$DW$96, DW_AT_declaration
     435                            .dwattr $C$DW$96, DW_AT_external
     436                            .dwattr $C$DW$96, DW_AT_decl_file(".\..\packages\ti\vlib\src\VLIB_haarDetectObjectsDense\..\co
     437                            .dwattr $C$DW$96, DW_AT_decl_line(0x76)
     438                            .dwattr $C$DW$96, DW_AT_decl_column(0x14)
     439                    $C$DW$97        .dwtag  DW_TAG_variable, DW_AT_name("end_count")
     440                            .dwattr $C$DW$97, DW_AT_TI_symbol_name("end_count")
TMS320C6x Assembler PC v7.4.2 Sat Sep 26 11:10:16 2015

Tools Copyright (c) 1996-2012 Texas Instruments Incorporated
package/lib/Regression/regress_d_c/./../packages/ti/vlib/src/VLIB_haarDetectObjectsDense/VLIB_haarDetectObjectsDense_d.se66 PAGE    9

     441                            .dwattr $C$DW$97, DW_AT_type(*$C$DW$T$188)
     442                            .dwattr $C$DW$97, DW_AT_declaration
     443                            .dwattr $C$DW$97, DW_AT_external
     444                            .dwattr $C$DW$97, DW_AT_decl_file(".\..\packages\ti\vlib\src\VLIB_haarDetectObjectsDense\..\co
     445                            .dwattr $C$DW$97, DW_AT_decl_line(0x77)
     446                            .dwattr $C$DW$97, DW_AT_decl_column(0x14)
     447                    $C$DW$98        .dwtag  DW_TAG_variable, DW_AT_name("overhead")
     448                            .dwattr $C$DW$98, DW_AT_TI_symbol_name("overhead")
     449                            .dwattr $C$DW$98, DW_AT_type(*$C$DW$T$188)
     450                            .dwattr $C$DW$98, DW_AT_declaration
     451                            .dwattr $C$DW$98, DW_AT_external
     452                            .dwattr $C$DW$98, DW_AT_decl_file(".\..\packages\ti\vlib\src\VLIB_haarDetectObjectsDense\..\co
     453                            .dwattr $C$DW$98, DW_AT_decl_line(0x78)
     454                            .dwattr $C$DW$98, DW_AT_decl_column(0x14)
     455                    $C$DW$99        .dwtag  DW_TAG_variable, DW_AT_name("cycles")
     456                            .dwattr $C$DW$99, DW_AT_TI_symbol_name("cycles")
     457                            .dwattr $C$DW$99, DW_AT_type(*$C$DW$T$189)
     458                            .dwattr $C$DW$99, DW_AT_declaration
     459                            .dwattr $C$DW$99, DW_AT_external
     460                            .dwattr $C$DW$99, DW_AT_decl_file(".\..\packages\ti\vlib\src\VLIB_haarDetectObjectsDense\..\co
     461                            .dwattr $C$DW$99, DW_AT_decl_line(0x79)
     462                            .dwattr $C$DW$99, DW_AT_decl_column(0x14)
     463                    ;       C:\VLIB_Tools\CCSV5_4_0\ccsv5\tools\compiler\C6000\bin\opt6x.exe C:\\Users\\gtbldadm\\AppData\
     464 00000000                   .sect   ".text"
     465                            .clink
     466                            .global VLIB_haarDetectObjectsDense_d
     467                    
     468                    $C$DW$100       .dwtag  DW_TAG_subprogram, DW_AT_name("VLIB_haarDetectObjectsDense_d")
     469                            .dwattr $C$DW$100, DW_AT_low_pc(VLIB_haarDetectObjectsDense_d)
     470                            .dwattr $C$DW$100, DW_AT_high_pc(0x00)
     471                            .dwattr $C$DW$100, DW_AT_TI_symbol_name("VLIB_haarDetectObjectsDense_d")
     472                            .dwattr $C$DW$100, DW_AT_external
     473                            .dwattr $C$DW$100, DW_AT_TI_begin_file("./../packages/ti/vlib/src/VLIB_haarDetectObjectsDense/
     474                            .dwattr $C$DW$100, DW_AT_TI_begin_line(0x26)
     475                            .dwattr $C$DW$100, DW_AT_TI_begin_column(0x06)
     476                            .dwattr $C$DW$100, DW_AT_decl_file("./../packages/ti/vlib/src/VLIB_haarDetectObjectsDense/VLIB
     477                            .dwattr $C$DW$100, DW_AT_decl_line(0x26)
     478                            .dwattr $C$DW$100, DW_AT_decl_column(0x06)
     479                            .dwattr $C$DW$100, DW_AT_TI_max_frame_size(0x80)
     480                            .dwpsn  file "./../packages/ti/vlib/src/VLIB_haarDetectObjectsDense/VLIB_haarDetectObjectsDens
     481                    
     482                            .dwfde $C$DW$CIE, VLIB_haarDetectObjectsDense_d
     483                    $C$DW$101       .dwtag  DW_TAG_formal_parameter, DW_AT_name("LevelOfFeedback")
     484                            .dwattr $C$DW$101, DW_AT_TI_symbol_name("LevelOfFeedback")
     485                            .dwattr $C$DW$101, DW_AT_type(*$C$DW$T$21)
     486                            .dwattr $C$DW$101, DW_AT_location[DW_OP_reg4]
     487                    ;----------------------------------------------------------------------
     488                    ;  38 | void VLIB_haarDetectObjectsDense_d (uint8_t LevelOfFeedback)           
     489                    ;----------------------------------------------------------------------
     490                    
     491                    ;******************************************************************************
     492                    ;* FUNCTION NAME: VLIB_haarDetectObjectsDense_d                               *
     493                    ;*                                                                            *
     494                    ;*   Regs Modified     : A0,A1,A2,A3,A4,A5,A6,A7,A8,A9,A10,A11,A12,A13,A14,   *
     495                    ;*                           A15,B0,B1,B2,B3,B4,B5,B6,B7,B8,B9,B10,B11,B12,   *
TMS320C6x Assembler PC v7.4.2 Sat Sep 26 11:10:16 2015

Tools Copyright (c) 1996-2012 Texas Instruments Incorporated
package/lib/Regression/regress_d_c/./../packages/ti/vlib/src/VLIB_haarDetectObjectsDense/VLIB_haarDetectObjectsDense_d.se66 PAGE   10

     496                    ;*                           B13,SP,A16,A17,A18,A19,A20,A21,A22,A23,A24,A25,  *
     497                    ;*                           A26,A27,A28,A29,A30,A31,B16,B17,B18,B19,B20,B21, *
     498                    ;*                           B22,B23,B24,B25,B26,B27,B28,B29,B30,B31          *
     499                    ;*   Regs Used         : A0,A1,A2,A3,A4,A5,A6,A7,A8,A9,A10,A11,A12,A13,A14,   *
     500                    ;*                           A15,B0,B1,B2,B3,B4,B5,B6,B7,B8,B9,B10,B11,B12,   *
     501                    ;*                           B13,DP,SP,A16,A17,A18,A19,A20,A21,A22,A23,A24,   *
     502                    ;*                           A25,A26,A27,A28,A29,A30,A31,B16,B17,B18,B19,B20, *
     503                    ;*                           B21,B22,B23,B24,B25,B26,B27,B28,B29,B30,B31      *
     504                    ;*   Local Frame Size  : 16 Args + 52 Auto + 56 Save = 124 byte               *
     505                    ;******************************************************************************
     506                    
     507                    ;******************************************************************************
     508                    ;*                                                                            *
     509                    ;* Using -g (debug) with optimization (-o3) may disable key optimizations!    *
     510                    ;*                                                                            *
     511                    ;******************************************************************************
     512 00000000           VLIB_haarDetectObjectsDense_d:
     513                    ;** --------------------------------------------------------------------------*
     514                    ;          EXCLUSIVE CPU CYCLES: 15
     515                    ;** 45  -----------------------    haarDetectObjectsDense_getTestParams(&prm, &test_cases);
     516                    ;** 48  -----------------------    VLIB_profile_init(2, "VLIB_haarDetectObjectsDense");
     517                    ;** 51  -----------------------    if ( test_cases <= 0 ) goto g24;
     518                            .dwcfi  cfa_offset, 0
     519                    ;----------------------------------------------------------------------
     520                    ;  40 | int32_t    tpi;  /* test parameter index */                            
     521                    ;  43 | haarDetectObjectsDense_testParams_t   *prm;                            
     522                    ;----------------------------------------------------------------------
     523 00000000     25f7             STW     .D2T1   A11,*SP--(8)      ; |39| 
     524                            .dwcfi  cfa_offset, 8
     525                            .dwcfi  save_reg_to_mem, 11, 0
     526 00000002     2577             STW     .D2T1   A10,*SP--(8)      ; |39| 
     527                            .dwcfi  cfa_offset, 16
     528                            .dwcfi  save_reg_to_mem, 10, -8
     529 00000004     9677             STDW    .D2T2   B13:B12,*SP--     ; |39| 
     530                            .dwcfi  cfa_offset, 24
     531                            .dwcfi  save_reg_to_mem, 29, -12
     532                            .dwcfi  save_reg_to_mem, 28, -16
     533 00000006     9577             STDW    .D2T2   B11:B10,*SP--     ; |39| 
     534                            .dwcfi  cfa_offset, 32
     535                            .dwcfi  save_reg_to_mem, 27, -20
     536                            .dwcfi  save_reg_to_mem, 26, -24
     537 00000008     8777             STDW    .D2T1   A15:A14,*SP--     ; |39| 
     538                            .dwcfi  cfa_offset, 40
     539                            .dwcfi  save_reg_to_mem, 15, -28
     540                            .dwcfi  save_reg_to_mem, 14, -32
     541 0000000a     8677             STDW    .D2T1   A13:A12,*SP--     ; |39| 
     542                            .dwcfi  cfa_offset, 48
     543                            .dwcfi  save_reg_to_mem, 13, -36
     544                            .dwcfi  save_reg_to_mem, 12, -40
     545 0000000c 01be94f6             STW     .D2T2   B3,*SP--(80)      ; |39| 
     546                            .dwcfi  cfa_offset, 128
     547                            .dwcfi  save_reg_to_mem, 19, 0
     548                    $C$DW$102       .dwtag  DW_TAG_variable, DW_AT_name("$O$C7")
     549                            .dwattr $C$DW$102, DW_AT_TI_symbol_name("$O$C7")
     550                            .dwattr $C$DW$102, DW_AT_type(*$C$DW$T$111)
TMS320C6x Assembler PC v7.4.2 Sat Sep 26 11:10:16 2015

Tools Copyright (c) 1996-2012 Texas Instruments Incorporated
package/lib/Regression/regress_d_c/./../packages/ti/vlib/src/VLIB_haarDetectObjectsDense/VLIB_haarDetectObjectsDense_d.se66 PAGE   11

     551                            .dwattr $C$DW$102, DW_AT_location[DW_OP_reg26]
     552                    $C$DW$103       .dwtag  DW_TAG_variable, DW_AT_name("$O$C8")
     553                            .dwattr $C$DW$103, DW_AT_TI_symbol_name("$O$C8")
     554                            .dwattr $C$DW$103, DW_AT_type(*$C$DW$T$111)
     555                            .dwattr $C$DW$103, DW_AT_location[DW_OP_reg10]
     556                    $C$DW$104       .dwtag  DW_TAG_variable, DW_AT_name("$O$C9")
     557                            .dwattr $C$DW$104, DW_AT_TI_symbol_name("$O$C9")
     558                            .dwattr $C$DW$104, DW_AT_type(*$C$DW$T$69)
     559                            .dwattr $C$DW$104, DW_AT_location[DW_OP_reg20]
     560                    $C$DW$105       .dwtag  DW_TAG_variable, DW_AT_name("$O$C10")
     561                            .dwattr $C$DW$105, DW_AT_TI_symbol_name("$O$C10")
     562                            .dwattr $C$DW$105, DW_AT_type(*$C$DW$T$10)
     563                            .dwattr $C$DW$105, DW_AT_location[DW_OP_reg3]
     564                    $C$DW$106       .dwtag  DW_TAG_variable, DW_AT_name("$O$C11")
     565                            .dwattr $C$DW$106, DW_AT_TI_symbol_name("$O$C11")
     566                            .dwattr $C$DW$106, DW_AT_type(*$C$DW$T$10)
     567                            .dwattr $C$DW$106, DW_AT_location[DW_OP_reg3]
     568                    $C$DW$107       .dwtag  DW_TAG_variable, DW_AT_name("$O$C12")
     569                            .dwattr $C$DW$107, DW_AT_TI_symbol_name("$O$C12")
     570                            .dwattr $C$DW$107, DW_AT_type(*$C$DW$T$9)
     571                            .dwattr $C$DW$107, DW_AT_location[DW_OP_reg10]
     572                    $C$DW$108       .dwtag  DW_TAG_variable, DW_AT_name("$O$C13")
     573                            .dwattr $C$DW$108, DW_AT_TI_symbol_name("$O$C13")
     574                            .dwattr $C$DW$108, DW_AT_type(*$C$DW$T$10)
     575                            .dwattr $C$DW$108, DW_AT_location[DW_OP_reg12]
     576                    $C$DW$109       .dwtag  DW_TAG_variable, DW_AT_name("$O$f5")
     577                            .dwattr $C$DW$109, DW_AT_TI_symbol_name("$O$f5")
     578                            .dwattr $C$DW$109, DW_AT_type(*$C$DW$T$10)
     579                            .dwattr $C$DW$109, DW_AT_location[DW_OP_reg0]
     580                    $C$DW$110       .dwtag  DW_TAG_variable, DW_AT_name("$O$f6")
     581                            .dwattr $C$DW$110, DW_AT_TI_symbol_name("$O$f6")
     582                            .dwattr $C$DW$110, DW_AT_type(*$C$DW$T$10)
     583                            .dwattr $C$DW$110, DW_AT_location[DW_OP_reg0]
     584                    $C$DW$111       .dwtag  DW_TAG_variable, DW_AT_name("$O$U13")
     585                            .dwattr $C$DW$111, DW_AT_TI_symbol_name("$O$U13")
     586                            .dwattr $C$DW$111, DW_AT_type(*$C$DW$T$69)
     587                            .dwattr $C$DW$111, DW_AT_location[DW_OP_reg11]
     588                    $C$DW$112       .dwtag  DW_TAG_variable, DW_AT_name("$O$K27")
     589                            .dwattr $C$DW$112, DW_AT_TI_symbol_name("$O$K27")
     590                            .dwattr $C$DW$112, DW_AT_type(*$C$DW$T$11)
     591                            .dwattr $C$DW$112, DW_AT_location[DW_OP_reg3]
     592                    $C$DW$113       .dwtag  DW_TAG_variable, DW_AT_name("$O$K34")
     593                            .dwattr $C$DW$113, DW_AT_TI_symbol_name("$O$K34")
     594                            .dwattr $C$DW$113, DW_AT_type(*$C$DW$T$11)
     595                            .dwattr $C$DW$113, DW_AT_location[DW_OP_reg3]
     596                    $C$DW$114       .dwtag  DW_TAG_variable, DW_AT_name("$O$K37")
     597                            .dwattr $C$DW$114, DW_AT_TI_symbol_name("$O$K37")
     598                            .dwattr $C$DW$114, DW_AT_type(*$C$DW$T$11)
     599                            .dwattr $C$DW$114, DW_AT_location[DW_OP_reg4]
     600                    $C$DW$115       .dwtag  DW_TAG_variable, DW_AT_name("$O$K81")
     601                            .dwattr $C$DW$115, DW_AT_TI_symbol_name("$O$K81")
     602                            .dwattr $C$DW$115, DW_AT_type(*$C$DW$T$111)
     603                            .dwattr $C$DW$115, DW_AT_location[DW_OP_reg29]
     604                    $C$DW$116       .dwtag  DW_TAG_variable, DW_AT_name("$O$K87")
     605                            .dwattr $C$DW$116, DW_AT_TI_symbol_name("$O$K87")
TMS320C6x Assembler PC v7.4.2 Sat Sep 26 11:10:16 2015

Tools Copyright (c) 1996-2012 Texas Instruments Incorporated
package/lib/Regression/regress_d_c/./../packages/ti/vlib/src/VLIB_haarDetectObjectsDense/VLIB_haarDetectObjectsDense_d.se66 PAGE   12

     606                            .dwattr $C$DW$116, DW_AT_type(*$C$DW$T$10)
     607                            .dwattr $C$DW$116, DW_AT_location[DW_OP_reg20]
     608                    $C$DW$117       .dwtag  DW_TAG_variable, DW_AT_name("$O$K135")
     609                            .dwattr $C$DW$117, DW_AT_TI_symbol_name("$O$K135")
     610                            .dwattr $C$DW$117, DW_AT_type(*$C$DW$T$187)
     611                            .dwattr $C$DW$117, DW_AT_location[DW_OP_reg13]
     612                    $C$DW$118       .dwtag  DW_TAG_variable, DW_AT_name("$O$U148")
     613                            .dwattr $C$DW$118, DW_AT_TI_symbol_name("$O$U148")
     614                            .dwattr $C$DW$118, DW_AT_type(*$C$DW$T$8)
     615                            .dwattr $C$DW$118, DW_AT_location[DW_OP_reg12]
     616                    $C$DW$119       .dwtag  DW_TAG_variable, DW_AT_name("$O$U156")
     617                            .dwattr $C$DW$119, DW_AT_TI_symbol_name("$O$U156")
     618                            .dwattr $C$DW$119, DW_AT_type(*$C$DW$T$163)
     619                            .dwattr $C$DW$119, DW_AT_location[DW_OP_reg5]
     620                    $C$DW$120       .dwtag  DW_TAG_variable, DW_AT_name("$O$U177")
     621                            .dwattr $C$DW$120, DW_AT_TI_symbol_name("$O$U177")
     622                            .dwattr $C$DW$120, DW_AT_type(*$C$DW$T$163)
     623                            .dwattr $C$DW$120, DW_AT_location[DW_OP_reg5]
     624                    $C$DW$121       .dwtag  DW_TAG_variable, DW_AT_name("$O$U12")
     625                            .dwattr $C$DW$121, DW_AT_TI_symbol_name("$O$U12")
     626                            .dwattr $C$DW$121, DW_AT_type(*$C$DW$T$10)
     627                            .dwattr $C$DW$121, DW_AT_location[DW_OP_reg27]
     628                    $C$DW$122       .dwtag  DW_TAG_variable, DW_AT_name("$O$K195")
     629                            .dwattr $C$DW$122, DW_AT_TI_symbol_name("$O$K195")
     630                            .dwattr $C$DW$122, DW_AT_type(*$C$DW$T$111)
     631                            .dwattr $C$DW$122, DW_AT_location[DW_OP_reg8]
     632                    $C$DW$123       .dwtag  DW_TAG_variable, DW_AT_name("$O$L1")
     633                            .dwattr $C$DW$123, DW_AT_TI_symbol_name("$O$L1")
     634                            .dwattr $C$DW$123, DW_AT_type(*$C$DW$T$10)
     635                            .dwattr $C$DW$123, DW_AT_location[DW_OP_reg4]
     636                    $C$DW$124       .dwtag  DW_TAG_variable, DW_AT_name("$O$L2")
     637                            .dwattr $C$DW$124, DW_AT_TI_symbol_name("$O$L2")
     638                            .dwattr $C$DW$124, DW_AT_type(*$C$DW$T$10)
     639                            .dwattr $C$DW$124, DW_AT_location[DW_OP_reg4]
     640                    $C$DW$125       .dwtag  DW_TAG_variable, DW_AT_name("LevelOfFeedback")
     641                            .dwattr $C$DW$125, DW_AT_TI_symbol_name("LevelOfFeedback")
     642                            .dwattr $C$DW$125, DW_AT_type(*$C$DW$T$132)
     643                            .dwattr $C$DW$125, DW_AT_location[DW_OP_breg31 24]
     644                    $C$DW$126       .dwtag  DW_TAG_variable, DW_AT_name("tpi")
     645                            .dwattr $C$DW$126, DW_AT_TI_symbol_name("tpi")
     646                            .dwattr $C$DW$126, DW_AT_type(*$C$DW$T$27)
     647                            .dwattr $C$DW$126, DW_AT_location[DW_OP_reg15]
     648                    $C$DW$127       .dwtag  DW_TAG_variable, DW_AT_name("prm")
     649                            .dwattr $C$DW$127, DW_AT_TI_symbol_name("prm")
     650                            .dwattr $C$DW$127, DW_AT_type(*$C$DW$T$72)
     651                            .dwattr $C$DW$127, DW_AT_location[DW_OP_breg31 20]
     652                    $C$DW$128       .dwtag  DW_TAG_variable, DW_AT_name("status_nat_vs_int")
     653                            .dwattr $C$DW$128, DW_AT_TI_symbol_name("status_nat_vs_int")
     654                            .dwattr $C$DW$128, DW_AT_type(*$C$DW$T$27)
     655                            .dwattr $C$DW$128, DW_AT_location[DW_OP_reg26]
     656                    $C$DW$129       .dwtag  DW_TAG_variable, DW_AT_name("integralImgWidth")
     657                            .dwattr $C$DW$129, DW_AT_TI_symbol_name("integralImgWidth")
     658                            .dwattr $C$DW$129, DW_AT_type(*$C$DW$T$27)
     659                            .dwattr $C$DW$129, DW_AT_location[DW_OP_reg28]
     660                    $C$DW$130       .dwtag  DW_TAG_variable, DW_AT_name("integralImgHeight")
TMS320C6x Assembler PC v7.4.2 Sat Sep 26 11:10:16 2015

Tools Copyright (c) 1996-2012 Texas Instruments Incorporated
package/lib/Regression/regress_d_c/./../packages/ti/vlib/src/VLIB_haarDetectObjectsDense/VLIB_haarDetectObjectsDense_d.se66 PAGE   13

     661                            .dwattr $C$DW$130, DW_AT_TI_symbol_name("integralImgHeight")
     662                            .dwattr $C$DW$130, DW_AT_type(*$C$DW$T$27)
     663                            .dwattr $C$DW$130, DW_AT_location[DW_OP_reg13]
     664                    $C$DW$131       .dwtag  DW_TAG_variable, DW_AT_name("integralImgPitch")
     665                            .dwattr $C$DW$131, DW_AT_TI_symbol_name("integralImgPitch")
     666                            .dwattr $C$DW$131, DW_AT_type(*$C$DW$T$27)
     667                            .dwattr $C$DW$131, DW_AT_location[DW_OP_reg10]
     668                    $C$DW$132       .dwtag  DW_TAG_variable, DW_AT_name("outObjList")
     669                            .dwattr $C$DW$132, DW_AT_TI_symbol_name("outObjList")
     670                            .dwattr $C$DW$132, DW_AT_type(*$C$DW$T$66)
     671                            .dwattr $C$DW$132, DW_AT_location[DW_OP_breg31 28]
     672                    $C$DW$133       .dwtag  DW_TAG_variable, DW_AT_name("scratch1")
     673                            .dwattr $C$DW$133, DW_AT_TI_symbol_name("scratch1")
     674                            .dwattr $C$DW$133, DW_AT_type(*$C$DW$T$130)
     675                            .dwattr $C$DW$133, DW_AT_location[DW_OP_breg31 32]
     676                    $C$DW$134       .dwtag  DW_TAG_variable, DW_AT_name("scratch2")
     677                            .dwattr $C$DW$134, DW_AT_TI_symbol_name("scratch2")
     678                            .dwattr $C$DW$134, DW_AT_type(*$C$DW$T$130)
     679                            .dwattr $C$DW$134, DW_AT_location[DW_OP_breg31 36]
     680                    $C$DW$135       .dwtag  DW_TAG_variable, DW_AT_name("classifier")
     681                            .dwattr $C$DW$135, DW_AT_TI_symbol_name("classifier")
     682                            .dwattr $C$DW$135, DW_AT_type(*$C$DW$T$42)
     683                            .dwattr $C$DW$135, DW_AT_location[DW_OP_breg31 40]
     684                    $C$DW$136       .dwtag  DW_TAG_variable, DW_AT_name("intImageA")
     685                            .dwattr $C$DW$136, DW_AT_TI_symbol_name("intImageA")
     686                            .dwattr $C$DW$136, DW_AT_type(*$C$DW$T$39)
     687                            .dwattr $C$DW$136, DW_AT_location[DW_OP_breg31 44]
     688                    $C$DW$137       .dwtag  DW_TAG_variable, DW_AT_name("intImageNA")
     689                            .dwattr $C$DW$137, DW_AT_TI_symbol_name("intImageNA")
     690                            .dwattr $C$DW$137, DW_AT_type(*$C$DW$T$39)
     691                            .dwattr $C$DW$137, DW_AT_location[DW_OP_reg14]
     692                    $C$DW$138       .dwtag  DW_TAG_variable, DW_AT_name("classifier_cn")
     693                            .dwattr $C$DW$138, DW_AT_TI_symbol_name("classifier_cn")
     694                            .dwattr $C$DW$138, DW_AT_type(*$C$DW$T$42)
     695                            .dwattr $C$DW$138, DW_AT_location[DW_OP_breg31 48]
     696                    $C$DW$139       .dwtag  DW_TAG_variable, DW_AT_name("outObjList_cn")
     697                            .dwattr $C$DW$139, DW_AT_TI_symbol_name("outObjList_cn")
     698                            .dwattr $C$DW$139, DW_AT_type(*$C$DW$T$66)
     699                            .dwattr $C$DW$139, DW_AT_location[DW_OP_breg31 52]
     700                    $C$DW$140       .dwtag  DW_TAG_variable, DW_AT_name("objectPos")
     701                            .dwattr $C$DW$140, DW_AT_TI_symbol_name("objectPos")
     702                            .dwattr $C$DW$140, DW_AT_type(*$C$DW$T$39)
     703                            .dwattr $C$DW$140, DW_AT_location[DW_OP_breg31 56]
     704                    $C$DW$141       .dwtag  DW_TAG_variable, DW_AT_name("objectPos_cn")
     705                            .dwattr $C$DW$141, DW_AT_TI_symbol_name("objectPos_cn")
     706                            .dwattr $C$DW$141, DW_AT_type(*$C$DW$T$39)
     707                            .dwattr $C$DW$141, DW_AT_location[DW_OP_breg31 60]
     708                    $C$DW$142       .dwtag  DW_TAG_variable, DW_AT_name("numPixels")
     709                            .dwattr $C$DW$142, DW_AT_TI_symbol_name("numPixels")
     710                            .dwattr $C$DW$142, DW_AT_type(*$C$DW$T$27)
     711                            .dwattr $C$DW$142, DW_AT_location[DW_OP_breg31 64]
     712                    $C$DW$143       .dwtag  DW_TAG_variable, DW_AT_name("totTreeExec")
     713                            .dwattr $C$DW$143, DW_AT_TI_symbol_name("totTreeExec")
     714                            .dwattr $C$DW$143, DW_AT_type(*$C$DW$T$27)
     715                            .dwattr $C$DW$143, DW_AT_location[DW_OP_reg14]
TMS320C6x Assembler PC v7.4.2 Sat Sep 26 11:10:16 2015

Tools Copyright (c) 1996-2012 Texas Instruments Incorporated
package/lib/Regression/regress_d_c/./../packages/ti/vlib/src/VLIB_haarDetectObjectsDense/VLIB_haarDetectObjectsDense_d.se66 PAGE   14

     716                    $C$DW$144       .dwtag  DW_TAG_variable, DW_AT_name("totTreeExec_cn")
     717                            .dwattr $C$DW$144, DW_AT_TI_symbol_name("totTreeExec_cn")
     718                            .dwattr $C$DW$144, DW_AT_type(*$C$DW$T$27)
     719                            .dwattr $C$DW$144, DW_AT_location[DW_OP_reg10]
     720                    $C$DW$145       .dwtag  DW_TAG_variable, DW_AT_name("intImageNAL")
     721                            .dwattr $C$DW$145, DW_AT_TI_symbol_name("intImageNAL")
     722                            .dwattr $C$DW$145, DW_AT_type(*$C$DW$T$39)
     723                            .dwattr $C$DW$145, DW_AT_location[DW_OP_breg31 68]
     724                    $C$DW$146       .dwtag  DW_TAG_variable, DW_AT_name("$O$v1")
     725                            .dwattr $C$DW$146, DW_AT_TI_symbol_name("$O$v1")
     726                            .dwattr $C$DW$146, DW_AT_type(*$C$DW$T$72)
     727                            .dwattr $C$DW$146, DW_AT_location[DW_OP_reg28]
     728                    $C$DW$147       .dwtag  DW_TAG_variable, DW_AT_name("$O$U154")
     729                            .dwattr $C$DW$147, DW_AT_TI_symbol_name("$O$U154")
     730                            .dwattr $C$DW$147, DW_AT_type(*$C$DW$T$163)
     731                            .dwattr $C$DW$147, DW_AT_location[DW_OP_reg22]
     732                    $C$DW$148       .dwtag  DW_TAG_variable, DW_AT_name("$O$U154")
     733                            .dwattr $C$DW$148, DW_AT_TI_symbol_name("$O$U154")
     734                            .dwattr $C$DW$148, DW_AT_type(*$C$DW$T$163)
     735                            .dwattr $C$DW$148, DW_AT_location[DW_OP_reg22]
     736                    $C$DW$149       .dwtag  DW_TAG_variable, DW_AT_name("i")
     737                            .dwattr $C$DW$149, DW_AT_TI_symbol_name("i")
     738                            .dwattr $C$DW$149, DW_AT_type(*$C$DW$T$27)
     739                            .dwattr $C$DW$149, DW_AT_location[DW_OP_reg21]
     740                    $C$DW$150       .dwtag  DW_TAG_variable, DW_AT_name("i")
     741                            .dwattr $C$DW$150, DW_AT_TI_symbol_name("i")
     742                            .dwattr $C$DW$150, DW_AT_type(*$C$DW$T$27)
     743                            .dwattr $C$DW$150, DW_AT_location[DW_OP_reg21]
     744                    $C$DW$151       .dwtag  DW_TAG_variable, DW_AT_name("$O$v2")
     745                            .dwattr $C$DW$151, DW_AT_TI_symbol_name("$O$v2")
     746                            .dwattr $C$DW$151, DW_AT_type(*$C$DW$T$188)
     747                            .dwattr $C$DW$151, DW_AT_location[DW_OP_reg24]
     748                    $C$DW$152       .dwtag  DW_TAG_variable, DW_AT_name("$O$v2")
     749                            .dwattr $C$DW$152, DW_AT_TI_symbol_name("$O$v2")
     750                            .dwattr $C$DW$152, DW_AT_type(*$C$DW$T$188)
     751                            .dwattr $C$DW$152, DW_AT_location[DW_OP_reg20]
     752                    $C$DW$153       .dwtag  DW_TAG_variable, DW_AT_name("$O$ILP$s32x2$001")
     753                            .dwattr $C$DW$153, DW_AT_TI_symbol_name("$O$ILP$s32x2$001")
     754                            .dwattr $C$DW$153, DW_AT_type(*$C$DW$T$150)
     755                            .dwattr $C$DW$153, DW_AT_location[DW_OP_reg12]
     756 00000010 0200002a!            MVKL    .S2     test_cases,B4
     757 00000014 0200006a!            MVKH    .S2     test_cases,B4
     758                    $C$DW$154       .dwtag  DW_TAG_TI_branch
     759                            .dwattr $C$DW$154, DW_AT_low_pc(0x00)
     760                            .dwattr $C$DW$154, DW_AT_name("haarDetectObjectsDense_getTestParams")
     761                            .dwattr $C$DW$154, DW_AT_TI_call
     762                    
     763 00000018 10000013!            CALLP   .S2     haarDetectObjectsDense_getTestParams,B3
     764 00000020     ccc5  ||         STW     .D2T1   A4,*+SP(24)       ; |39| 
     765 00000022     a636  ||         ADDAW   .D1X    SP,5,A4           ; |45| 
     766                    
     767                            .dwpsn  file "./../packages/ti/vlib/src/VLIB_haarDetectObjectsDense/VLIB_haarDetectObjectsDens
     768                    ;----------------------------------------------------------------------
     769                    ;  45 | haarDetectObjectsDense_getTestParams(&prm, &test_cases);               
     770                    ;----------------------------------------------------------------------
TMS320C6x Assembler PC v7.4.2 Sat Sep 26 11:10:16 2015

Tools Copyright (c) 1996-2012 Texas Instruments Incorporated
package/lib/Regression/regress_d_c/./../packages/ti/vlib/src/VLIB_haarDetectObjectsDense/VLIB_haarDetectObjectsDense_d.se66 PAGE   15

     771 00000024           $C$RL0:    ; CALL OCCURS {haarDetectObjectsDense_getTestParams} {0}  ; |45| 
     772                    ;** --------------------------------------------------------------------------*
     773                    ;          EXCLUSIVE CPU CYCLES: 8
     774 00000024 0200002a!            MVKL    .S2     $C$SL1+0,B4
     775 00000028 0200006a!            MVKH    .S2     $C$SL1+0,B4
     776                    $C$DW$155       .dwtag  DW_TAG_TI_branch
     777                            .dwattr $C$DW$155, DW_AT_low_pc(0x00)
     778                            .dwattr $C$DW$155, DW_AT_name("VLIB_profile_init")
     779                            .dwattr $C$DW$155, DW_AT_TI_call
     780                    
     781 0000002c 10000013!            CALLP   .S2     VLIB_profile_init,B3
     782 00000030     4626  ||         MVK     .L1     0x2,A4            ; |48| 
     783                    
     784                            .dwpsn  file "./../packages/ti/vlib/src/VLIB_haarDetectObjectsDense/VLIB_haarDetectObjectsDens
     785                    ;----------------------------------------------------------------------
     786                    ;  48 | VLIB_profile_init(2, "VLIB_haarDetectObjectsDense");                   
     787                    ;----------------------------------------------------------------------
     788 00000040           $C$RL1:    ; CALL OCCURS {VLIB_profile_init} {0}  ; |48| 
     789                    ;** --------------------------------------------------------------------------*
     790                    ;          EXCLUSIVE CPU CYCLES: 14
     791                    ;**     -----------------------    K$11 = 48;
     792                    ;**     -----------------------    K$81 = &testPatternString[0];
     793                    ;**     -----------------------    K$87 = 255;
     794                    ;**     -----------------------    K$195 = &desc[0];
     795                    ;**     -----------------------    U$13 = prm-48;
     796                    ;**     -----------------------    K$27 = 0xffffffc0u;
     797                    ;**     -----------------------    K$34 = 0xfffffffcu;
     798                    ;**     -----------------------    K$37 = 212u;
     799                    ;**     -----------------------    U$12 = 0;
     800                    ;** 51  -----------------------    tpi = 0;
     801                    ;**     -----------------------    #pragma LOOP_FLAGS(5120u)
     802                    
     803 00000040 0780a359             ZERO    .L1     A15               ; |51| 
     804 00000044 0580a35b  ||         ZERO    .L2     B11               ; |51| 
     805 00000048 01800029! ||         MVKL    .S1     test_cases,A3
     806 0000004c 02bca2e6  ||         LDW     .D2T2   *+SP(20),B5
     807                    
     808 00000050 01800068!            MVKH    .S1     test_cases,A3
     809                            .dwpsn  file "./../packages/ti/vlib/src/VLIB_haarDetectObjectsDense/VLIB_haarDetectObjectsDens
     810                    ;----------------------------------------------------------------------
     811                    ;  51 | for( tpi=0; tpi < test_cases; tpi++ ) {                                
     812                    ;  54 |     int32_t    status_nat_vs_int = vlib_KERNEL_PASS; /* Test status : N
     813                    ;     | atural c vs. Optimized */                                              
     814                    ;  55 |     int32_t    status_nat_vs_ref = vlib_KERNEL_PASS; /* Test status : N
     815                    ;     | atural c vs. Static Reference */                                       
     816                    ;  56 |     int32_t    integralImgWidth          = prm[tpi].integralImgWidth;  
     817                    ;  57 |     int32_t    integralImgHeight         = prm[tpi].integralImgHeight; 
     818                    ;----------------------------------------------------------------------
     819 00000054 018c0264             LDW     .D1T1   *A3,A3            ; |51| 
     820 00000058 0680002a!            MVKL    .S2     testPatternString,B13
     821 0000005c 0680006a!            MVKH    .S2     testPatternString,B13
     822 00000060 02001828             MVK     .S1     48,A4
     823 00000064 0590b2f8             SUB     .L1X    B5,A4,A11
     824 00000068 000c0ad8             CMPGT   .L1     A3,0,A0           ; |51| 
     825                    
TMS320C6x Assembler PC v7.4.2 Sat Sep 26 11:10:16 2015

Tools Copyright (c) 1996-2012 Texas Instruments Incorporated
package/lib/Regression/regress_d_c/./../packages/ti/vlib/src/VLIB_haarDetectObjectsDense/VLIB_haarDetectObjectsDense_d.se66 PAGE   16

     826 0000006c d1cd4123     [!A0]   BNOP    .S2     $C$L17,2          ; |51| 
     827 00000070 c5801851  || [ A0]   ADDK    .S1     48,A11            ; |56| 
     828 00000074 c220a358  || [ A0]   MVK     .L1     0x8,A4            ; |62| 
     829                    
     830                            .dwpsn  file "./../packages/ti/vlib/src/VLIB_haarDetectObjectsDense/VLIB_haarDetectObjectsDens
     831                    ;----------------------------------------------------------------------
     832                    ;  58 | int32_t    integralImgPitch          = prm[tpi].integralImgPitch;      
     833                    ;----------------------------------------------------------------------
     834 00000078 c52c8264     [ A0]   LDW     .D1T1   *+A11(16),A10     ; |58| 
     835                            .dwpsn  file "./../packages/ti/vlib/src/VLIB_haarDetectObjectsDense/VLIB_haarDetectObjectsDens
     836 0000007c c62c4266     [ A0]   LDW     .D1T2   *+A11(8),B12      ; |56| 
     837                            .dwpsn  file "./../packages/ti/vlib/src/VLIB_haarDetectObjectsDense/VLIB_haarDetectObjectsDens
     838 00000080 c6ac6264     [ A0]   LDW     .D1T1   *+A11(12),A13     ; |57| 
     839                            .dwpsn  file "./../packages/ti/vlib/src/VLIB_haarDetectObjectsDense/VLIB_haarDetectObjectsDens
     840                               ; BRANCHCC OCCURS {$C$L17}        ; |51| 
     841                    ;** --------------------------------------------------------------------------*
     842                    ;**   BEGIN LOOP $C$L1
     843                    ;** --------------------------------------------------------------------------*
     844 00000084           $C$L1:    
     845                            .dwpsn  file "./../packages/ti/vlib/src/VLIB_haarDetectObjectsDense/VLIB_haarDetectObjectsDens
     846 00000084           $C$DW$L$VLIB_haarDetectObjectsDense_d$4$B:
     847                    ;          EXCLUSIVE CPU CYCLES: 6
     848                    ;**     -----------------------g3:
     849                    ;** 56  -----------------------    integralImgWidth = (*(U$13 += 48)).integralImgWidth;
     850                    ;** 57  -----------------------    integralImgHeight = (*U$13).integralImgHeight;
     851                    ;** 58  -----------------------    integralImgPitch = (*U$13).integralImgPitch;
     852                    ;** 62  -----------------------    outObjList = (struct $fake3 *)VLIB_malloc(8u);
     853                    ;** 63  -----------------------    scratch1 = VLIB_malloc((unsigned)((*U$13).integralImgWidth<<4)+K$11
     854                    ;** 64  -----------------------    scratch2 = VLIB_malloc((*U$13).integralImgWidth+7>>1u&K$34);
     855                    ;** 66  -----------------------    classifier = (struct $fake2 *)malloc(K$37);
     856                    ;** 67  -----------------------    C$13 = integralImgPitch*integralImgHeight*4;
     857                    ;** 67  -----------------------    intImageA = malloc((unsigned)C$13);
     858                    ;** 68  -----------------------    intImageNA = malloc((unsigned)C$13+4u);
     859                    ;** 69  -----------------------    classifier_cn = (struct $fake2 *)malloc(K$37);
     860                    ;** 70  -----------------------    outObjList_cn = (struct $fake3 *)malloc(8u);
     861                    ;** 71  -----------------------    objectPos = malloc((unsigned)((*U$13).maxObjects*4));
     862                    ;** 72  -----------------------    objectPos_cn = malloc((unsigned)((*U$13).maxObjects*4));
     863                    ;** 77  -----------------------    intImageNAL = intImageNA;
     864                    ;** 80  -----------------------    if ( !((intImageA != NULL)&(intImageNAL != NULL)&(classifier != NUL
     865                            .dwpsn  file "./../packages/ti/vlib/src/VLIB_haarDetectObjectsDense/VLIB_haarDetectObjectsDens
     866                    ;----------------------------------------------------------------------
     867                    ;  62 | VLIB_HAARDETOBJ_sObjectList   *outObjList = (VLIB_HAARDETOBJ_sObjectLis
     868                    ;     | t *)VLIB_malloc(sizeof(VLIB_HAARDETOBJ_sObjectList));                  
     869                    ;----------------------------------------------------------------------
     870                    $C$DW$156       .dwtag  DW_TAG_TI_branch
     871                            .dwattr $C$DW$156, DW_AT_low_pc(0x00)
     872                            .dwattr $C$DW$156, DW_AT_name("VLIB_malloc")
     873                            .dwattr $C$DW$156, DW_AT_TI_call
     874 00000084 00000010!            CALL    .S1     VLIB_malloc       ; |62| 
     875 00000088 01838162             ADDKPC  .S2     $C$RL2,B3,4       ; |62| 
     876 0000008c           $C$RL2:    ; CALL OCCURS {VLIB_malloc} {0}   ; |62| 
     877 0000008c           $C$DW$L$VLIB_haarDetectObjectsDense_d$4$E:
     878                    ;** --------------------------------------------------------------------------*
     879 0000008c           $C$DW$L$VLIB_haarDetectObjectsDense_d$5$B:
     880                    ;          EXCLUSIVE CPU CYCLES: 84
TMS320C6x Assembler PC v7.4.2 Sat Sep 26 11:10:16 2015

Tools Copyright (c) 1996-2012 Texas Instruments Incorporated
package/lib/Regression/regress_d_c/./../packages/ti/vlib/src/VLIB_haarDetectObjectsDense/VLIB_haarDetectObjectsDense_d.se66 PAGE   17

     881                            .dwpsn  file "./../packages/ti/vlib/src/VLIB_haarDetectObjectsDense/VLIB_haarDetectObjectsDens
     882                    ;----------------------------------------------------------------------
     883                    ;  63 | uint8_t                       *scratch1   = VLIB_malloc(4 * (((prm[tpi]
     884                    ;     | .integralImgWidth + 3) & 0xFFFFFFCU) * sizeof(uint32_t)));             
     885                    ;----------------------------------------------------------------------
     886 0000008c 01ac4264             LDW     .D1T1   *+A11(8),A3       ; |63| 
     887                            .dwpsn  file "./../packages/ti/vlib/src/VLIB_haarDetectObjectsDense/VLIB_haarDetectObjectsDens
     888 00000090     ecc5             STW     .D2T1   A4,*+SP(28)       ; |62| 
     889 00000092     4c6e             NOP             3
     890                            .dwpsn  file "./../packages/ti/vlib/src/VLIB_haarDetectObjectsDense/VLIB_haarDetectObjectsDens
     891 00000094 028c9ca2             SHL     .S2X    A3,4,B5           ; |63| 
     892 00000098 0214dec2             ADDAD   .D2     B5,6,B4           ; |63| 
     893 000000a0 01ffe028             MVK     .S1     0xffffffc0,A3
     894                    $C$DW$157       .dwtag  DW_TAG_TI_branch
     895                            .dwattr $C$DW$157, DW_AT_low_pc(0x04)
     896                            .dwattr $C$DW$157, DW_AT_name("VLIB_malloc")
     897                            .dwattr $C$DW$157, DW_AT_TI_call
     898                    
     899 000000a4 02107f79             AND     .L1X    A3,B4,A4          ; |63| 
     900 000000a8 10000012! ||         CALLP   .S2     VLIB_malloc,B3
     901                    
     902 000000ac           $C$RL3:    ; CALL OCCURS {VLIB_malloc} {0}   ; |63| 
     903                            .dwpsn  file "./../packages/ti/vlib/src/VLIB_haarDetectObjectsDense/VLIB_haarDetectObjectsDens
     904                    ;----------------------------------------------------------------------
     905                    ;  64 | uint8_t                       *scratch2   = VLIB_malloc((((prm[tpi].int
     906                    ;     | egralImgWidth + 7) >> 0x3U) * sizeof(uint32_t)));                      
     907                    ;----------------------------------------------------------------------
     908 000000ac 01ac4264             LDW     .D1T1   *+A11(8),A3       ; |64| 
     909                            .dwpsn  file "./../packages/ti/vlib/src/VLIB_haarDetectObjectsDense/VLIB_haarDetectObjectsDens
     910 000000b0     8d45             STW     .D2T1   A4,*+SP(32)       ; |63| 
     911 000000b2     4c6e             NOP             3
     912                            .dwpsn  file "./../packages/ti/vlib/src/VLIB_haarDetectObjectsDense/VLIB_haarDetectObjectsDens
     913 000000b4     e5b0             ADD     .L1     7,A3,A3           ; |64| 
     914                    
     915 000000b6     2dca             SHR     .S1     A3,1,A4           ; |64| 
     916 000000b8 01f0a358  ||         MVK     .L1     0xfffffffc,A3
     917                    
     918                    $C$DW$158       .dwtag  DW_TAG_TI_branch
     919                            .dwattr $C$DW$158, DW_AT_low_pc(0x00)
     920                            .dwattr $C$DW$158, DW_AT_name("VLIB_malloc")
     921                            .dwattr $C$DW$158, DW_AT_TI_call
     922                    
     923 000000c0 10000013!            CALLP   .S2     VLIB_malloc,B3
     924 000000c4 02106f78  ||         AND     .L1     A3,A4,A4          ; |64| 
     925                    
     926                    $C$RL4:    ; CALL OCCURS {VLIB_malloc} {0}   ; |64| 
     927                    $C$DW$159       .dwtag  DW_TAG_TI_branch
     928                            .dwattr $C$DW$159, DW_AT_low_pc(0x00)
     929                            .dwattr $C$DW$159, DW_AT_name("malloc")
     930                            .dwattr $C$DW$159, DW_AT_TI_call
     931                    
     932 000000c8 10000013!            CALLP   .S2     malloc,B3
     933 000000cc     ad45  ||         STW     .D2T1   A4,*+SP(36)       ; |64| 
     934 000000ce     9652  ||         MVK     .S1     0xd4,A4
     935                    
TMS320C6x Assembler PC v7.4.2 Sat Sep 26 11:10:16 2015

Tools Copyright (c) 1996-2012 Texas Instruments Incorporated
package/lib/Regression/regress_d_c/./../packages/ti/vlib/src/VLIB_haarDetectObjectsDense/VLIB_haarDetectObjectsDense_d.se66 PAGE   18

     936                            .dwpsn  file "./../packages/ti/vlib/src/VLIB_haarDetectObjectsDense/VLIB_haarDetectObjectsDens
     937                    ;----------------------------------------------------------------------
     938                    ;  66 | VLIB_HAARDETOBJ_sClassifier   *classifier    = (VLIB_HAARDETOBJ_sClassi
     939                    ;     | fier *)malloc(sizeof(VLIB_HAARDETOBJ_sClassifier));                    
     940                    ;----------------------------------------------------------------------
     941 000000d0           $C$RL5:    ; CALL OCCURS {malloc} {0}        ; |66| 
     942                            .dwpsn  file "./../packages/ti/vlib/src/VLIB_haarDetectObjectsDense/VLIB_haarDetectObjectsDens
     943                    ;----------------------------------------------------------------------
     944                    ;  67 | uint32_t                      *intImageA     = (uint32_t *) malloc(inte
     945                    ;     | gralImgPitch * integralImgHeight * sizeof(uint32_t));                  
     946                    ;----------------------------------------------------------------------
     947 000000d0 01a9a800             MPY32   .M1     A13,A10,A3        ; |67| 
     948                            .dwpsn  file "./../packages/ti/vlib/src/VLIB_haarDetectObjectsDense/VLIB_haarDetectObjectsDens
     949 000000d4     cd45             STW     .D2T1   A4,*+SP(40)       ; |66| 
     950 000000d6     2c6e             NOP             2
     951                            .dwpsn  file "./../packages/ti/vlib/src/VLIB_haarDetectObjectsDense/VLIB_haarDetectObjectsDens
     952 000000d8 060c4ca0             SHL     .S1     A3,2,A12          ; |67| 
     953                    $C$DW$160       .dwtag  DW_TAG_TI_branch
     954                            .dwattr $C$DW$160, DW_AT_low_pc(0x04)
     955                            .dwattr $C$DW$160, DW_AT_name("malloc")
     956                            .dwattr $C$DW$160, DW_AT_TI_call
     957                    
     958 000000e4 02300fd8             MV      .L1     A12,A4            ; |67| 
     959 000000e0 10000013! ||         CALLP   .S2     malloc,B3
     960                    
     961                    $C$RL6:    ; CALL OCCURS {malloc} {0}        ; |67| 
     962                    $C$DW$161       .dwtag  DW_TAG_TI_branch
     963                            .dwattr $C$DW$161, DW_AT_low_pc(0x00)
     964                            .dwattr $C$DW$161, DW_AT_name("malloc")
     965                            .dwattr $C$DW$161, DW_AT_TI_call
     966                    
     967 000000e8 10000013!            CALLP   .S2     malloc,B3
     968 000000f0 023d62f4  ||         STW     .D2T1   A4,*+SP(44)       ; |67| 
     969 000000ec 02308059  ||         ADD     .L1     4,A12,A4          ; |68| 
     970                    
     971                            .dwpsn  file "./../packages/ti/vlib/src/VLIB_haarDetectObjectsDense/VLIB_haarDetectObjectsDens
     972                    ;----------------------------------------------------------------------
     973                    ;  68 | uint32_t                      *intImageNA    = (uint32_t *) malloc((int
     974                    ;     | egralImgPitch * integralImgHeight + 1) * sizeof(uint32_t));            
     975                    ;----------------------------------------------------------------------
     976                    $C$RL7:    ; CALL OCCURS {malloc} {0}        ; |68| 
     977                    $C$DW$162       .dwtag  DW_TAG_TI_branch
     978                            .dwattr $C$DW$162, DW_AT_low_pc(0x00)
     979                            .dwattr $C$DW$162, DW_AT_name("malloc")
     980                            .dwattr $C$DW$162, DW_AT_TI_call
     981                    
     982 000000f4 10000013!            CALLP   .S2     malloc,B3
     983 000000f8     c646  ||         MV      .L1     A4,A14            ; |68| 
     984 000000fa     9652  ||         MVK     .S1     0xd4,A4
     985                    
     986                            .dwpsn  file "./../packages/ti/vlib/src/VLIB_haarDetectObjectsDense/VLIB_haarDetectObjectsDens
     987                    ;----------------------------------------------------------------------
     988                    ;  69 | VLIB_HAARDETOBJ_sClassifier   *classifier_cn = (VLIB_HAARDETOBJ_sClassi
     989                    ;     | fier *)malloc(sizeof(VLIB_HAARDETOBJ_sClassifier));                    
     990                    ;----------------------------------------------------------------------
TMS320C6x Assembler PC v7.4.2 Sat Sep 26 11:10:16 2015

Tools Copyright (c) 1996-2012 Texas Instruments Incorporated
package/lib/Regression/regress_d_c/./../packages/ti/vlib/src/VLIB_haarDetectObjectsDense/VLIB_haarDetectObjectsDense_d.se66 PAGE   19

     991                    $C$RL8:    ; CALL OCCURS {malloc} {0}        ; |69| 
     992                    $C$DW$163       .dwtag  DW_TAG_TI_branch
     993                            .dwattr $C$DW$163, DW_AT_low_pc(0x00)
     994                            .dwattr $C$DW$163, DW_AT_name("malloc")
     995                            .dwattr $C$DW$163, DW_AT_TI_call
     996                    
     997 00000100 10000013!            CALLP   .S2     malloc,B3
     998 00000104     8dc5  ||         STW     .D2T1   A4,*+SP(48)       ; |69| 
     999 00000106     0e26  ||         MVK     .L1     0x8,A4            ; |70| 
    1000                    
    1001                            .dwpsn  file "./../packages/ti/vlib/src/VLIB_haarDetectObjectsDense/VLIB_haarDetectObjectsDens
    1002                    ;----------------------------------------------------------------------
    1003                    ;  70 | VLIB_HAARDETOBJ_sObjectList   *outObjList_cn = (VLIB_HAARDETOBJ_sObject
    1004                    ;     | List *)malloc(sizeof(VLIB_HAARDETOBJ_sObjectList));                    
    1005                    ;----------------------------------------------------------------------
    1006 00000108           $C$RL9:    ; CALL OCCURS {malloc} {0}        ; |70| 
    1007                            .dwpsn  file "./../packages/ti/vlib/src/VLIB_haarDetectObjectsDense/VLIB_haarDetectObjectsDens
    1008                    ;----------------------------------------------------------------------
    1009                    ;  71 | uint32_t                      *objectPos     = malloc(prm[tpi].maxObjec
    1010                    ;     | ts * sizeof(uint32_t));                                                
    1011                    ;----------------------------------------------------------------------
    1012 00000108 01ad0264             LDW     .D1T1   *+A11(32),A3      ; |71| 
    1013                            .dwpsn  file "./../packages/ti/vlib/src/VLIB_haarDetectObjectsDense/VLIB_haarDetectObjectsDens
    1014 0000010c     adc5             STW     .D2T1   A4,*+SP(52)       ; |70| 
    1015 0000010e     4c6e             NOP             3
    1016                    $C$DW$164       .dwtag  DW_TAG_TI_branch
    1017                            .dwattr $C$DW$164, DW_AT_low_pc(0x04)
    1018                            .dwattr $C$DW$164, DW_AT_name("malloc")
    1019                            .dwattr $C$DW$164, DW_AT_TI_call
    1020                    
    1021 00000114 020c4ca0             SHL     .S1     A3,2,A4           ; |71| 
    1022 00000110 10000013! ||         CALLP   .S2     malloc,B3
    1023                    
    1024                            .dwpsn  file "./../packages/ti/vlib/src/VLIB_haarDetectObjectsDense/VLIB_haarDetectObjectsDens
    1025 00000118           $C$RL10:   ; CALL OCCURS {malloc} {0}        ; |71| 
    1026                            .dwpsn  file "./../packages/ti/vlib/src/VLIB_haarDetectObjectsDense/VLIB_haarDetectObjectsDens
    1027                    ;----------------------------------------------------------------------
    1028                    ;  72 | uint32_t                      *objectPos_cn  = malloc(prm[tpi].maxObjec
    1029                    ;     | ts * sizeof(uint32_t));                                                
    1030                    ;----------------------------------------------------------------------
    1031 00000118 01ad0264             LDW     .D1T1   *+A11(32),A3      ; |72| 
    1032                            .dwpsn  file "./../packages/ti/vlib/src/VLIB_haarDetectObjectsDense/VLIB_haarDetectObjectsDens
    1033 00000120     cdc5             STW     .D2T1   A4,*+SP(56)       ; |71| 
    1034 00000122     4c6e             NOP             3
    1035                    $C$DW$165       .dwtag  DW_TAG_TI_branch
    1036                            .dwattr $C$DW$165, DW_AT_low_pc(0x04)
    1037                            .dwattr $C$DW$165, DW_AT_name("malloc")
    1038                            .dwattr $C$DW$165, DW_AT_TI_call
    1039                    
    1040 00000128     45ca             SHL     .S1     A3,2,A4           ; |72| 
    1041 00000124 10000013! ||         CALLP   .S2     malloc,B3
    1042                    
    1043                            .dwpsn  file "./../packages/ti/vlib/src/VLIB_haarDetectObjectsDense/VLIB_haarDetectObjectsDens
    1044                    ;----------------------------------------------------------------------
    1045                    ;  74 | int32_t     numPixels;                                                 
TMS320C6x Assembler PC v7.4.2 Sat Sep 26 11:10:16 2015

Tools Copyright (c) 1996-2012 Texas Instruments Incorporated
package/lib/Regression/regress_d_c/./../packages/ti/vlib/src/VLIB_haarDetectObjectsDense/VLIB_haarDetectObjectsDense_d.se66 PAGE   20

    1046                    ;  75 | int32_t     fail;                                                      
    1047                    ;  76 | int32_t     i, totTreeExec, totTreeExec_cn;                            
    1048                    ;  77 | uint32_t   *intImageNAL = intImageNA;                                  
    1049                    ;----------------------------------------------------------------------
    1050 0000012a           $C$RL11:   ; CALL OCCURS {malloc} {0}        ; |72| 
    1051 0000012a           $C$DW$L$VLIB_haarDetectObjectsDense_d$5$E:
    1052                    ;** --------------------------------------------------------------------------*
    1053 0000012a           $C$DW$L$VLIB_haarDetectObjectsDense_d$6$B:
    1054                    ;          EXCLUSIVE CPU CYCLES: 25
    1055                    
    1056 0000012a     cd0d             LDW     .D2T1   *+SP(40),A0       ; |77| 
    1057 0000012c     05a6  ||         ZERO    .L1     A3                ; |80| 
    1058 0000012e     0627  ||         ZERO    .L2     B4                ; |80| 
    1059 00000130     270e  ||         MV      .S1     A14,A1            ; |77| 
    1060 00000132     0293  ||         ZERO    .S2     B5                ; |80| 
    1061                    
    1062 00000138     fd0d             LDW     .D2T2   *+SP(44),B0       ; |77| 
    1063 00000134 8204a35b  || [ A1]   MVK     .L2     0x1,B4            ; |80| 
    1064                    
    1065                            .dwpsn  file "./../packages/ti/vlib/src/VLIB_haarDetectObjectsDense/VLIB_haarDetectObjectsDens
    1066                    ;----------------------------------------------------------------------
    1067                    ;  80 | if( intImageA && intImageNA && classifier && classifier_cn && outObjLis
    1068                    ;     | t &&                                                                   
    1069                    ;  81 |     outObjList_cn && objectPos && objectPos_cn && scratch1 && scratch2
    1070                    ;     | ) {                                                                    
    1071                    ;----------------------------------------------------------------------
    1072 0000013a     ecad             LDW     .D2T1   *+SP(28),A2       ; |80| 
    1073 00000140     9dad             LDW     .D2T2   *+SP(48),B2       ; |80| 
    1074                    
    1075 00000142     edc5             STW     .D2T1   A4,*+SP(60)       ; |72| 
    1076 00000144     0626  ||         ZERO    .L1     A4                ; |80| 
    1077                    
    1078 00000146     29e6     [ A0]   MVK     .L1     0x1,A3            ; |80| 
    1079 00000148     ad8d  ||         LDW     .D2T1   *+SP(52),A0       ; |80| 
    1080                    
    1081 0000014a     aae7     [ B0]   MVK     .L2     0x1,B5            ; |80| 
    1082 0000014c     dd8d  ||         LDW     .D2T2   *+SP(56),B0       ; |80| 
    1083                    
    1084 00000150 02948f7b             AND     .L2     B4,B5,B5          ; |80| 
    1085 0000014e     0213  ||         ZERO    .S2     B4                ; |80| 
    1086 00000154 a204a359  || [ A2]   MVK     .L1     0x1,A4            ; |80| 
    1087 00000158     edad  ||         LDW     .D2T1   *+SP(60),A2       ; |80| 
    1088                    
    1089 00000164 6204a35b     [ B2]   MVK     .L2     0x1,B4            ; |80| 
    1090 00000160 028cb7e3  ||         AND     .S2X    A3,B5,B5          ; |80| 
    1091 0000015a     05a6  ||         ZERO    .L1     A3                ; |80| 
    1092 00000168     8d1d  ||         LDW     .D2T1   *+SP(32),A1       ; |80| 
    1093                    
    1094 0000016c 02948f7b             AND     .L2     B4,B5,B5          ; |80| 
    1095 0000016a     0213  ||         ZERO    .S2     B4                ; |80| 
    1096 00000170 073e22f4  ||         STW     .D2T1   A14,*+SP(68)      ; |77| 
    1097                    
    1098 00000174     2a67     [ A0]   MVK     .L2     0x1,B4            ; |80| 
    1099 00000178 0290b7e2  ||         AND     .S2X    A4,B5,B5          ; |80| 
    1100 00000176     0626  ||         ZERO    .L1     A4                ; |80| 
TMS320C6x Assembler PC v7.4.2 Sat Sep 26 11:10:16 2015

Tools Copyright (c) 1996-2012 Texas Instruments Incorporated
package/lib/Regression/regress_d_c/./../packages/ti/vlib/src/VLIB_haarDetectObjectsDense/VLIB_haarDetectObjectsDense_d.se66 PAGE   21

    1101                    
    1102 00000180 02948f7b             AND     .L2     B4,B5,B5          ; |80| 
    1103 00000184     0213  ||         ZERO    .S2     B4                ; |80| 
    1104 00000186     a9e6  || [ B0]   MVK     .L1     0x1,A3            ; |80| 
    1105                    
    1106 00000188 a204a35b     [ A2]   MVK     .L2     0x1,B4            ; |80| 
    1107 0000018c 013d22e4  ||         LDW     .D2T1   *+SP(36),A2       ; |80| 
    1108                    
    1109 00000190 8204a359     [ A1]   MVK     .L1     0x1,A4            ; |80| 
    1110 00000194 028cbf7a  ||         AND     .L2X    A3,B5,B5          ; |80| 
    1111                    
    1112 00000198 02148f7a             AND     .L2     B4,B5,B4          ; |80| 
    1113 000001a0 0180a358             ZERO    .L1     A3                ; |80| 
    1114 000001a4 02109f78             AND     .L1X    A4,B4,A4          ; |80| 
    1115 000001a8 a184a358     [ A2]   MVK     .L1     0x1,A3            ; |80| 
    1116                    
    1117 000001ac     6608             AND     .L1     A3,A4,A0          ; |80| 
    1118 000001ae     eccd  ||         LDW     .D2T1   *+SP(28),A4
    1119                    
    1120 000001b0 d000a711     [!A0]   B       .S1     $C$L15            ; |80| 
    1121 000001b4 cfbde2e5  || [ A0]   LDW     .D2T1   *+SP(60),A31      ; |83| 
    1122 000001b8 c1801fd9  || [ A0]   MV      .L1X    B0,A3
    1123 000001c0 d200002a! || [!A0]   MVKL    .S2     $C$SL6+0,B4
    1124                    
    1125                            .dwpsn  file "./../packages/ti/vlib/src/VLIB_haarDetectObjectsDense/VLIB_haarDetectObjectsDens
    1126                    ;----------------------------------------------------------------------
    1127                    ;  83 | outObjList->objectPos     = objectPos;                                 
    1128                    ;  84 | outObjList_cn->objectPos  = objectPos_cn;                              
    1129                    ;  86 | VLIB_fillBuffer(prm[tpi].testPattern, 0xFF, intImageA, prm[tpi].integra
    1130                    ;     | lImg,                                                                  
    1131                    ;  87 |                 integralImgWidth, integralImgHeight, integralImgPitch *
    1132                    ;     |  sizeof(uint32_t),                                                     
    1133                    ;  88 |                 sizeof(uint32_t),                                      
    1134                    ;  89 |                 testPatternString);                                    
    1135                    ;  91 | intImageNA += 1;                                                       
    1136                    ;  93 | VLIB_fillBuffer(prm[tpi].testPattern, 0xFF, intImageNA, prm[tpi].integr
    1137                    ;     | alImg,                                                                 
    1138                    ;  94 |                 integralImgWidth, integralImgHeight, integralImgPitch *
    1139                    ;     |  sizeof(uint32_t),                                                     
    1140                    ;  95 |                 sizeof(uint32_t), testPatternString);                  
    1141                    ;  96 | memcpy(classifier, prm[tpi].classifier, sizeof(VLIB_HAARDETOBJ_sClassif
    1142                    ;     | ier));                                                                 
    1143                    ;  98 | memcpy(classifier_cn, prm[tpi].classifier, sizeof(VLIB_HAARDETOBJ_sClas
    1144                    ;     | sifier));                                                              
    1145                    ; 101 | numPixels = (prm[tpi].integralImgWidth - classifier->patchSize[1]) * (p
    1146                    ;     | rm[tpi].integralImgHeight - classifier->patchSize[0]);                 
    1147                    ; 104 | if( prm[tpi].dualIntImgFlow == 0x0 ) {                                 
    1148                    ; 105 |     intImageNA = NULL;                                                 
    1149                    ; 110 | VLIB_profile_start(vlib_KERNEL_OPT);                                   
    1150                    ; 111 | totTreeExec =                                                          
    1151                    ; 112 |     VLIB_haarDetectObjectsDense(intImageA,                             
    1152                    ; 113 |                                 intImageNA,                            
    1153                    ; 114 |                                 (prm[tpi].integralImgWidth - classifier
    1154                    ;     | ->patchSize[1]),                                                       
    1155                    ; 115 |                                 prm[tpi].integralImgPitch,             
TMS320C6x Assembler PC v7.4.2 Sat Sep 26 11:10:16 2015

Tools Copyright (c) 1996-2012 Texas Instruments Incorporated
package/lib/Regression/regress_d_c/./../packages/ti/vlib/src/VLIB_haarDetectObjectsDense/VLIB_haarDetectObjectsDense_d.se66 PAGE   22

    1156                    ; 116 |                                 (prm[tpi].integralImgHeight - classifie
    1157                    ;     | r->patchSize[0]),                                                      
    1158                    ; 117 |                                 prm[tpi].startStage,                   
    1159                    ; 118 |                                 prm[tpi].endStage,                     
    1160                    ; 119 |                                 prm[tpi].maxObjects,                   
    1161                    ; 120 |                                 1,                                     
    1162                    ; 121 |                                 classifier,                            
    1163                    ; 122 |                                 outObjList,                            
    1164                    ; 123 |                                 scratch1,                              
    1165                    ; 124 |                                 scratch2);                             
    1166                    ; 125 | VLIB_profile_stop();                                                   
    1167                    ; 128 | VLIB_profile_start(vlib_KERNEL_CN);                                    
    1168                    ; 129 | totTreeExec_cn =                                                       
    1169                    ; 130 |     VLIB_haarDetectObjectsDense_cn(intImageA,                          
    1170                    ; 131 |                                    NULL,                               
    1171                    ; 132 |                                    (prm[tpi].integralImgWidth - classif
    1172                    ;     | ier->patchSize[1]),                                                    
    1173                    ; 133 |                                    prm[tpi].integralImgPitch,          
    1174                    ; 134 |                                    prm[tpi].integralImgHeight - classif
    1175                    ;     | ier->patchSize[0],                                                     
    1176                    ; 135 |                                    prm[tpi].startStage,                
    1177                    ; 136 |                                    prm[tpi].endStage,                  
    1178                    ; 137 |                                    prm[tpi].maxObjects,                
    1179                    ; 138 |                                    1,                                  
    1180                    ; 139 |                                    classifier_cn,                      
    1181                    ; 140 |                                    outObjList_cn,                      
    1182                    ; 141 |                                    NULL,                               
    1183                    ; 142 |                                    NULL);                              
    1184                    ; 143 | VLIB_profile_stop();                                                   
    1185                    ; 146 | if( totTreeExec != totTreeExec_cn ) {                                  
    1186                    ; 147 |     printf(" Mismatch With Number of Trees Executed totTreeExec = %d, t
    1187                    ;     | otTreeExec_cn = %d \n", totTreeExec, totTreeExec_cn);                  
    1188                    ; 150 | for( i = 0; i < outObjList_cn->numObjects; i++ ) {                     
    1189                    ; 151 |     if( outObjList_cn->objectPos[i] != outObjList->objectPos[i] ) {    
    1190                    ; 152 |         status_nat_vs_int = vlib_KERNEL_FAIL;                          
    1191                    ; 153 |         if( LevelOfFeedback > 0 ) {                                    
    1192                    ; 154 |             printf(" Mismatch With Reference in Object Number = %u \n",
    1193                    ;     |  i);                                                                   
    1194                    ; 156 |         break;                                                         
    1195                    ; 161 | if( prm[tpi].objectPos != NULL ) {                                     
    1196                    ; 162 |     for( i = 0; i < outObjList_cn->numObjects; i++ ) {                 
    1197                    ; 163 |         if( outObjList_cn->objectPos[i] != prm[tpi].objectPos[i] ) {   
    1198                    ; 164 |             status_nat_vs_int = vlib_KERNEL_FAIL;                      
    1199                    ; 165 |             if( LevelOfFeedback > 0 ) {                                
    1200                    ; 166 |                 printf(" Mismatch With Static Reference in Object Numbe
    1201                    ;     | r = %u \n", i);                                                        
    1202                    ; 168 |             break;                                                     
    1203                    ; 174 | fail = ((status_nat_vs_int == vlib_KERNEL_FAIL) || (status_nat_vs_ref =
    1204                    ;     | = vlib_KERNEL_FAIL)) ? 1 : 0;                                          
    1205                    ; 176 | est_test=1;                                                            
    1206                    ; 179 | sprintf(desc, "%s generated input | Opt results compared to NatC result
    1207                    ;     | s | numStages=%d%s",\                                                  
    1208                    ; 180 |         testPatternString, (prm[tpi].endStage - prm[tpi].startStage + 1
    1209                    ;     | ), prm[tpi].desc);                                                     
    1210                    ; 182 | VLIB_formula_add_test(totTreeExec_cn, NULL, NULL, fail, desc, (prm[tpi]
TMS320C6x Assembler PC v7.4.2 Sat Sep 26 11:10:16 2015

Tools Copyright (c) 1996-2012 Texas Instruments Incorporated
package/lib/Regression/regress_d_c/./../packages/ti/vlib/src/VLIB_haarDetectObjectsDense/VLIB_haarDetectObjectsDense_d.se66 PAGE   23

    1211                    ;     | .dualIntImgFlow + 1));                                                 
    1212                    ; 184 | } else {                                                               
    1213                    ;----------------------------------------------------------------------
    1214 000001c4 cf3da2e4     [ A0]   LDW     .D2T1   *+SP(52),A30      ; |83| 
    1215                            .dwpsn  file "./../packages/ti/vlib/src/VLIB_haarDetectObjectsDense/VLIB_haarDetectObjectsDens
    1216                    ;----------------------------------------------------------------------
    1217                    ; 186 | sprintf(desc, "numStages=%d, numPixels=%d", (prm[tpi].endStage - prm[tp
    1218                    ;     | i].startStage), numPixels);                                            
    1219                    ; 187 | VLIB_skip_test(desc);                                                  
    1220                    ;----------------------------------------------------------------------
    1221 000001c8 d1be02e4     [!A0]   LDW     .D2T1   *+SP(64),A3       ; |186| 
    1222 000001cc d22ca264     [!A0]   LDW     .D1T1   *+A11(20),A4      ; |186| 
    1223 000001d0 d2acc264     [!A0]   LDW     .D1T1   *+A11(24),A5      ; |186| 
    1224                    $C$DW$166       .dwtag  DW_TAG_TI_branch
    1225                            .dwattr $C$DW$166, DW_AT_low_pc(0x00)
    1226                            .dwattr $C$DW$166, DW_AT_name("sprintf")
    1227                            .dwattr $C$DW$166, DW_AT_TI_call
    1228                    
    1229 000001d4 d0000011!    [!A0]   CALL    .S1     sprintf           ; |186| 
    1230 000001d8 c1902275  || [ A0]   STW     .D1T1   A3,*+A4(4)        ; |83| 
    1231                    
    1232                            .dwpsn  file "./../packages/ti/vlib/src/VLIB_haarDetectObjectsDense/VLIB_haarDetectObjectsDens
    1233                               ; BRANCHCC OCCURS {$C$L15}        ; |80| 
    1234 000001e0           $C$DW$L$VLIB_haarDetectObjectsDense_d$6$E:
    1235                    ;** --------------------------------------------------------------------------*
    1236 000001e0           $C$DW$L$VLIB_haarDetectObjectsDense_d$7$B:
    1237                    ;          EXCLUSIVE CPU CYCLES: 7
    1238                    ;** 83  -----------------------    (*outObjList).objectPos = objectPos;
    1239                    ;** 84  -----------------------    (*outObjList_cn).objectPos = objectPos_cn;
    1240                    ;** 86  -----------------------    C$12 = (unsigned short)(integralImgPitch*4);
    1241                    ;** 86  -----------------------    VLIB_fillBuffer((*U$13).testPattern, (unsigned char)K$87, (void *)i
    1242                    ;** 93  -----------------------    VLIB_fillBuffer((*U$13).testPattern, (unsigned char)K$87, (void *)(
    1243                    ;** 96  -----------------------    *classifier = *(*U$13).classifier;
    1244                    ;** 98  -----------------------    *classifier_cn = *(*U$13).classifier;
    1245                    ;** 101 -----------------------    ILP$s32x2$001 = _memd8((void *)((struct $fake2 *)(int (*)[2])classi
    1246                    ;** 101 -----------------------    numPixels = ((*U$13).integralImgWidth-(int)_hill((unsigned long lon
    1247                    ;** 104 -----------------------    if ( (*U$13).dualIntImgFlow ) goto g6;
    1248                    ;** 105 -----------------------    intImageNA = NULL;
    1249                    ;**     -----------------------g6:
    1250                    ;** 137 -----------------------    act_kernel = 0;  // [16]
    1251                    ;** 140 -----------------------    VLIB_cache_inval();  // [16]
    1252                    ;** 143 -----------------------    initStack(getSP());  // [16]
    1253                    ;** 146 -----------------------    beg_count = _itoll(TSCH, TSCL);  // [16]
    1254                    ;** 111 -----------------------    totTreeExec = VLIB_haarDetectObjectsDense(intImageA, intImageNA, (u
    1255                    ;** 153 -----------------------    v$2 = _itoll(TSCH, TSCL);  // [17]
    1256                    ;** 153 -----------------------    end_count = v$2;  // [17]
    1257                    ;**     -----------------------    K$135 = &cycles[0];
    1258                    ;** 156 -----------------------    C$11 = act_kernel;  // [17]
    1259                    ;** 156 -----------------------    *((C$11<<3)+K$135) = *((C$11<<3)+K$135)+(v$2-(beg_count+overhead));
    1260                    ;** 159 -----------------------    setStackDepth();  // [17]
    1261                    ;** 137 -----------------------    act_kernel = 1;  // [16]
    1262                    ;** 140 -----------------------    VLIB_cache_inval();  // [16]
    1263                    ;** 143 -----------------------    initStack(getSP());  // [16]
    1264                    
    1265 000001e0 0ff82275             STW     .D1T1   A31,*+A30(4)      ; |84| 
TMS320C6x Assembler PC v7.4.2 Sat Sep 26 11:10:16 2015

Tools Copyright (c) 1996-2012 Texas Instruments Incorporated
package/lib/Regression/regress_d_c/./../packages/ti/vlib/src/VLIB_haarDetectObjectsDense/VLIB_haarDetectObjectsDense_d.se66 PAGE   24

    1266 000001e4     fe73  ||         MVK     .S2     0xff,B4
    1267                    
    1268                    $C$DW$167       .dwtag  DW_TAG_TI_branch
    1269                            .dwattr $C$DW$167, DW_AT_low_pc(0x00)
    1270                            .dwattr $C$DW$167, DW_AT_name("VLIB_fillBuffer")
    1271                            .dwattr $C$DW$167, DW_AT_TI_call
    1272                    
    1273 000001ec 00000010!            CALL    .S1     VLIB_fillBuffer   ; |86| 
    1274 000001e8 032c2267  ||         LDW     .D1T2   *+A11(4),B6       ; |86| 
    1275 000001e6     ed6d  ||         LDW     .D2T1   *+SP(44),A6       ; |86| 
    1276                    
    1277                            .dwpsn  file "./../packages/ti/vlib/src/VLIB_haarDetectObjectsDense/VLIB_haarDetectObjectsDens
    1278 000001f0 022c0214             LDBU    .D1T1   *A11,A4           ; |86| 
    1279 000001f4 0213180a             EXTU    .S2     B4,24,24,B4       ; |86| 
    1280 000001f8 02b61008             EXTU    .S1     A13,16,16,A5      ; |86| 
    1281                    
    1282 00000204     7606             MV      .L1X    B12,A3            ; |86| 
    1283 00000200 052a5009  ||         EXTU    .S1     A10,18,16,A10     ; |86| 
    1284                    
    1285 00000206     16c7             MV      .L2X    A5,B8             ; |86| 
    1286 00000208 01880163  ||         ADDKPC  .S2     $C$RL12,B3,0      ; |86| 
    1287 0000020c 040e1009  ||         EXTU    .S1     A3,16,16,A8       ; |86| 
    1288 00000210 05008043  ||         MVK     .D2     0x4,B10           ; |86| 
    1289 00000214 06341fd9  ||         MV      .L1X    B13,A12           ; |86| 
    1290                    
    1291 00000220           $C$RL12:   ; CALL OCCURS {VLIB_fillBuffer} {0}  ; |86| 
    1292 00000220           $C$DW$L$VLIB_haarDetectObjectsDense_d$7$E:
    1293                    ;** --------------------------------------------------------------------------*
    1294 00000220           $C$DW$L$VLIB_haarDetectObjectsDense_d$8$B:
    1295                    ;          EXCLUSIVE CPU CYCLES: 110
    1296                    
    1297 00000220 02b61009             EXTU    .S1     A13,16,16,A5      ; |93| 
    1298 00000224 02007faa  ||         MVK     .S2     0xff,B4
    1299                    
    1300 00000228 0213180b             EXTU    .S2     B4,24,24,B4       ; |93| 
    1301 0000022c 022c0215  ||         LDBU    .D1T1   *A11,A4           ; |93| 
    1302 00000230 03388059  ||         ADD     .L1     4,A14,A6          ; |93| 
    1303 00000234 01b016a1  ||         MV      .S1X    B12,A3            ; |93| 
    1304                    
    1305                    $C$DW$168       .dwtag  DW_TAG_TI_branch
    1306                            .dwattr $C$DW$168, DW_AT_low_pc(0x00)
    1307                            .dwattr $C$DW$168, DW_AT_name("VLIB_fillBuffer")
    1308                            .dwattr $C$DW$168, DW_AT_TI_call
    1309                    
    1310 00000240 10000013!            CALLP   .S2     VLIB_fillBuffer,B3
    1311 0000023c 04141fdb  ||         MV      .L2X    A5,B8             ; |93| 
    1312 00000244 040e1009  ||         EXTU    .S1     A3,16,16,A8       ; |93| 
    1313 00000248 07388059  ||         ADD     .L1     4,A14,A14         ; |93| 
    1314 0000024c 032c2266  ||         LDW     .D1T2   *+A11(4),B6       ; |93| 
    1315                    
    1316                            .dwpsn  file "./../packages/ti/vlib/src/VLIB_haarDetectObjectsDense/VLIB_haarDetectObjectsDens
    1317                    $C$RL13:   ; CALL OCCURS {VLIB_fillBuffer} {0}  ; |93| 
    1318                    $C$DW$169       .dwtag  DW_TAG_TI_branch
    1319                            .dwattr $C$DW$169, DW_AT_low_pc(0x00)
    1320                            .dwattr $C$DW$169, DW_AT_name("__c6xabi_strasgi_64plus")
TMS320C6x Assembler PC v7.4.2 Sat Sep 26 11:10:16 2015

Tools Copyright (c) 1996-2012 Texas Instruments Incorporated
package/lib/Regression/regress_d_c/./../packages/ti/vlib/src/VLIB_haarDetectObjectsDense/VLIB_haarDetectObjectsDense_d.se66 PAGE   25

    1321                            .dwattr $C$DW$169, DW_AT_TI_call
    1322                    
    1323 00000250 10000013!            CALLP   .S2     __c6xabi_strasgi_64plus,B3
    1324 00000254     cd4d  ||         LDW     .D2T1   *+SP(40),A4       ; |96| 
    1325 00000258 022d2266  ||         LDW     .D1T2   *+A11(36),B4      ; |96| 
    1326 00000256     9752  ||         MVK     .S1     0xd4,A6           ; |96| 
    1327                    
    1328                            .dwpsn  file "./../packages/ti/vlib/src/VLIB_haarDetectObjectsDense/VLIB_haarDetectObjectsDens
    1329                    $C$RL14:   ; CALL OCCURS {__c6xabi_strasgi_64plus} {0}  ; |96| 
    1330                    $C$DW$170       .dwtag  DW_TAG_TI_branch
    1331                            .dwattr $C$DW$170, DW_AT_low_pc(0x00)
    1332                            .dwattr $C$DW$170, DW_AT_name("__c6xabi_strasgi_64plus")
    1333                            .dwattr $C$DW$170, DW_AT_TI_call
    1334                    
    1335 00000260 10000013!            CALLP   .S2     __c6xabi_strasgi_64plus,B3
    1336 00000264 022d2267  ||         LDW     .D1T2   *+A11(36),B4      ; |98| 
    1337 00000268     8dcd  ||         LDW     .D2T1   *+SP(48),A4
    1338                    
    1339                            .dwpsn  file "./../packages/ti/vlib/src/VLIB_haarDetectObjectsDense/VLIB_haarDetectObjectsDens
    1340 0000026a           $C$RL15:   ; CALL OCCURS {__c6xabi_strasgi_64plus} {0}  ; |98| 
    1341                            .dwpsn  file ".\..\packages\ti\vlib\src\VLIB_haarDetectObjectsDense\..\common\VLIB_profile.h",
    1342 0000026a     cd3d             LDW     .D2T1   *+SP(40),A3       ; |137| 
    1343 0000026c 00002000             NOP             2
    1344                            .dwpsn  file "./../packages/ti/vlib/src/VLIB_haarDetectObjectsDense/VLIB_haarDetectObjectsDens
    1345 00000270 052c4264             LDW     .D1T1   *+A11(8),A10      ; |101| 
    1346                            .dwpsn  file "./../packages/ti/vlib/src/VLIB_haarDetectObjectsDense/VLIB_haarDetectObjectsDens
    1347 00000274 052ce266             LDW     .D1T2   *+A11(28),B10     ; |104| 
    1348                    
    1349 00000278 01800029!            MVKL    .S1     act_kernel,A3
    1350 00000280 068c2324  ||         LDNDW   .D1T1   *+A3(8),A13:A12   ; |101| 
    1351                    
    1352 00000284 01800069!            MVKH    .S1     act_kernel,A3
    1353 00000288 062c6267  ||         LDW     .D1T2   *+A11(12),B12     ; |101| 
    1354 0000028c 0200a35a  ||         ZERO    .L2     B4                ; |137| 
    1355                    
    1356                    $C$DW$171       .dwtag  DW_TAG_TI_branch
    1357                            .dwattr $C$DW$171, DW_AT_low_pc(0x00)
    1358                            .dwattr $C$DW$171, DW_AT_name("VLIB_cache_inval")
    1359                            .dwattr $C$DW$171, DW_AT_TI_call
    1360                    
    1361 00000290 10000013!            CALLP   .S2     VLIB_cache_inval,B3
    1362 00000294 020c0276  ||         STW     .D1T2   B4,*A3            ; |137| 
    1363                    
    1364                            .dwpsn  file ".\..\packages\ti\vlib\src\VLIB_haarDetectObjectsDense\..\common\VLIB_profile.h",
    1365                    $C$RL16:   ; CALL OCCURS {VLIB_cache_inval} {0}  ; |140| 
    1366                    $C$DW$172       .dwtag  DW_TAG_TI_branch
    1367                            .dwattr $C$DW$172, DW_AT_low_pc(0x00)
    1368                            .dwattr $C$DW$172, DW_AT_name("getSP")
    1369                            .dwattr $C$DW$172, DW_AT_TI_call
    1370 00000298 10000012!            CALLP   .S2     getSP,B3
    1371                            .dwpsn  file ".\..\packages\ti\vlib\src\VLIB_haarDetectObjectsDense\..\common\VLIB_profile.h",
    1372                    $C$RL17:   ; CALL OCCURS {getSP} {0}         ; |143| 
    1373                    $C$DW$173       .dwtag  DW_TAG_TI_branch
    1374                            .dwattr $C$DW$173, DW_AT_low_pc(0x00)
    1375                            .dwattr $C$DW$173, DW_AT_name("initStack")
TMS320C6x Assembler PC v7.4.2 Sat Sep 26 11:10:16 2015

Tools Copyright (c) 1996-2012 Texas Instruments Incorporated
package/lib/Regression/regress_d_c/./../packages/ti/vlib/src/VLIB_haarDetectObjectsDense/VLIB_haarDetectObjectsDense_d.se66 PAGE   26

    1376                            .dwattr $C$DW$173, DW_AT_TI_call
    1377 0000029c 10000012!            CALLP   .S2     initStack,B3
    1378 000002a0           $C$RL18:   ; CALL OCCURS {initStack} {0}     ; |143| 
    1379                    
    1380 000002a0 01b540f9             SUB     .L1     A10,A13,A3        ; |101| 
    1381 000002a4 02319d70  ||         SUB     .S1X    B12,A12,A4        ; |101| 
    1382                    
    1383                            .dwpsn  file "./../packages/ti/vlib/src/VLIB_haarDetectObjectsDense/VLIB_haarDetectObjectsDens
    1384 000002a8 018c8800             MPY32   .M1     A4,A3,A3          ; |101| 
    1385 000002ac     2c6e             NOP             2
    1386 000002ae     1506             MV      .L1X    B10,A0
    1387                    
    1388 000002b0 022803e3             MVC     .S2     TSCL,B4           ; |146| 
    1389 000002b8 01be02f4  ||         STW     .D2T1   A3,*+SP(64)       ; |101| 
    1390 000002b4 d700a359  || [!A0]   ZERO    .L1     A14               ; |105| 
    1391                    
    1392                            .dwpsn  file ".\..\packages\ti\vlib\src\VLIB_haarDetectObjectsDense\..\common\VLIB_profile.h",
    1393 000002c0 02ac03e2             MVC     .S2     TSCH,B5           ; |146| 
    1394                            .dwpsn  file "./../packages/ti/vlib/src/VLIB_haarDetectObjectsDense/VLIB_haarDetectObjectsDens
    1395 000002c4 083d02e4             LDW     .D2T1   *+SP(32),A16      ; |111| 
    1396 000002c8 01bd42e4             LDW     .D2T1   *+SP(40),A3       ; |111| 
    1397 000002cc 04ac4264             LDW     .D1T1   *+A11(8),A9       ; |111| 
    1398 000002d0 0fbd22e4             LDW     .D2T1   *+SP(36),A31      ; |111| 
    1399 000002d4 032c6264             LDW     .D1T1   *+A11(12),A6      ; |111| 
    1400 000002d8 083c42f4             STW     .D2T1   A16,*+SP(8)       ; |111| 
    1401 000002dc 020c4264             LDW     .D1T1   *+A3(8),A4        ; |111| 
    1402                            .dwpsn  file ".\..\packages\ti\vlib\src\VLIB_haarDetectObjectsDense\..\common\VLIB_profile.h",
    1403 000002e0 083ce2e4             LDW     .D2T1   *+SP(28),A16      ; |146| 
    1404                            .dwpsn  file "./../packages/ti/vlib/src/VLIB_haarDetectObjectsDense/VLIB_haarDetectObjectsDens
    1405 000002e4 040c6264             LDW     .D1T1   *+A3(12),A8       ; |111| 
    1406 000002e8 052cc264             LDW     .D1T1   *+A11(24),A10     ; |111| 
    1407 000002ec 052d0266             LDW     .D1T2   *+A11(32),B10     ; |111| 
    1408                    
    1409 000002f0 0fbc62f5             STW     .D2T1   A31,*+SP(12)      ; |111| 
    1410 000002f4 042ca267  ||         LDW     .D1T2   *+A11(20),B8      ; |111| 
    1411 000002f8 08800028! ||         MVKL    .S1     beg_count,A17
    1412                    
    1413 000002fc 083c22f5             STW     .D2T1   A16,*+SP(4)       ; |111| 
    1414 0000030c     95c7  ||         MV      .L2X    A3,B12            ; |146| 
    1415 00000304 0604a359  ||         MVK     .L1     0x1,A12           ; |111| 
    1416 00000308 032c8267  ||         LDW     .D1T2   *+A11(16),B6      ; |111| 
    1417 00000300 08800069! ||         MVKH    .S1     beg_count,A17
    1418                    
    1419                    $C$DW$174       .dwtag  DW_TAG_TI_branch
    1420                            .dwattr $C$DW$174, DW_AT_low_pc(0x00)
    1421                            .dwattr $C$DW$174, DW_AT_name("VLIB_haarDetectObjectsDense")
    1422                            .dwattr $C$DW$174, DW_AT_TI_call
    1423                    
    1424 00000310 10000013!            CALLP   .S2     VLIB_haarDetectObjectsDense,B3
    1425 0000030e     ed4d  ||         LDW     .D2T1   *+SP(44),A4       ; |146| 
    1426 00000314 0410c0f9  ||         SUB     .L1     A6,A4,A8          ; |111| 
    1427 00000318 032125e1  ||         SUB     .S1     A9,A8,A6          ; |111| 
    1428 00000320 02381fdb  ||         MV      .L2X    A14,B4            ; |111| 
    1429 00000324 02440346  ||         STDW    .D1T2   B5:B4,*A17        ; |146| 
    1430                    
TMS320C6x Assembler PC v7.4.2 Sat Sep 26 11:10:16 2015

Tools Copyright (c) 1996-2012 Texas Instruments Incorporated
package/lib/Regression/regress_d_c/./../packages/ti/vlib/src/VLIB_haarDetectObjectsDense/VLIB_haarDetectObjectsDense_d.se66 PAGE   27

    1431 00000328           $C$RL19:   ; CALL OCCURS {VLIB_haarDetectObjectsDense} {0}  ; |111| 
    1432                    
    1433 00000328 042803e3             MVC     .S2     TSCL,B8           ; |153| 
    1434 0000032c 07100fd8  ||         MV      .L1     A4,A14            ; |111| 
    1435                    
    1436                            .dwpsn  file ".\..\packages\ti\vlib\src\VLIB_haarDetectObjectsDense\..\common\VLIB_profile.h",
    1437 00000330 04ac03e2             MVC     .S2     TSCH,B9           ; |153| 
    1438 00000334 01800028!            MVKL    .S1     act_kernel,A3
    1439                    
    1440 00000338 01800069!            MVKH    .S1     act_kernel,A3
    1441 0000033c 0200002a! ||         MVKL    .S2     overhead,B4
    1442                    
    1443 00000340 018c0265             LDW     .D1T1   *A3,A3            ; |156| 
    1444 00000344 0200006b! ||         MVKH    .S2     overhead,B4
    1445 00000348 05000028! ||         MVKL    .S1     beg_count,A10
    1446                    
    1447 0000034c 0f80002b!            MVKL    .S2     cycles,B31
    1448 00000350 05000068! ||         MVKH    .S1     beg_count,A10
    1449                    
    1450 00000354 02280365             LDDW    .D1T1   *A10,A5:A4        ; |156| 
    1451 00000358 031003e7  ||         LDDW    .D2T2   *B4,B7:B6         ; |156| 
    1452 0000035c 0f80006a! ||         MVKH    .S2     cycles,B31
    1453                    
    1454 00000360 00000000             NOP             1
    1455 00000364 06fc1fd8             MV      .L1X    B31,A13
    1456                            .dwpsn  file ".\..\packages\ti\vlib\src\VLIB_haarDetectObjectsDense\..\common\VLIB_profile.h",
    1457 00000368 03346b64             LDDW    .D1T1   *+A13[A3],A7:A6   ; |156| 
    1458 0000036c 00000000             NOP             1
    1459 00000370 0210d57a             ADDU    .L2X    B6,A4,B5:B4       ; |156| 
    1460 00000374 029ca07a             ADD     .L2     B5,B7,B5          ; |156| 
    1461                    
    1462 00000378 031105fb             SUBU    .L2     B8,B4,B7:B6       ; |156| 
    1463 0000037c 0814b1e2  ||         ADD     .S2X    B5,A5,B16         ; |156| 
    1464                    
    1465 00000380 0218d57a             ADDU    .L2X    A6,B6,B5:B4       ; |156| 
    1466                    
    1467 00000384 034120fb             SUB     .L2     B9,B16,B6         ; |156| 
    1468 00000388     ebe3  ||         EXT     .S2     B7,24,24,B7       ; |156| 
    1469                    
    1470 0000038c 0f1cc07a             ADD     .L2     B6,B7,B30         ; |156| 
    1471 0000038a     9246  ||         MV      .L1X    B4,A4             ; |156| 
    1472                    
    1473 00000394 0294f078             ADD     .L1X    B5,A7,A5          ; |156| 
    1474 00000390 0200002b! ||         MVKL    .S2     end_count,B4
    1475                    
    1476 00000398 02f8b079             ADD     .L1X    A5,B30,A5         ; |156| 
    1477 000003a0 0200006a! ||         MVKH    .S2     end_count,B4
    1478                    
    1479                    $C$DW$175       .dwtag  DW_TAG_TI_branch
    1480                            .dwattr $C$DW$175, DW_AT_low_pc(0x00)
    1481                            .dwattr $C$DW$175, DW_AT_name("setStackDepth")
    1482                            .dwattr $C$DW$175, DW_AT_TI_call
    1483                    
    1484 000003a4 10000013!            CALLP   .S2     setStackDepth,B3
    1485 000003a8 02346b45  ||         STDW    .D1T1   A5:A4,*+A13[A3]   ; |156| 
TMS320C6x Assembler PC v7.4.2 Sat Sep 26 11:10:16 2015

Tools Copyright (c) 1996-2012 Texas Instruments Incorporated
package/lib/Regression/regress_d_c/./../packages/ti/vlib/src/VLIB_haarDetectObjectsDense/VLIB_haarDetectObjectsDense_d.se66 PAGE   28

    1486 000003ac 041003c6  ||         STDW    .D2T2   B9:B8,*B4         ; |153| 
    1487                    
    1488                            .dwpsn  file ".\..\packages\ti\vlib\src\VLIB_haarDetectObjectsDense\..\common\VLIB_profile.h",
    1489 000003b0           $C$RL20:   ; CALL OCCURS {setStackDepth} {0}  ; |159| 
    1490 000003b0 01800028!            MVKL    .S1     act_kernel,A3
    1491                    
    1492 000003b4 01800069!            MVKH    .S1     act_kernel,A3
    1493 000003b8 0204a35a  ||         MVK     .L2     1,B4              ; |137| 
    1494                    
    1495                    $C$DW$176       .dwtag  DW_TAG_TI_branch
    1496                            .dwattr $C$DW$176, DW_AT_low_pc(0x00)
    1497                            .dwattr $C$DW$176, DW_AT_name("VLIB_cache_inval")
    1498                            .dwattr $C$DW$176, DW_AT_TI_call
    1499                    
    1500 000003bc 10000013!            CALLP   .S2     VLIB_cache_inval,B3
    1501 000003c0 020c0276  ||         STW     .D1T2   B4,*A3            ; |137| 
    1502                    
    1503                            .dwpsn  file ".\..\packages\ti\vlib\src\VLIB_haarDetectObjectsDense\..\common\VLIB_profile.h",
    1504                    $C$RL21:   ; CALL OCCURS {VLIB_cache_inval} {0}  ; |140| 
    1505                    $C$DW$177       .dwtag  DW_TAG_TI_branch
    1506                            .dwattr $C$DW$177, DW_AT_low_pc(0x00)
    1507                            .dwattr $C$DW$177, DW_AT_name("getSP")
    1508                            .dwattr $C$DW$177, DW_AT_TI_call
    1509 000003c4 10000012!            CALLP   .S2     getSP,B3
    1510                            .dwpsn  file ".\..\packages\ti\vlib\src\VLIB_haarDetectObjectsDense\..\common\VLIB_profile.h",
    1511                    $C$RL22:   ; CALL OCCURS {getSP} {0}         ; |143| 
    1512                    $C$DW$L$VLIB_haarDetectObjectsDense_d$8$E:
    1513                    ;** --------------------------------------------------------------------------*
    1514                    $C$DW$L$VLIB_haarDetectObjectsDense_d$9$B:
    1515                    ;          EXCLUSIVE CPU CYCLES: 6
    1516                    ;** 146 -----------------------    beg_count = _itoll(TSCH, TSCL);  // [16]
    1517                    ;** 129 -----------------------    totTreeExec_cn = VLIB_haarDetectObjectsDense_cn(intImageA, NULL, (u
    1518                    ;** 153 -----------------------    v$2 = _itoll(TSCH, TSCL);  // [17]
    1519                    ;** 153 -----------------------    end_count = v$2;  // [17]
    1520                    ;** 156 -----------------------    C$10 = act_kernel;  // [17]
    1521                    ;** 156 -----------------------    *((C$10<<3)+K$135) = *((C$10<<3)+K$135)+(v$2-(beg_count+overhead));
    1522                    ;** 159 -----------------------    setStackDepth();  // [17]
    1523                    ;** 146 -----------------------    if ( totTreeExec == totTreeExec_cn ) goto g8;
    1524                    $C$DW$178       .dwtag  DW_TAG_TI_branch
    1525                            .dwattr $C$DW$178, DW_AT_low_pc(0x00)
    1526                            .dwattr $C$DW$178, DW_AT_name("initStack")
    1527                            .dwattr $C$DW$178, DW_AT_TI_call
    1528 000003c8 10000012!            CALLP   .S2     initStack,B3
    1529 000003cc           $C$RL23:   ; CALL OCCURS {initStack} {0}     ; |143| 
    1530 000003cc           $C$DW$L$VLIB_haarDetectObjectsDense_d$9$E:
    1531                    ;** --------------------------------------------------------------------------*
    1532 000003cc           $C$DW$L$VLIB_haarDetectObjectsDense_d$10$B:
    1533                    ;          EXCLUSIVE CPU CYCLES: 41
    1534                            .dwpsn  file ".\..\packages\ti\vlib\src\VLIB_haarDetectObjectsDense\..\common\VLIB_profile.h",
    1535 000003cc 022803e2             MVC     .S2     TSCL,B4           ; |146| 
    1536 000003d0 02ac03e2             MVC     .S2     TSCH,B5           ; |146| 
    1537 000003d4 083da2e4             LDW     .D2T1   *+SP(52),A16      ; |146| 
    1538                            .dwpsn  file "./../packages/ti/vlib/src/VLIB_haarDetectObjectsDense/VLIB_haarDetectObjectsDens
    1539 000003d8 042c4264             LDW     .D1T1   *+A11(8),A8       ; |129| 
    1540                    
TMS320C6x Assembler PC v7.4.2 Sat Sep 26 11:10:16 2015

Tools Copyright (c) 1996-2012 Texas Instruments Incorporated
package/lib/Regression/regress_d_c/./../packages/ti/vlib/src/VLIB_haarDetectObjectsDense/VLIB_haarDetectObjectsDense_d.se66 PAGE   29

    1541 000003dc 022c6265             LDW     .D1T1   *+A11(12),A4      ; |129| 
    1542 000003e0     0727  ||         ZERO    .L2     B6                ; |129| 
    1543 000003e2     7606  ||         MV      .L1X    B12,A3            ; |129| 
    1544                    
    1545 000003e4 048c6265             LDW     .D1T1   *+A3(12),A9       ; |129| 
    1546 000003e8     fc65  ||         STW     .D2T2   B6,*+SP(12)       ; |129| 
    1547                    
    1548 000003ec 030c4264             LDW     .D1T1   *+A3(8),A6        ; |129| 
    1549 000003ea     dc65  ||         STW     .D2T2   B6,*+SP(8)        ; |129| 
    1550                    
    1551 000003f0 052d0266             LDW     .D1T2   *+A11(32),B10     ; |129| 
    1552 000003f4 042ca266             LDW     .D1T2   *+A11(20),B8      ; |129| 
    1553                    
    1554 000003f8 063d82e7             LDW     .D2T2   *+SP(48),B12      ; |146| 
    1555 00000400 052cc265  ||         LDW     .D1T1   *+A11(24),A10     ; |129| 
    1556 00000404 08800028! ||         MVKL    .S1     beg_count,A17
    1557                    
    1558 00000408 032c8267             LDW     .D1T2   *+A11(16),B6      ; |129| 
    1559 0000040c 083c22f5  ||         STW     .D2T1   A16,*+SP(4)       ; |129| 
    1560 00000410 08800068! ||         MVKH    .S1     beg_count,A17
    1561                    
    1562                    $C$DW$179       .dwtag  DW_TAG_TI_branch
    1563                            .dwattr $C$DW$179, DW_AT_low_pc(0x00)
    1564                            .dwattr $C$DW$179, DW_AT_name("VLIB_haarDetectObjectsDense_cn")
    1565                            .dwattr $C$DW$179, DW_AT_TI_call
    1566                    
    1567 00000414 10000013!            CALLP   .S2     VLIB_haarDetectObjectsDense_cn,B3
    1568 00000418     ed4d  ||         LDW     .D2T1   *+SP(44),A4       ; |129| 
    1569 00000424 032500f9  ||         SUB     .L1     A8,A9,A6          ; |129| 
    1570 00000420 041885e1  ||         SUB     .S1     A4,A6,A8          ; |129| 
    1571 0000041a     0627  ||         ZERO    .L2     B4                ; |129| 
    1572 00000428 02440346  ||         STDW    .D1T2   B5:B4,*A17        ; |146| 
    1573                    
    1574 0000042c           $C$RL24:   ; CALL OCCURS {VLIB_haarDetectObjectsDense_cn} {0}  ; |129| 
    1575                    
    1576 0000042c 022803e3             MVC     .S2     TSCL,B4           ; |153| 
    1577 00000430 05100fd8  ||         MV      .L1     A4,A10            ; |129| 
    1578                    
    1579                            .dwpsn  file ".\..\packages\ti\vlib\src\VLIB_haarDetectObjectsDense\..\common\VLIB_profile.h",
    1580 00000434 02ac03e2             MVC     .S2     TSCH,B5           ; |153| 
    1581 00000438 01800028!            MVKL    .S1     act_kernel,A3
    1582 0000043c 02000028!            MVKL    .S1     beg_count,A4
    1583                    
    1584 00000440 01800069!            MVKH    .S1     act_kernel,A3
    1585 00000444 0300002a! ||         MVKL    .S2     overhead,B6
    1586                    
    1587 00000448 018c0265             LDW     .D1T1   *A3,A3            ; |156| 
    1588 0000044c 0300006b! ||         MVKH    .S2     overhead,B6
    1589 00000450 02000068! ||         MVKH    .S1     beg_count,A4
    1590                    
    1591 00000454 041803e7             LDDW    .D2T2   *B6,B9:B8         ; |156| 
    1592 00000458     004c  ||         LDDW    .D1T1   *A4,A5:A4         ; |156| 
    1593                    
    1594 0000045a     4c6e             NOP             3
    1595                            .dwpsn  file ".\..\packages\ti\vlib\src\VLIB_haarDetectObjectsDense\..\common\VLIB_profile.h",
TMS320C6x Assembler PC v7.4.2 Sat Sep 26 11:10:16 2015

Tools Copyright (c) 1996-2012 Texas Instruments Incorporated
package/lib/Regression/regress_d_c/./../packages/ti/vlib/src/VLIB_haarDetectObjectsDense/VLIB_haarDetectObjectsDense_d.se66 PAGE   30

    1596 00000460 03346b64             LDDW    .D1T1   *+A13[A3],A7:A6   ; |156| 
    1597 00000464 0311157a             ADDU    .L2X    B8,A4,B7:B6       ; |156| 
    1598 00000468 0424e07a             ADD     .L2     B7,B9,B8          ; |156| 
    1599                    
    1600 0000046c 041511e3             ADD     .S2X    B8,A5,B8          ; |156| 
    1601 00000470 031885fa  ||         SUBU    .L2     B4,B6,B7:B6       ; |156| 
    1602                    
    1603 00000474 0fa0a0fb             SUB     .L2     B5,B8,B31         ; |156| 
    1604 00000478 039f184a  ||         EXT     .S2     B7,24,24,B7       ; |156| 
    1605                    
    1606 0000047c 031fe07b             ADD     .L2     B31,B7,B6         ; |156| 
    1607 00000480 0218d578  ||         ADDU    .L1X    A6,B6,A5:A4       ; |156| 
    1608                    
    1609 00000488     a3d0             ADD     .L1     A5,A7,A5          ; |156| 
    1610 00000484 0480002b! ||         MVKL    .S2     end_count,B9
    1611                    
    1612 0000048a     b350             ADD     .L1X    A5,B6,A5          ; |156| 
    1613 0000048c 0480006a! ||         MVKH    .S2     end_count,B9
    1614                    
    1615                    $C$DW$180       .dwtag  DW_TAG_TI_branch
    1616                            .dwattr $C$DW$180, DW_AT_low_pc(0x00)
    1617                            .dwattr $C$DW$180, DW_AT_name("setStackDepth")
    1618                            .dwattr $C$DW$180, DW_AT_TI_call
    1619                    
    1620 00000490 10000013!            CALLP   .S2     setStackDepth,B3
    1621 00000494 02346b45  ||         STDW    .D1T1   A5:A4,*+A13[A3]   ; |156| 
    1622 00000498 022403c6  ||         STDW    .D2T2   B5:B4,*B9         ; |153| 
    1623                    
    1624                            .dwpsn  file ".\..\packages\ti\vlib\src\VLIB_haarDetectObjectsDense\..\common\VLIB_profile.h",
    1625 000004a0           $C$RL25:   ; CALL OCCURS {setStackDepth} {0}  ; |159| 
    1626 000004a0           $C$DW$L$VLIB_haarDetectObjectsDense_d$10$E:
    1627                    ;** --------------------------------------------------------------------------*
    1628 000004a0           $C$DW$L$VLIB_haarDetectObjectsDense_d$11$B:
    1629                    ;          EXCLUSIVE CPU CYCLES: 7
    1630                            .dwpsn  file "./../packages/ti/vlib/src/VLIB_haarDetectObjectsDense/VLIB_haarDetectObjectsDens
    1631 000004a0 0029ca78             CMPEQ   .L1     A14,A10,A0        ; |146| 
    1632                    
    1633 000004a4 c0104121     [ A0]   BNOP    .S1     $C$L2,2           ; |146| 
    1634 000004a8 c1bda2e5  || [ A0]   LDW     .D2T1   *+SP(52),A3
    1635 000004ac d200002b! || [!A0]   MVKL    .S2     $C$SL2+0,B4
    1636 000004b0 c504a35a  || [ A0]   MVK     .L2     0x1,B10           ; |54| 
    1637                    
    1638                            .dwpsn  file "./../packages/ti/vlib/src/VLIB_haarDetectObjectsDense/VLIB_haarDetectObjectsDens
    1639                    $C$DW$181       .dwtag  DW_TAG_TI_branch
    1640                            .dwattr $C$DW$181, DW_AT_low_pc(0x00)
    1641                            .dwattr $C$DW$181, DW_AT_name("printf")
    1642                            .dwattr $C$DW$181, DW_AT_TI_call
    1643 000004b4 d0000010!    [!A0]   CALL    .S1     printf            ; |147| 
    1644 000004b8 d200006a!    [!A0]   MVKH    .S2     $C$SL2+0,B4
    1645                            .dwpsn  file "./../packages/ti/vlib/src/VLIB_haarDetectObjectsDense/VLIB_haarDetectObjectsDens
    1646 000004bc c60c0244     [ A0]   LDH     .D1T1   *A3,A12           ; |150| 
    1647                            .dwpsn  file "./../packages/ti/vlib/src/VLIB_haarDetectObjectsDense/VLIB_haarDetectObjectsDens
    1648                               ; BRANCHCC OCCURS {$C$L2}         ; |146| 
    1649 000004c0           $C$DW$L$VLIB_haarDetectObjectsDense_d$11$E:
    1650                    ;** --------------------------------------------------------------------------*
TMS320C6x Assembler PC v7.4.2 Sat Sep 26 11:10:16 2015

Tools Copyright (c) 1996-2012 Texas Instruments Incorporated
package/lib/Regression/regress_d_c/./../packages/ti/vlib/src/VLIB_haarDetectObjectsDense/VLIB_haarDetectObjectsDense_d.se66 PAGE   31

    1651 000004c0           $C$DW$L$VLIB_haarDetectObjectsDense_d$12$B:
    1652                    ;          EXCLUSIVE CPU CYCLES: 9
    1653                    ;** 147 -----------------------    printf((const char *)" Mismatch With Number of Trees Executed totTr
    1654                            .dwpsn  file "./../packages/ti/vlib/src/VLIB_haarDetectObjectsDense/VLIB_haarDetectObjectsDens
    1655 000004c0 023c22f6             STW     .D2T2   B4,*+SP(4)        ; |147| 
    1656 000004c4 053c62f4             STW     .D2T1   A10,*+SP(12)      ; |147| 
    1657                    
    1658 000004c8 073c42f5             STW     .D2T1   A14,*+SP(8)       ; |147| 
    1659 000004cc 01840162  ||         ADDKPC  .S2     $C$RL26,B3,0      ; |147| 
    1660                    
    1661 000004d0           $C$RL26:   ; CALL OCCURS {printf} {0}        ; |147| 
    1662 000004d0 01bda2e4             LDW     .D2T1   *+SP(52),A3
    1663                            .dwpsn  file "./../packages/ti/vlib/src/VLIB_haarDetectObjectsDense/VLIB_haarDetectObjectsDens
    1664 000004d4 0504a35a             MVK     .L2     0x1,B10           ; |54| 
    1665 000004d8 00004000             NOP             3
    1666                            .dwpsn  file "./../packages/ti/vlib/src/VLIB_haarDetectObjectsDense/VLIB_haarDetectObjectsDens
    1667 000004dc 060c0244             LDH     .D1T1   *A3,A12           ; |150| 
    1668 000004e0           $C$DW$L$VLIB_haarDetectObjectsDense_d$12$E:
    1669                    ;** --------------------------------------------------------------------------*
    1670 000004e0           $C$L2:    
    1671                            .dwpsn  file "./../packages/ti/vlib/src/VLIB_haarDetectObjectsDense/VLIB_haarDetectObjectsDens
    1672 000004e0           $C$DW$L$VLIB_haarDetectObjectsDense_d$13$B:
    1673                    ;          EXCLUSIVE CPU CYCLES: 11
    1674                    ;**     -----------------------g8:
    1675                    ;** 150 -----------------------    U$148 = (*outObjList_cn).numObjects;
    1676                    ;** 54  -----------------------    status_nat_vs_int = 1;
    1677                    ;** 150 -----------------------    if ( U$148 <= 0 ) goto g14;
    1678 000004e0 00006000             NOP             4
    1679                            .dwpsn  file "./../packages/ti/vlib/src/VLIB_haarDetectObjectsDense/VLIB_haarDetectObjectsDens
    1680 000004e4 00300ad8             CMPGT   .L1     A12,0,A0          ; |150| 
    1681                    
    1682 000004e8 d0266121     [!A0]   BNOP    .S1     $C$L6,3           ; |150| 
    1683 000004ec c2bce2e4  || [ A0]   LDW     .D2T1   *+SP(28),A5
    1684                    
    1685 000004f0 c20c2264     [ A0]   LDW     .D1T1   *+A3(4),A4
    1686                            .dwpsn  file "./../packages/ti/vlib/src/VLIB_haarDetectObjectsDense/VLIB_haarDetectObjectsDens
    1687 000004f4 c0281fd8     [ A0]   MV      .L1X    B10,A0            ; |150| 
    1688                            .dwpsn  file "./../packages/ti/vlib/src/VLIB_haarDetectObjectsDense/VLIB_haarDetectObjectsDens
    1689                               ; BRANCHCC OCCURS {$C$L6}         ; |150| 
    1690 000004f8           $C$DW$L$VLIB_haarDetectObjectsDense_d$13$E:
    1691                    ;** --------------------------------------------------------------------------*
    1692                            .dwpsn  file "./../packages/ti/vlib/src/VLIB_haarDetectObjectsDense/VLIB_haarDetectObjectsDens
    1693 000004f8           $C$DW$L$VLIB_haarDetectObjectsDense_d$14$B:
    1694                    ;**     -----------------------    U$154 = (*outObjList_cn).objectPos;
    1695                    ;**     -----------------------    U$156 = (*outObjList).objectPos;
    1696                    ;** 151 -----------------------    L$1 = (int)U$148;
    1697                    ;** 150 -----------------------    --U$156;
    1698                    ;** 150 -----------------------    --U$154;
    1699                    ;** 150 -----------------------    i = (-1);
    1700                    ;**     -----------------------    #pragma MUST_ITERATE(1, 65536, 1)
    1701                    ;**     -----------------------    #pragma LOOP_FLAGS(4352u)
    1702                    ;**     -----------------------g10:
    1703                    ;** 151 -----------------------    f$5 = (*(++U$154) != *(++U$156))-1;
    1704                    ;** 150 -----------------------    ++i;
    1705                    ;** 150 -----------------------    L$1 = L$1-1;
TMS320C6x Assembler PC v7.4.2 Sat Sep 26 11:10:16 2015

Tools Copyright (c) 1996-2012 Texas Instruments Incorporated
package/lib/Regression/regress_d_c/./../packages/ti/vlib/src/VLIB_haarDetectObjectsDense/VLIB_haarDetectObjectsDense_d.se66 PAGE   32

    1706                    ;** 150 -----------------------    if ( L$1&f$5 ) goto g10;
    1707                    ;**     -----------------------    if ( f$5 ) goto g14;
    1708 000004f8           $C$DW$L$VLIB_haarDetectObjectsDense_d$14$E:
    1709                    ;*----------------------------------------------------------------------------*
    1710                    ;*   SOFTWARE PIPELINE INFORMATION
    1711                    ;*
    1712                    ;*      Loop found in file               : ./../packages/ti/vlib/src/VLIB_haarDetectObjectsDense/VLIB_
    1713                    ;*      Loop source line                 : 150
    1714                    ;*      Loop opening brace source line   : 150
    1715                    ;*      Loop closing brace source line   : 158
    1716                    ;*      Known Minimum Trip Count         : 1                    
    1717                    ;*      Known Maximum Trip Count         : 65536                    
    1718                    ;*      Known Max Trip Count Factor      : 1
    1719                    ;*      Loop Carried Dependency Bound(^) : 1
    1720                    ;*      Unpartitioned Resource Bound     : 2
    1721                    ;*      Partitioned Resource Bound(*)    : 2
    1722                    ;*      Resource Partition:
    1723                    ;*                                A-side   B-side
    1724                    ;*      .L units                     1        0     
    1725                    ;*      .S units                     1        0     
    1726                    ;*      .D units                     1        1     
    1727                    ;*      .M units                     0        0     
    1728                    ;*      .X cross paths               1        0     
    1729                    ;*      .T address paths             1        1     
    1730                    ;*      Long read paths              0        0     
    1731                    ;*      Long write paths             0        0     
    1732                    ;*      Logical  ops (.LS)           0        0     (.L or .S unit)
    1733                    ;*      Addition ops (.LSD)          3        1     (.L or .S or .D unit)
    1734                    ;*      Bound(.L .S .LS)             1        0     
    1735                    ;*      Bound(.L .S .D .LS .LSD)     2*       1     
    1736                    ;*
    1737                    ;*      Searching for software pipeline schedule at ...
    1738                    ;*         ii = 4  Unsafe schedule for irregular loop
    1739                    ;*         ii = 4  Unsafe schedule for irregular loop
    1740                    ;*         ii = 4  Unsafe schedule for irregular loop
    1741                    ;*         ii = 4  Unsafe schedule for irregular loop
    1742                    ;*         ii = 4  Unsafe schedule for irregular loop
    1743                    ;*         ii = 4  Did not find schedule
    1744                    ;*         ii = 5  Unsafe schedule for irregular loop
    1745                    ;*         ii = 5  Unsafe schedule for irregular loop
    1746                    ;*         ii = 5  Unsafe schedule for irregular loop
    1747                    ;*         ii = 5  Unsafe schedule for irregular loop
    1748                    ;*         ii = 5  Unsafe schedule for irregular loop
    1749                    ;*         ii = 5  Did not find schedule
    1750                    ;*         ii = 6  Unsafe schedule for irregular loop
    1751                    ;*         ii = 6  Unsafe schedule for irregular loop
    1752                    ;*         ii = 6  Unsafe schedule for irregular loop
    1753                    ;*         ii = 6  Unsafe schedule for irregular loop
    1754                    ;*         ii = 6  Unsafe schedule for irregular loop
    1755                    ;*         ii = 6  Did not find schedule
    1756                    ;*         ii = 7  Unsafe schedule for irregular loop
    1757                    ;*         ii = 7  Unsafe schedule for irregular loop
    1758                    ;*         ii = 7  Unsafe schedule for irregular loop
    1759                    ;*         ii = 7  Unsafe schedule for irregular loop
    1760                    ;*         ii = 7  Unsafe schedule for irregular loop
TMS320C6x Assembler PC v7.4.2 Sat Sep 26 11:10:16 2015

Tools Copyright (c) 1996-2012 Texas Instruments Incorporated
package/lib/Regression/regress_d_c/./../packages/ti/vlib/src/VLIB_haarDetectObjectsDense/VLIB_haarDetectObjectsDense_d.se66 PAGE   33

    1761                    ;*         ii = 7  Did not find schedule
    1762                    ;*         ii = 8  Unsafe schedule for irregular loop
    1763                    ;*         ii = 8  Unsafe schedule for irregular loop
    1764                    ;*         ii = 8  Unsafe schedule for irregular loop
    1765                    ;*         ii = 8  Unsafe schedule for irregular loop
    1766                    ;*         ii = 8  Unsafe schedule for irregular loop
    1767                    ;*         ii = 8  Did not find schedule
    1768                    ;*         ii = 9  Schedule found with 2 iterations in parallel
    1769                    ;*
    1770                    ;*      Register Usage Table:
    1771                    ;*          +-----------------------------------------------------------------+
    1772                    ;*          |AAAAAAAAAAAAAAAAAAAAAAAAAAAAAAAA|BBBBBBBBBBBBBBBBBBBBBBBBBBBBBBBB|
    1773                    ;*          |00000000001111111111222222222233|00000000001111111111222222222233|
    1774                    ;*          |01234567890123456789012345678901|01234567890123456789012345678901|
    1775                    ;*          |--------------------------------+--------------------------------|
    1776                    ;*       0: |    ** *                        |    ***                         |
    1777                    ;*       1: |    ** *                        |    ***                         |
    1778                    ;*       2: |   *** *                        |    ***                         |
    1779                    ;*       3: |    ****                        |    ***                         |
    1780                    ;*       4: |   *** *                        |    ***                         |
    1781                    ;*       5: |*   ** *                        |    ***                         |
    1782                    ;*       6: |    ** *                        |    ***                         |
    1783                    ;*       7: |    ** *                        |    ***                         |
    1784                    ;*       8: |    ** *                        |    ***                         |
    1785                    ;*          +-----------------------------------------------------------------+
    1786                    ;*
    1787                    ;*      Done
    1788                    ;*
    1789                    ;*      Loop will be splooped
    1790                    ;*      Collapsed epilog stages       : 1
    1791                    ;*      Collapsed prolog stages       : 0
    1792                    ;*      Minimum required memory pad   : 0 bytes
    1793                    ;*
    1794                    ;*      For further improvement on this loop, try option -mh56
    1795                    ;*
    1796                    ;*      Minimum safe trip count       : 1
    1797                    ;*      Min. prof. trip count  (est.) : 3
    1798                    ;*
    1799                    ;*      Mem bank conflicts/iter(est.) : { min 0.000, est 0.125, max 1.000 }
    1800                    ;*      Mem bank perf. penalty (est.) : 1.4%
    1801                    ;*
    1802                    ;*      Effective ii                : { min 9.00, est 9.13, max 10.00 }
    1803                    ;*
    1804                    ;*
    1805                    ;*      Total cycles (est.)         : 9 + trip_cnt * 9        
    1806                    ;*----------------------------------------------------------------------------*
    1807                    ;*       SETUP CODE
    1808                    ;*
    1809                    ;*                  MVK             0x1,A0
    1810                    ;*
    1811                    ;*        SINGLE SCHEDULED ITERATION
    1812                    ;*
    1813                    ;*        $C$C135:
    1814                    ;*   5      [ A0]   LDW     .D1T1   *++A5,A7          ; |151|  ^ 
    1815                    ;*     ||   [ A0]   LDW     .D2T2   *++B6,B4          ; |151|  ^ 
TMS320C6x Assembler PC v7.4.2 Sat Sep 26 11:10:16 2015

Tools Copyright (c) 1996-2012 Texas Instruments Incorporated
package/lib/Regression/regress_d_c/./../packages/ti/vlib/src/VLIB_haarDetectObjectsDense/VLIB_haarDetectObjectsDense_d.se66 PAGE   34

    1816                    ;*   6              NOP             4
    1817                    ;*  10              CMPEQ   .L1X    B4,A7,A3          ; |151|  ^ 
    1818                    ;*  11              EXT     .S1     A3,31,31,A6       ; |151|  ^ 
    1819                    ;*     ||           SUB     .L1     A4,1,A4           ; |150|  ^ 
    1820                    ;*  12              AND     .L1     A6,A4,A3          ; |150|  ^ 
    1821                    ;*  13              MV      .L1     A3,A0             ; |150|  ^ 
    1822                    ;*  14      [ A0]   SPWBR           $C$C135
    1823                    ;*  15              NOP             2
    1824                    ;*  17              ADD     .L2     1,B5,B5           ; |150| 
    1825                    ;*  18              ; BRANCHCC OCCURS {$C$C135}       ; |150| 
    1826                    ;*----------------------------------------------------------------------------*
    1827 000004f8           $C$L3:    ; PIPED LOOP PROLOG
    1828                    ;          EXCLUSIVE CPU CYCLES: 10
    1829                    
    1830 000004f8 c403e001     [ A0]   SPLOOPW 9       ;18               ; (P) 
    1831 000004fc 01942264  ||         LDW     .D1T1   *+A5(4),A3
    1832                    
    1833                    ;** --------------------------------------------------------------------------*
    1834 00000500           $C$L4:    ; PIPED LOOP KERNEL
    1835 00000500           $C$DW$L$VLIB_haarDetectObjectsDense_d$16$B:
    1836                    ;          EXCLUSIVE CPU CYCLES: 9
    1837 00000500     6c6e             NOP             4
    1838                    
    1839 00000502     2ce7             SPMASK          L1,L2
    1840 00000504     9e61  ||         SUB     .L2X    A4,4,B6           ; |150| 
    1841 00000506     8dd0  ||         SUB     .L1     A3,4,A5           ; |150| 
    1842                    
    1843 00000508 c3943265     [ A0]   LDW     .D1T1   *++A5,A7          ; |151| (P) <0,5>  ^ 
    1844 0000050c c21832e6  || [ A0]   LDW     .D2T2   *++B6,B4          ; |151| (P) <0,5>  ^ 
    1845                    
    1846 00000510     2c6e             NOP             2
    1847                    
    1848 00000512     2ce7             SPMASK          L1,L2
    1849 00000514 02abc05b  ||         ADD     .L2     -2,B10,B5
    1850 00000518     8606  ||         MV      .L1     A12,A4            ; |151| 
    1851                    
    1852 0000051a     0c6e             NOP             1
    1853                            .dwpsn  file "./../packages/ti/vlib/src/VLIB_haarDetectObjectsDense/VLIB_haarDetectObjectsDens
    1854 00000520 0190fa78             CMPEQ   .L1X    B4,A7,A3          ; |151| <0,10>  ^ 
    1855                    
    1856 00000528 0213e058             SUB     .L1     A4,1,A4           ; |150| <0,11>  ^ 
    1857 00000524 030fff49  ||         EXT     .S1     A3,31,31,A6       ; |151| <0,11>  ^ 
    1858                    
    1859                            .dwpsn  file "./../packages/ti/vlib/src/VLIB_haarDetectObjectsDense/VLIB_haarDetectObjectsDens
    1860 0000052c 0190cf78             AND     .L1     A6,A4,A3          ; |150| <0,12>  ^ 
    1861 00000530     01c6             MV      .L1     A3,A0             ; |150| <0,13>  ^ 
    1862 00000532     2c6e             NOP             2
    1863 00000534 00000000             NOP             1
    1864                    
    1865 00000538 00034001             SPKERNEL 0,0
    1866 00000540     26d1  ||         ADD     .L2     1,B5,B5           ; |150| <0,17> 
    1867                    
    1868 00000542           $C$DW$L$VLIB_haarDetectObjectsDense_d$16$E:
    1869                    ;** --------------------------------------------------------------------------*
    1870 00000542           $C$L5:    ; PIPED LOOP EPILOG
TMS320C6x Assembler PC v7.4.2 Sat Sep 26 11:10:16 2015

Tools Copyright (c) 1996-2012 Texas Instruments Incorporated
package/lib/Regression/regress_d_c/./../packages/ti/vlib/src/VLIB_haarDetectObjectsDense/VLIB_haarDetectObjectsDense_d.se66 PAGE   35

    1871                    ;** --------------------------------------------------------------------------*
    1872 00000542           $C$DW$L$VLIB_haarDetectObjectsDense_d$18$B:
    1873                    ;          EXCLUSIVE CPU CYCLES: 7
    1874 00000542     0346             MV      .L1     A6,A0
    1875                    
    1876 00000544     2046             MV      .L1     A0,A1             ; branch predicate copy
    1877 00000548 d500a35b  || [!A0]   ZERO    .L2     B10               ; |152| 
    1878 00000546     08aa  || [ A0]   B       .S1     $C$L8
    1879 0000054c 003cc2e4  ||         LDW     .D2T1   *+SP(24),A0       ; |152| 
    1880                    
    1881                            .dwpsn  file "./../packages/ti/vlib/src/VLIB_haarDetectObjectsDense/VLIB_haarDetectObjectsDens
    1882 00000550 802d4264     [ A1]   LDW     .D1T1   *+A11(40),A0      ; |161| 
    1883 00000554     6c6e             NOP             4
    1884                               ; BRANCHCC OCCURS {$C$L8}  
    1885 00000556           $C$DW$L$VLIB_haarDetectObjectsDense_d$18$E:
    1886                    ;** --------------------------------------------------------------------------*
    1887 00000556           $C$DW$L$VLIB_haarDetectObjectsDense_d$19$B:
    1888                    ;          EXCLUSIVE CPU CYCLES: 6
    1889                    ;** 152 -----------------------    status_nat_vs_int = 0;
    1890                    ;** 153 -----------------------    if ( !LevelOfFeedback ) goto g14;
    1891                    
    1892 00000556     087a     [!A0]   B       .S1     $C$L7             ; |153| 
    1893 00000558 c200002a! || [ A0]   MVKL    .S2     $C$SL3+0,B4
    1894                    
    1895 00000560 c200006a!    [ A0]   MVKH    .S2     $C$SL3+0,B4
    1896                    $C$DW$182       .dwtag  DW_TAG_TI_branch
    1897                            .dwattr $C$DW$182, DW_AT_low_pc(0x00)
    1898                            .dwattr $C$DW$182, DW_AT_name("printf")
    1899                            .dwattr $C$DW$182, DW_AT_TI_call
    1900                    
    1901 00000564 c0000011!    [ A0]   CALL    .S1     printf            ; |154| 
    1902 00000568 d02d4264  || [!A0]   LDW     .D1T1   *+A11(40),A0      ; |161| 
    1903                    
    1904 0000056c     4c6e             NOP             3
    1905                            .dwpsn  file "./../packages/ti/vlib/src/VLIB_haarDetectObjectsDense/VLIB_haarDetectObjectsDens
    1906                               ; BRANCHCC OCCURS {$C$L7}         ; |153| 
    1907 0000056e           $C$DW$L$VLIB_haarDetectObjectsDense_d$19$E:
    1908                    ;** --------------------------------------------------------------------------*
    1909 0000056e           $C$DW$L$VLIB_haarDetectObjectsDense_d$20$B:
    1910                    ;          EXCLUSIVE CPU CYCLES: 2
    1911                    ;** 154 -----------------------    printf((const char *)" Mismatch With Reference in Object Number = %
    1912                            .dwpsn  file "./../packages/ti/vlib/src/VLIB_haarDetectObjectsDense/VLIB_haarDetectObjectsDens
    1913 0000056e     bc45             STW     .D2T2   B4,*+SP(4)        ; |154| 
    1914                    
    1915 00000574 02bc42f6             STW     .D2T2   B5,*+SP(8)        ; |154| 
    1916 00000570 01860163  ||         ADDKPC  .S2     $C$RL27,B3,0      ; |154| 
    1917                    
    1918 00000578           $C$RL27:   ; CALL OCCURS {printf} {0}        ; |154| 
    1919 00000578           $C$DW$L$VLIB_haarDetectObjectsDense_d$20$E:
    1920                    ;** --------------------------------------------------------------------------*
    1921 00000578           $C$L6:    
    1922 00000578           $C$DW$L$VLIB_haarDetectObjectsDense_d$21$B:
    1923                    ;          EXCLUSIVE CPU CYCLES: 4
    1924                            .dwpsn  file "./../packages/ti/vlib/src/VLIB_haarDetectObjectsDense/VLIB_haarDetectObjectsDens
    1925 00000578 002d4264             LDW     .D1T1   *+A11(40),A0      ; |161| 
TMS320C6x Assembler PC v7.4.2 Sat Sep 26 11:10:16 2015

Tools Copyright (c) 1996-2012 Texas Instruments Incorporated
package/lib/Regression/regress_d_c/./../packages/ti/vlib/src/VLIB_haarDetectObjectsDense/VLIB_haarDetectObjectsDense_d.se66 PAGE   36

    1926 00000580     4c6e             NOP             3
    1927 00000582           $C$DW$L$VLIB_haarDetectObjectsDense_d$21$E:
    1928                    ;** --------------------------------------------------------------------------*
    1929 00000582           $C$L7:    
    1930 00000582           $C$DW$L$VLIB_haarDetectObjectsDense_d$22$B:
    1931                    ;          EXCLUSIVE CPU CYCLES: 1
    1932 00000582     0c6e             NOP             1
    1933 00000584           $C$DW$L$VLIB_haarDetectObjectsDense_d$22$E:
    1934                    ;** --------------------------------------------------------------------------*
    1935 00000584           $C$L8:    
    1936                            .dwpsn  file "./../packages/ti/vlib/src/VLIB_haarDetectObjectsDense/VLIB_haarDetectObjectsDens
    1937 00000584           $C$DW$L$VLIB_haarDetectObjectsDense_d$23$B:
    1938                    ;          EXCLUSIVE CPU CYCLES: 6
    1939                    ;**     -----------------------g14:
    1940                    ;** 161 -----------------------    v$1 = prm;
    1941                    ;** 161 -----------------------    if ( (*U$13).objectPos == NULL ) goto g21;
    1942                    
    1943 00000584 063ca2e7             LDW     .D2T2   *+SP(20),B12      ; |161| 
    1944 00000588 d0001c93  || [!A0]   B       .S2     $C$L13            ; |161| 
    1945 0000058c     204e  ||         MV      .S1     A0,A1             ; guard predicate rewrite
    1946 0000058e     4056  ||         MV      .D1     A0,A2             ; branch predicate copy
    1947 00000590 c0300ad8  || [ A0]   CMPGT   .L1     A12,0,A0          ; |162| 
    1948                    
    1949                            .dwpsn  file "./../packages/ti/vlib/src/VLIB_haarDetectObjectsDense/VLIB_haarDetectObjectsDens
    1950 00000594 9004a358     [!A1]   MVK     .L1     0x1,A0            ; |162| nullify predicate
    1951 00000598 d0704120     [!A0]   BNOP    .S1     $C$L12,2          ; |162| 
    1952                            .dwpsn  file "./../packages/ti/vlib/src/VLIB_haarDetectObjectsDense/VLIB_haarDetectObjectsDens
    1953 000005a0 b22d807a     [!A2]   ADD     .L2     B12,B11,B4        ; |179| 
    1954                            .dwpsn  file "./../packages/ti/vlib/src/VLIB_haarDetectObjectsDense/VLIB_haarDetectObjectsDens
    1955                               ; BRANCHCC OCCURS {$C$L13}        ; |161| 
    1956 000005a4           $C$DW$L$VLIB_haarDetectObjectsDense_d$23$E:
    1957                    ;** --------------------------------------------------------------------------*
    1958 000005a4           $C$DW$L$VLIB_haarDetectObjectsDense_d$24$B:
    1959                    ;          EXCLUSIVE CPU CYCLES: 2
    1960                    ;** 162 -----------------------    if ( U$148 <= 0 ) goto g21;
    1961                    
    1962 000005a4 c1bcaca1     [ A0]   SHL     .S1     A15,5,A3
    1963 000005a8 cfbda2e4  || [ A0]   LDW     .D2T1   *+SP(52),A31
    1964                    
    1965 000005ac c2bc9ca2     [ A0]   SHL     .S2X    A15,4,B5
    1966                            .dwpsn  file "./../packages/ti/vlib/src/VLIB_haarDetectObjectsDense/VLIB_haarDetectObjectsDens
    1967                               ; BRANCHCC OCCURS {$C$L12}        ; |162| 
    1968 000005b0           $C$DW$L$VLIB_haarDetectObjectsDense_d$24$E:
    1969                    ;** --------------------------------------------------------------------------*
    1970                            .dwpsn  file "./../packages/ti/vlib/src/VLIB_haarDetectObjectsDense/VLIB_haarDetectObjectsDens
    1971 000005b0           $C$DW$L$VLIB_haarDetectObjectsDense_d$25$B:
    1972                    ;          EXCLUSIVE CPU CYCLES: 3
    1973                    ;**     -----------------------    U$154 = (*outObjList_cn).objectPos;
    1974                    ;**     -----------------------    U$177 = (v$1[tpi]).objectPos;
    1975                    ;** 163 -----------------------    L$2 = (int)U$148;
    1976                    ;** 162 -----------------------    --U$177;
    1977                    ;** 162 -----------------------    --U$154;
    1978                    ;** 162 -----------------------    i = (-1);
    1979                    ;**     -----------------------    #pragma MUST_ITERATE(1, 65536, 1)
    1980                    ;**     -----------------------    #pragma LOOP_FLAGS(4352u)
TMS320C6x Assembler PC v7.4.2 Sat Sep 26 11:10:16 2015

Tools Copyright (c) 1996-2012 Texas Instruments Incorporated
package/lib/Regression/regress_d_c/./../packages/ti/vlib/src/VLIB_haarDetectObjectsDense/VLIB_haarDetectObjectsDense_d.se66 PAGE   37

    1981                    ;**     -----------------------g17:
    1982                    ;** 163 -----------------------    f$6 = (*(++U$154) != *(++U$177))-1;
    1983                    ;** 162 -----------------------    ++i;
    1984                    ;** 162 -----------------------    L$2 = L$2-1;
    1985                    ;** 162 -----------------------    if ( L$2&f$6 ) goto g17;
    1986                    ;**     -----------------------    if ( f$6 ) goto g21;
    1987 000005b0     2426             MVK     .L1     0x1,A0
    1988 000005b2     b1d1             ADD     .L2X    B5,A3,B5
    1989 000005b4 0295807b             ADD     .L2     B12,B5,B5
    1990 000005c0           $C$DW$L$VLIB_haarDetectObjectsDense_d$25$E:
    1991                    ;*----------------------------------------------------------------------------*
    1992                    ;*   SOFTWARE PIPELINE INFORMATION
    1993                    ;*
    1994                    ;*      Loop found in file               : ./../packages/ti/vlib/src/VLIB_haarDetectObjectsDense/VLIB_
    1995                    ;*      Loop source line                 : 162
    1996                    ;*      Loop opening brace source line   : 162
    1997                    ;*      Loop closing brace source line   : 170
    1998                    ;*      Known Minimum Trip Count         : 1                    
    1999                    ;*      Known Maximum Trip Count         : 65536                    
    2000                    ;*      Known Max Trip Count Factor      : 1
    2001                    ;*      Loop Carried Dependency Bound(^) : 1
    2002                    ;*      Unpartitioned Resource Bound     : 2
    2003                    ;*      Partitioned Resource Bound(*)    : 2
    2004                    ;*      Resource Partition:
    2005                    ;*                                A-side   B-side
    2006                    ;*      .L units                     1        0     
    2007                    ;*      .S units                     1        0     
    2008                    ;*      .D units                     1        1     
    2009                    ;*      .M units                     0        0     
    2010                    ;*      .X cross paths               1        0     
    2011                    ;*      .T address paths             1        1     
    2012                    ;*      Long read paths              0        0     
    2013                    ;*      Long write paths             0        0     
    2014                    ;*      Logical  ops (.LS)           0        0     (.L or .S unit)
    2015                    ;*      Addition ops (.LSD)          3        1     (.L or .S or .D unit)
    2016                    ;*      Bound(.L .S .LS)             1        0     
    2017                    ;*      Bound(.L .S .D .LS .LSD)     2*       1     
    2018                    ;*
    2019                    ;*      Searching for software pipeline schedule at ...
    2020                    ;*         ii = 4  Unsafe schedule for irregular loop
    2021                    ;*         ii = 4  Unsafe schedule for irregular loop
    2022                    ;*         ii = 4  Unsafe schedule for irregular loop
    2023                    ;*         ii = 4  Unsafe schedule for irregular loop
    2024                    ;*         ii = 4  Unsafe schedule for irregular loop
    2025                    ;*         ii = 4  Did not find schedule
    2026                    ;*         ii = 5  Unsafe schedule for irregular loop
    2027                    ;*         ii = 5  Unsafe schedule for irregular loop
    2028                    ;*         ii = 5  Unsafe schedule for irregular loop
    2029                    ;*         ii = 5  Unsafe schedule for irregular loop
    2030                    ;*         ii = 5  Unsafe schedule for irregular loop
    2031                    ;*         ii = 5  Did not find schedule
    2032                    ;*         ii = 6  Unsafe schedule for irregular loop
    2033                    ;*         ii = 6  Unsafe schedule for irregular loop
    2034                    ;*         ii = 6  Unsafe schedule for irregular loop
    2035                    ;*         ii = 6  Unsafe schedule for irregular loop
TMS320C6x Assembler PC v7.4.2 Sat Sep 26 11:10:16 2015

Tools Copyright (c) 1996-2012 Texas Instruments Incorporated
package/lib/Regression/regress_d_c/./../packages/ti/vlib/src/VLIB_haarDetectObjectsDense/VLIB_haarDetectObjectsDense_d.se66 PAGE   38

    2036                    ;*         ii = 6  Unsafe schedule for irregular loop
    2037                    ;*         ii = 6  Did not find schedule
    2038                    ;*         ii = 7  Unsafe schedule for irregular loop
    2039                    ;*         ii = 7  Unsafe schedule for irregular loop
    2040                    ;*         ii = 7  Unsafe schedule for irregular loop
    2041                    ;*         ii = 7  Unsafe schedule for irregular loop
    2042                    ;*         ii = 7  Unsafe schedule for irregular loop
    2043                    ;*         ii = 7  Did not find schedule
    2044                    ;*         ii = 8  Unsafe schedule for irregular loop
    2045                    ;*         ii = 8  Unsafe schedule for irregular loop
    2046                    ;*         ii = 8  Unsafe schedule for irregular loop
    2047                    ;*         ii = 8  Unsafe schedule for irregular loop
    2048                    ;*         ii = 8  Unsafe schedule for irregular loop
    2049                    ;*         ii = 8  Did not find schedule
    2050                    ;*         ii = 9  Schedule found with 2 iterations in parallel
    2051                    ;*
    2052                    ;*      Register Usage Table:
    2053                    ;*          +-----------------------------------------------------------------+
    2054                    ;*          |AAAAAAAAAAAAAAAAAAAAAAAAAAAAAAAA|BBBBBBBBBBBBBBBBBBBBBBBBBBBBBBBB|
    2055                    ;*          |00000000001111111111222222222233|00000000001111111111222222222233|
    2056                    ;*          |01234567890123456789012345678901|01234567890123456789012345678901|
    2057                    ;*          |--------------------------------+--------------------------------|
    2058                    ;*       0: |    ** *                        |    ***                         |
    2059                    ;*       1: |    ** *                        |    ***                         |
    2060                    ;*       2: |   *** *                        |    ***                         |
    2061                    ;*       3: |    ****                        |    ***                         |
    2062                    ;*       4: |   *** *                        |    ***                         |
    2063                    ;*       5: |*   ** *                        |    ***                         |
    2064                    ;*       6: |    ** *                        |    ***                         |
    2065                    ;*       7: |    ** *                        |    ***                         |
    2066                    ;*       8: |    ** *                        |    ***                         |
    2067                    ;*          +-----------------------------------------------------------------+
    2068                    ;*
    2069                    ;*      Done
    2070                    ;*
    2071                    ;*      Loop will be splooped
    2072                    ;*      Collapsed epilog stages       : 1
    2073                    ;*      Collapsed prolog stages       : 0
    2074                    ;*      Minimum required memory pad   : 0 bytes
    2075                    ;*
    2076                    ;*      For further improvement on this loop, try option -mh56
    2077                    ;*
    2078                    ;*      Minimum safe trip count       : 1
    2079                    ;*      Min. prof. trip count  (est.) : 3
    2080                    ;*
    2081                    ;*      Mem bank conflicts/iter(est.) : { min 0.000, est 0.125, max 1.000 }
    2082                    ;*      Mem bank perf. penalty (est.) : 1.4%
    2083                    ;*
    2084                    ;*      Effective ii                : { min 9.00, est 9.13, max 10.00 }
    2085                    ;*
    2086                    ;*
    2087                    ;*      Total cycles (est.)         : 9 + trip_cnt * 9        
    2088                    ;*----------------------------------------------------------------------------*
    2089                    ;*       SETUP CODE
    2090                    ;*
TMS320C6x Assembler PC v7.4.2 Sat Sep 26 11:10:16 2015

Tools Copyright (c) 1996-2012 Texas Instruments Incorporated
package/lib/Regression/regress_d_c/./../packages/ti/vlib/src/VLIB_haarDetectObjectsDense/VLIB_haarDetectObjectsDense_d.se66 PAGE   39

    2091                    ;*                  MVK             0x1,A0
    2092                    ;*
    2093                    ;*        SINGLE SCHEDULED ITERATION
    2094                    ;*
    2095                    ;*        $C$C81:
    2096                    ;*   5      [ A0]   LDW     .D1T1   *++A5,A7          ; |163|  ^ 
    2097                    ;*     ||   [ A0]   LDW     .D2T2   *++B6,B4          ; |163|  ^ 
    2098                    ;*   6              NOP             4
    2099                    ;*  10              CMPEQ   .L1X    B4,A7,A3          ; |163|  ^ 
    2100                    ;*  11              EXT     .S1     A3,31,31,A6       ; |163|  ^ 
    2101                    ;*     ||           SUB     .L1     A4,1,A4           ; |162|  ^ 
    2102                    ;*  12              AND     .L1     A6,A4,A3          ; |162|  ^ 
    2103                    ;*  13              MV      .L1     A3,A0             ; |162|  ^ 
    2104                    ;*  14      [ A0]   SPWBR           $C$C81
    2105                    ;*  15              NOP             2
    2106                    ;*  17              ADD     .L2     1,B5,B5           ; |162| 
    2107                    ;*  18              ; BRANCHCC OCCURS {$C$C81}        ; |162| 
    2108                    ;*----------------------------------------------------------------------------*
    2109 000005c0           $C$L9:    ; PIPED LOOP PROLOG
    2110                    ;          EXCLUSIVE CPU CYCLES: 10
    2111                    
    2112 000005c0 c403e001     [ A0]   SPLOOPW 9       ;18               ; (P) 
    2113 000005c8     58dd  ||         LDW     .D2T2   *+B5(40),B5
    2114 000005c4 01fc2265  ||         LDW     .D1T1   *+A31(4),A3
    2115                    
    2116                    ;** --------------------------------------------------------------------------*
    2117 000005ca           $C$L10:    ; PIPED LOOP KERNEL
    2118 000005ca           $C$DW$L$VLIB_haarDetectObjectsDense_d$27$B:
    2119                    ;          EXCLUSIVE CPU CYCLES: 9
    2120 000005ca     6c6e             NOP             4
    2121                    
    2122 000005cc     2ce7             SPMASK          L1,L2
    2123 000005ce     9ed0  ||         SUB     .L1X    B5,4,A5           ; |162| 
    2124 000005d0 030f905a  ||         SUB     .L2X    A3,4,B6           ; |162| 
    2125                    
    2126 000005d4 c3943265     [ A0]   LDW     .D1T1   *++A5,A7          ; |163| (P) <0,5>  ^ 
    2127 000005d8 c21832e6  || [ A0]   LDW     .D2T2   *++B6,B4          ; |163| (P) <0,5>  ^ 
    2128                    
    2129 000005e0     2c6e             NOP             2
    2130                    
    2131 000005e2     2ce7             SPMASK          L1,L2
    2132 000005e4     8606  ||         MV      .L1     A12,A4            ; |163| 
    2133 000005e6     fea7  ||         MVK     .L2     0xffffffff,B5     ; |162| 
    2134                    
    2135 000005e8 00000000             NOP             1
    2136                            .dwpsn  file "./../packages/ti/vlib/src/VLIB_haarDetectObjectsDense/VLIB_haarDetectObjectsDens
    2137 000005ec 0190fa78             CMPEQ   .L1X    B4,A7,A3          ; |163| <0,10>  ^ 
    2138                    
    2139 000005f4 0213e058             SUB     .L1     A4,1,A4           ; |162| <0,11>  ^ 
    2140 000005f0 030fff49  ||         EXT     .S1     A3,31,31,A6       ; |163| <0,11>  ^ 
    2141                    
    2142                            .dwpsn  file "./../packages/ti/vlib/src/VLIB_haarDetectObjectsDense/VLIB_haarDetectObjectsDens
    2143 000005f8 0190cf78             AND     .L1     A6,A4,A3          ; |162| <0,12>  ^ 
    2144 00000600     01c6             MV      .L1     A3,A0             ; |162| <0,13>  ^ 
    2145 00000602     2c6e             NOP             2
TMS320C6x Assembler PC v7.4.2 Sat Sep 26 11:10:16 2015

Tools Copyright (c) 1996-2012 Texas Instruments Incorporated
package/lib/Regression/regress_d_c/./../packages/ti/vlib/src/VLIB_haarDetectObjectsDense/VLIB_haarDetectObjectsDense_d.se66 PAGE   40

    2146 00000604 00000000             NOP             1
    2147                    
    2148 00000608 00034001             SPKERNEL 0,0
    2149 0000060c     26d1  ||         ADD     .L2     1,B5,B5           ; |162| <0,17> 
    2150                    
    2151 0000060e           $C$DW$L$VLIB_haarDetectObjectsDense_d$27$E:
    2152                    ;** --------------------------------------------------------------------------*
    2153 0000060e           $C$L11:    ; PIPED LOOP EPILOG
    2154                    ;** --------------------------------------------------------------------------*
    2155 0000060e           $C$DW$L$VLIB_haarDetectObjectsDense_d$29$B:
    2156                    ;          EXCLUSIVE CPU CYCLES: 7
    2157 0000060e     0346             MV      .L1     A6,A0
    2158                    
    2159 00000610     0daa     [ A0]   B       .S1     $C$L14
    2160 00000612     4046  ||         MV      .L1     A0,A2             ; branch predicate copy
    2161 00000614 d500a35b  || [!A0]   ZERO    .L2     B10               ; |164| 
    2162 00000618     2056  ||         MV      .D1     A0,A1             ; branch predicate copy
    2163 0000061a     cc8d  ||         LDW     .D2T1   *+SP(24),A0       ; |164| 
    2164                    
    2165                            .dwpsn  file "./../packages/ti/vlib/src/VLIB_haarDetectObjectsDense/VLIB_haarDetectObjectsDens
    2166 00000620 822d807a     [ A1]   ADD     .L2     B12,B11,B4        ; |179| 
    2167 00000624 a290a2e6     [ A2]   LDW     .D2T2   *+B4(20),B5       ; |179| 
    2168 00000628 a310c2e6     [ A2]   LDW     .D2T2   *+B4(24),B6       ; |179| 
    2169 0000062c a21162e6     [ A2]   LDW     .D2T2   *+B4(44),B4       ; |179| 
    2170 00000630     0c6e             NOP             1
    2171                               ; BRANCHCC OCCURS {$C$L14}  
    2172 00000632           $C$DW$L$VLIB_haarDetectObjectsDense_d$29$E:
    2173                    ;** --------------------------------------------------------------------------*
    2174 00000632           $C$DW$L$VLIB_haarDetectObjectsDense_d$30$B:
    2175                    ;          EXCLUSIVE CPU CYCLES: 6
    2176                    ;** 164 -----------------------    status_nat_vs_int = 0;
    2177                    ;** 165 -----------------------    if ( !LevelOfFeedback ) goto g21;
    2178                    
    2179 00000632     09ba     [!A0]   B       .S1     $C$L14            ; |165| 
    2180 00000634 d22d807b  || [!A0]   ADD     .L2     B12,B11,B4        ; |179| 
    2181 00000638 c200002a! || [ A0]   MVKL    .S2     $C$SL4+0,B4
    2182                    
    2183 00000640 d310c2e6     [!A0]   LDW     .D2T2   *+B4(24),B6       ; |179| 
    2184                            .dwpsn  file "./../packages/ti/vlib/src/VLIB_haarDetectObjectsDense/VLIB_haarDetectObjectsDens
    2185                    $C$DW$183       .dwtag  DW_TAG_TI_branch
    2186                            .dwattr $C$DW$183, DW_AT_low_pc(0x00)
    2187                            .dwattr $C$DW$183, DW_AT_name("printf")
    2188                            .dwattr $C$DW$183, DW_AT_TI_call
    2189 00000644 c0000010!    [ A0]   CALL    .S1     printf            ; |166| 
    2190                            .dwpsn  file "./../packages/ti/vlib/src/VLIB_haarDetectObjectsDense/VLIB_haarDetectObjectsDens
    2191 00000648 d290a2e6     [!A0]   LDW     .D2T2   *+B4(20),B5       ; |179| 
    2192 0000064c d21162e6     [!A0]   LDW     .D2T2   *+B4(44),B4       ; |179| 
    2193 00000650 c200006a!    [ A0]   MVKH    .S2     $C$SL4+0,B4
    2194                            .dwpsn  file "./../packages/ti/vlib/src/VLIB_haarDetectObjectsDense/VLIB_haarDetectObjectsDens
    2195                               ; BRANCHCC OCCURS {$C$L14}        ; |165| 
    2196 00000654           $C$DW$L$VLIB_haarDetectObjectsDense_d$30$E:
    2197                    ;** --------------------------------------------------------------------------*
    2198 00000654           $C$DW$L$VLIB_haarDetectObjectsDense_d$31$B:
    2199                    ;          EXCLUSIVE CPU CYCLES: 2
    2200                    ;** 166 -----------------------    printf((const char *)" Mismatch With Static Reference in Object Num
TMS320C6x Assembler PC v7.4.2 Sat Sep 26 11:10:16 2015

Tools Copyright (c) 1996-2012 Texas Instruments Incorporated
package/lib/Regression/regress_d_c/./../packages/ti/vlib/src/VLIB_haarDetectObjectsDense/VLIB_haarDetectObjectsDense_d.se66 PAGE   41

    2201                            .dwpsn  file "./../packages/ti/vlib/src/VLIB_haarDetectObjectsDense/VLIB_haarDetectObjectsDens
    2202 00000654     bc45             STW     .D2T2   B4,*+SP(4)        ; |166| 
    2203                    
    2204 00000656     dc55             STW     .D2T2   B5,*+SP(8)        ; |166| 
    2205 00000658 01880162  ||         ADDKPC  .S2     $C$RL28,B3,0      ; |166| 
    2206                    
    2207 00000660           $C$RL28:   ; CALL OCCURS {printf} {0}        ; |166| 
    2208 00000660           $C$DW$L$VLIB_haarDetectObjectsDense_d$31$E:
    2209                    ;** --------------------------------------------------------------------------*
    2210 00000660           $C$L12:    
    2211 00000660           $C$DW$L$VLIB_haarDetectObjectsDense_d$32$B:
    2212                    ;          EXCLUSIVE CPU CYCLES: 1
    2213                            .dwpsn  file "./../packages/ti/vlib/src/VLIB_haarDetectObjectsDense/VLIB_haarDetectObjectsDens
    2214 00000660 022d807a             ADD     .L2     B12,B11,B4        ; |179| 
    2215 00000664           $C$DW$L$VLIB_haarDetectObjectsDense_d$32$E:
    2216                    ;** --------------------------------------------------------------------------*
    2217 00000664           $C$L13:    
    2218 00000664           $C$DW$L$VLIB_haarDetectObjectsDense_d$33$B:
    2219                    ;          EXCLUSIVE CPU CYCLES: 4
    2220 00000664     d06d             LDW     .D2T2   *+B4(24),B6       ; |179| 
    2221 00000666     b05d             LDW     .D2T2   *+B4(20),B5       ; |179| 
    2222 00000668     784d             LDW     .D2T2   *+B4(44),B4       ; |179| 
    2223 0000066a     0c6e             NOP             1
    2224 0000066c           $C$DW$L$VLIB_haarDetectObjectsDense_d$33$E:
    2225                    ;** --------------------------------------------------------------------------*
    2226 0000066c           $C$L14:    
    2227                            .dwpsn  file "./../packages/ti/vlib/src/VLIB_haarDetectObjectsDense/VLIB_haarDetectObjectsDens
    2228                    $C$DW$L$VLIB_haarDetectObjectsDense_d$34$B:
    2229                    ;          EXCLUSIVE CPU CYCLES: 6
    2230                    ;**     -----------------------g21:
    2231                    ;** 176 -----------------------    est_test = 1;
    2232                    ;** 179 -----------------------    C$9 = U$12+v$1;
    2233                    ;** 179 -----------------------    sprintf(K$195, (const char *)"%s generated input | Opt results comp
    2234                    ;** 182 -----------------------    VLIB_formula_add_test(totTreeExec_cn, 0, 0, status_nat_vs_int == 0,
    2235                    ;** 184 -----------------------    goto g23;
    2236                    $C$DW$184       .dwtag  DW_TAG_TI_branch
    2237                            .dwattr $C$DW$184, DW_AT_low_pc(0x00)
    2238                            .dwattr $C$DW$184, DW_AT_name("sprintf")
    2239                            .dwattr $C$DW$184, DW_AT_TI_call
    2240                    
    2241 0000066c 00000011!            CALL    .S1     sprintf           ; |179| 
    2242 00000670 0380002a! ||         MVKL    .S2     $C$SL5+0,B7
    2243                    
    2244 00000674 0380006b!            MVKH    .S2     $C$SL5+0,B7
    2245 00000678 02000029! ||         MVKL    .S1     est_test,A4
    2246 00000680 06bc42f6  ||         STW     .D2T2   B13,*+SP(8)       ; |179| 
    2247                    
    2248 00000684     cad1             SUB     .L2     B6,B5,B5          ; |179| 
    2249 00000686     bc75  ||         STW     .D2T2   B7,*+SP(4)        ; |179| 
    2250 00000688 02000068! ||         MVKH    .S1     est_test,A4
    2251                    
    2252 0000068c     9cc5             STW     .D2T2   B4,*+SP(16)       ; |179| 
    2253 0000068e     26c1  ||         ADD     .L2     1,B5,B4           ; |179| 
    2254 00000690     25a6  ||         MVK     .L1     1,A3              ; |176| 
    2255                    
TMS320C6x Assembler PC v7.4.2 Sat Sep 26 11:10:16 2015

Tools Copyright (c) 1996-2012 Texas Instruments Incorporated
package/lib/Regression/regress_d_c/./../packages/ti/vlib/src/VLIB_haarDetectObjectsDense/VLIB_haarDetectObjectsDense_d.se66 PAGE   42

    2256 00000692     0034             STW     .D1T1   A3,*A4            ; |176| 
    2257 00000698 023c62f6  ||         STW     .D2T2   B4,*+SP(12)       ; |179| 
    2258 00000694 02000029! ||         MVKL    .S1     desc,A4
    2259                    
    2260 000006a0 02000069!            MVKH    .S1     desc,A4
    2261 000006a4 01820162  ||         ADDKPC  .S2     $C$RL29,B3,0      ; |179| 
    2262                    
    2263                            .dwpsn  file "./../packages/ti/vlib/src/VLIB_haarDetectObjectsDense/VLIB_haarDetectObjectsDens
    2264 000006a8           $C$RL29:   ; CALL OCCURS {sprintf} {0}       ; |179| 
    2265 000006a8           $C$DW$L$VLIB_haarDetectObjectsDense_d$34$E:
    2266                    ;** --------------------------------------------------------------------------*
    2267 000006a8           $C$DW$L$VLIB_haarDetectObjectsDense_d$35$B:
    2268                    ;          EXCLUSIVE CPU CYCLES: 11
    2269                            .dwpsn  file "./../packages/ti/vlib/src/VLIB_haarDetectObjectsDense/VLIB_haarDetectObjectsDens
    2270 000006a8 01ace264             LDW     .D1T1   *+A11(28),A3      ; |182| 
    2271 000006ac 04000028!            MVKL    .S1     desc,A8
    2272 000006b0 0200a35a             ZERO    .L2     B4                ; |182| 
    2273 000006b4 04000068!            MVKH    .S1     desc,A8
    2274 000006b8     8506             MV      .L1     A10,A4            ; |182| 
    2275                    $C$DW$185       .dwtag  DW_TAG_TI_branch
    2276                            .dwattr $C$DW$185, DW_AT_low_pc(0x08)
    2277                            .dwattr $C$DW$185, DW_AT_name("VLIB_formula_add_test")
    2278                            .dwattr $C$DW$185, DW_AT_TI_call
    2279                    
    2280 000006ba     0726             ZERO    .L1     A6                ; |182| 
    2281 000006c0 03280a5b  ||         CMPEQ   .L2     B10,0,B6          ; |182| 
    2282 000006c4 10000013! ||         CALLP   .S2     VLIB_formula_add_test,B3
    2283 000006c8 040c3af2  ||         ADD     .D2X    1,A3,B8           ; |182| 
    2284                    
    2285 000006cc           $C$RL30:   ; CALL OCCURS {VLIB_formula_add_test} {0}  ; |182| 
    2286 000006cc           $C$DW$L$VLIB_haarDetectObjectsDense_d$35$E:
    2287                    ;** --------------------------------------------------------------------------*
    2288 000006cc           $C$DW$L$VLIB_haarDetectObjectsDense_d$36$B:
    2289                    ;          EXCLUSIVE CPU CYCLES: 6
    2290                            .dwpsn  file "./../packages/ti/vlib/src/VLIB_haarDetectObjectsDense/VLIB_haarDetectObjectsDens
    2291 000006cc 00000a10             B       .S1     $C$L16            ; |184| 
    2292                            .dwpsn  file "./../packages/ti/vlib/src/VLIB_haarDetectObjectsDense/VLIB_haarDetectObjectsDens
    2293                    ;----------------------------------------------------------------------
    2294                    ; 192 | VLIB_free(outObjList);                                                 
    2295                    ;----------------------------------------------------------------------
    2296                    $C$DW$186       .dwtag  DW_TAG_TI_branch
    2297                            .dwattr $C$DW$186, DW_AT_low_pc(0x00)
    2298                            .dwattr $C$DW$186, DW_AT_name("VLIB_free")
    2299                            .dwattr $C$DW$186, DW_AT_TI_call
    2300 000006d0 00000010!            CALL    .S1     VLIB_free         ; |192| 
    2301 000006d4     eccd             LDW     .D2T1   *+SP(28),A4       ; |192| 
    2302 000006d6     4c6e             NOP             3
    2303                            .dwpsn  file "./../packages/ti/vlib/src/VLIB_haarDetectObjectsDense/VLIB_haarDetectObjectsDens
    2304                               ; BRANCH OCCURS {$C$L16}          ; |184| 
    2305 000006d8           $C$DW$L$VLIB_haarDetectObjectsDense_d$36$E:
    2306                    ;** --------------------------------------------------------------------------*
    2307 000006d8           $C$L15:    
    2308                            .dwpsn  file "./../packages/ti/vlib/src/VLIB_haarDetectObjectsDense/VLIB_haarDetectObjectsDens
    2309 000006d8           $C$DW$L$VLIB_haarDetectObjectsDense_d$37$B:
    2310                    ;          EXCLUSIVE CPU CYCLES: 5
TMS320C6x Assembler PC v7.4.2 Sat Sep 26 11:10:16 2015

Tools Copyright (c) 1996-2012 Texas Instruments Incorporated
package/lib/Regression/regress_d_c/./../packages/ti/vlib/src/VLIB_haarDetectObjectsDense/VLIB_haarDetectObjectsDense_d.se66 PAGE   43

    2311                    ;**     -----------------------g22:
    2312                    ;** 186 -----------------------    sprintf(K$195, (const char *)"numStages=%d, numPixels=%d", (*U$13).
    2313                    ;** 187 -----------------------    VLIB_skip_test(K$195);
    2314 000006d8 0200006a!            MVKH    .S2     $C$SL6+0,B4
    2315                            .dwpsn  file "./../packages/ti/vlib/src/VLIB_haarDetectObjectsDense/VLIB_haarDetectObjectsDens
    2316 000006e0 023c22f6             STW     .D2T2   B4,*+SP(4)        ; |186| 
    2317 000006e4 01bc62f4             STW     .D2T1   A3,*+SP(12)       ; |186| 
    2318                    
    2319 000006ec 0190a0f8             SUB     .L1     A5,A4,A3          ; |186| 
    2320 000006e8 02000029! ||         MVKL    .S1     desc,A4
    2321                    
    2322 000006f0 01bc42f5             STW     .D2T1   A3,*+SP(8)        ; |186| 
    2323 000006f4 02000069! ||         MVKH    .S1     desc,A4
    2324 000006f8 01870162  ||         ADDKPC  .S2     $C$RL31,B3,0      ; |186| 
    2325                    
    2326 000006fc           $C$RL31:   ; CALL OCCURS {sprintf} {0}       ; |186| 
    2327 000006fc           $C$DW$L$VLIB_haarDetectObjectsDense_d$37$E:
    2328                    ;** --------------------------------------------------------------------------*
    2329 000006fc           $C$DW$L$VLIB_haarDetectObjectsDense_d$38$B:
    2330                    ;          EXCLUSIVE CPU CYCLES: 12
    2331 000006fc 02000028!            MVKL    .S1     desc,A4
    2332                    $C$DW$187       .dwtag  DW_TAG_TI_branch
    2333                            .dwattr $C$DW$187, DW_AT_low_pc(0x00)
    2334                            .dwattr $C$DW$187, DW_AT_name("VLIB_skip_test")
    2335                            .dwattr $C$DW$187, DW_AT_TI_call
    2336                    
    2337 00000700 10000013!            CALLP   .S2     VLIB_skip_test,B3
    2338 00000704 02000068! ||         MVKH    .S1     desc,A4
    2339                    
    2340                            .dwpsn  file "./../packages/ti/vlib/src/VLIB_haarDetectObjectsDense/VLIB_haarDetectObjectsDens
    2341 00000708           $C$RL32:   ; CALL OCCURS {VLIB_skip_test} {0}  ; |187| 
    2342                            .dwpsn  file "./../packages/ti/vlib/src/VLIB_haarDetectObjectsDense/VLIB_haarDetectObjectsDens
    2343                    $C$DW$188       .dwtag  DW_TAG_TI_branch
    2344                            .dwattr $C$DW$188, DW_AT_low_pc(0x00)
    2345                            .dwattr $C$DW$188, DW_AT_name("VLIB_free")
    2346                            .dwattr $C$DW$188, DW_AT_TI_call
    2347 00000708 00000010!            CALL    .S1     VLIB_free         ; |192| 
    2348 0000070c     eccd             LDW     .D2T1   *+SP(28),A4       ; |192| 
    2349 0000070e     4c6e             NOP             3
    2350 00000710           $C$DW$L$VLIB_haarDetectObjectsDense_d$38$E:
    2351                    ;** --------------------------------------------------------------------------*
    2352 00000710           $C$L16:    
    2353                            .dwpsn  file "./../packages/ti/vlib/src/VLIB_haarDetectObjectsDense/VLIB_haarDetectObjectsDens
    2354 00000710           $C$DW$L$VLIB_haarDetectObjectsDense_d$39$B:
    2355                    ;          EXCLUSIVE CPU CYCLES: 1
    2356                    ;**     -----------------------g23:
    2357                    ;** 192 -----------------------    VLIB_free((void *)outObjList);
    2358                    ;** 193 -----------------------    VLIB_free((void *)scratch1);
    2359                    ;** 194 -----------------------    VLIB_free((void *)scratch2);
    2360                    ;** 195 -----------------------    free((void *)intImageA);
    2361                    ;** 196 -----------------------    free((void *)intImageNAL);
    2362                    ;** 197 -----------------------    free((void *)classifier);
    2363                    ;** 198 -----------------------    free((void *)classifier_cn);
    2364                    ;** 199 -----------------------    free((void *)outObjList_cn);
    2365                    ;** 200 -----------------------    free((void *)objectPos);
TMS320C6x Assembler PC v7.4.2 Sat Sep 26 11:10:16 2015

Tools Copyright (c) 1996-2012 Texas Instruments Incorporated
package/lib/Regression/regress_d_c/./../packages/ti/vlib/src/VLIB_haarDetectObjectsDense/VLIB_haarDetectObjectsDense_d.se66 PAGE   44

    2366                    ;** 201 -----------------------    free((void *)objectPos_cn);
    2367                    ;** 51  -----------------------    U$12 += 48;
    2368                    ;** 51  -----------------------    if ( test_cases > (++tpi) ) goto g3;
    2369                            .dwpsn  file "./../packages/ti/vlib/src/VLIB_haarDetectObjectsDense/VLIB_haarDetectObjectsDens
    2370 00000710 01850162             ADDKPC  .S2     $C$RL33,B3,0      ; |192| 
    2371                    $C$RL33:   ; CALL OCCURS {VLIB_free} {0}     ; |192| 
    2372                    $C$DW$L$VLIB_haarDetectObjectsDense_d$39$E:
    2373                    ;** --------------------------------------------------------------------------*
    2374                    $C$DW$L$VLIB_haarDetectObjectsDense_d$40$B:
    2375                    ;          EXCLUSIVE CPU CYCLES: 54
    2376                    $C$DW$189       .dwtag  DW_TAG_TI_branch
    2377                            .dwattr $C$DW$189, DW_AT_low_pc(0x00)
    2378                            .dwattr $C$DW$189, DW_AT_name("VLIB_free")
    2379                            .dwattr $C$DW$189, DW_AT_TI_call
    2380                    
    2381 00000714 10000013!            CALLP   .S2     VLIB_free,B3
    2382 00000718 023d02e4  ||         LDW     .D2T1   *+SP(32),A4       ; |193| 
    2383                    
    2384                            .dwpsn  file "./../packages/ti/vlib/src/VLIB_haarDetectObjectsDense/VLIB_haarDetectObjectsDens
    2385                    ;----------------------------------------------------------------------
    2386                    ; 193 | VLIB_free(scratch1);                                                   
    2387                    ;----------------------------------------------------------------------
    2388                    $C$RL34:   ; CALL OCCURS {VLIB_free} {0}     ; |193| 
    2389                    $C$DW$190       .dwtag  DW_TAG_TI_branch
    2390                            .dwattr $C$DW$190, DW_AT_low_pc(0x00)
    2391                            .dwattr $C$DW$190, DW_AT_name("VLIB_free")
    2392                            .dwattr $C$DW$190, DW_AT_TI_call
    2393                    
    2394 00000720 10000013!            CALLP   .S2     VLIB_free,B3
    2395 00000724 023d22e4  ||         LDW     .D2T1   *+SP(36),A4       ; |194| 
    2396                    
    2397                            .dwpsn  file "./../packages/ti/vlib/src/VLIB_haarDetectObjectsDense/VLIB_haarDetectObjectsDens
    2398                    ;----------------------------------------------------------------------
    2399                    ; 194 | VLIB_free(scratch2);                                                   
    2400                    ;----------------------------------------------------------------------
    2401                    $C$RL35:   ; CALL OCCURS {VLIB_free} {0}     ; |194| 
    2402                    $C$DW$191       .dwtag  DW_TAG_TI_branch
    2403                            .dwattr $C$DW$191, DW_AT_low_pc(0x00)
    2404                            .dwattr $C$DW$191, DW_AT_name("free")
    2405                            .dwattr $C$DW$191, DW_AT_TI_call
    2406                    
    2407 00000728 10000013!            CALLP   .S2     free,B3
    2408 0000072c 023d62e4  ||         LDW     .D2T1   *+SP(44),A4       ; |195| 
    2409                    
    2410                            .dwpsn  file "./../packages/ti/vlib/src/VLIB_haarDetectObjectsDense/VLIB_haarDetectObjectsDens
    2411                    ;----------------------------------------------------------------------
    2412                    ; 195 | free(intImageA);                                                       
    2413                    ;----------------------------------------------------------------------
    2414                    $C$RL36:   ; CALL OCCURS {free} {0}          ; |195| 
    2415                    $C$DW$192       .dwtag  DW_TAG_TI_branch
    2416                            .dwattr $C$DW$192, DW_AT_low_pc(0x00)
    2417                            .dwattr $C$DW$192, DW_AT_name("free")
    2418                            .dwattr $C$DW$192, DW_AT_TI_call
    2419                    
    2420 00000730 10000013!            CALLP   .S2     free,B3
TMS320C6x Assembler PC v7.4.2 Sat Sep 26 11:10:16 2015

Tools Copyright (c) 1996-2012 Texas Instruments Incorporated
package/lib/Regression/regress_d_c/./../packages/ti/vlib/src/VLIB_haarDetectObjectsDense/VLIB_haarDetectObjectsDense_d.se66 PAGE   45

    2421 00000734 023e22e4  ||         LDW     .D2T1   *+SP(68),A4       ; |196| 
    2422                    
    2423                            .dwpsn  file "./../packages/ti/vlib/src/VLIB_haarDetectObjectsDense/VLIB_haarDetectObjectsDens
    2424                    ;----------------------------------------------------------------------
    2425                    ; 196 | free(intImageNAL);                                                     
    2426                    ;----------------------------------------------------------------------
    2427                    $C$RL37:   ; CALL OCCURS {free} {0}          ; |196| 
    2428                    $C$DW$193       .dwtag  DW_TAG_TI_branch
    2429                            .dwattr $C$DW$193, DW_AT_low_pc(0x00)
    2430                            .dwattr $C$DW$193, DW_AT_name("free")
    2431                            .dwattr $C$DW$193, DW_AT_TI_call
    2432                    
    2433 00000738 10000013!            CALLP   .S2     free,B3
    2434 0000073c 023d42e4  ||         LDW     .D2T1   *+SP(40),A4       ; |197| 
    2435                    
    2436                            .dwpsn  file "./../packages/ti/vlib/src/VLIB_haarDetectObjectsDense/VLIB_haarDetectObjectsDens
    2437                    ;----------------------------------------------------------------------
    2438                    ; 197 | free(classifier);                                                      
    2439                    ;----------------------------------------------------------------------
    2440                    $C$RL38:   ; CALL OCCURS {free} {0}          ; |197| 
    2441                    $C$DW$194       .dwtag  DW_TAG_TI_branch
    2442                            .dwattr $C$DW$194, DW_AT_low_pc(0x00)
    2443                            .dwattr $C$DW$194, DW_AT_name("free")
    2444                            .dwattr $C$DW$194, DW_AT_TI_call
    2445                    
    2446 00000740 10000013!            CALLP   .S2     free,B3
    2447 00000744 023d82e4  ||         LDW     .D2T1   *+SP(48),A4       ; |198| 
    2448                    
    2449                            .dwpsn  file "./../packages/ti/vlib/src/VLIB_haarDetectObjectsDense/VLIB_haarDetectObjectsDens
    2450                    ;----------------------------------------------------------------------
    2451                    ; 198 | free(classifier_cn);                                                   
    2452                    ;----------------------------------------------------------------------
    2453                    $C$RL39:   ; CALL OCCURS {free} {0}          ; |198| 
    2454                    $C$DW$195       .dwtag  DW_TAG_TI_branch
    2455                            .dwattr $C$DW$195, DW_AT_low_pc(0x00)
    2456                            .dwattr $C$DW$195, DW_AT_name("free")
    2457                            .dwattr $C$DW$195, DW_AT_TI_call
    2458                    
    2459 00000748 10000013!            CALLP   .S2     free,B3
    2460 0000074c 023da2e4  ||         LDW     .D2T1   *+SP(52),A4       ; |199| 
    2461                    
    2462                            .dwpsn  file "./../packages/ti/vlib/src/VLIB_haarDetectObjectsDense/VLIB_haarDetectObjectsDens
    2463                    ;----------------------------------------------------------------------
    2464                    ; 199 | free(outObjList_cn);                                                   
    2465                    ;----------------------------------------------------------------------
    2466                    $C$RL40:   ; CALL OCCURS {free} {0}          ; |199| 
    2467                    $C$DW$196       .dwtag  DW_TAG_TI_branch
    2468                            .dwattr $C$DW$196, DW_AT_low_pc(0x00)
    2469                            .dwattr $C$DW$196, DW_AT_name("free")
    2470                            .dwattr $C$DW$196, DW_AT_TI_call
    2471                    
    2472 00000750 10000013!            CALLP   .S2     free,B3
    2473 00000754 023dc2e4  ||         LDW     .D2T1   *+SP(56),A4       ; |200| 
    2474                    
    2475                            .dwpsn  file "./../packages/ti/vlib/src/VLIB_haarDetectObjectsDense/VLIB_haarDetectObjectsDens
TMS320C6x Assembler PC v7.4.2 Sat Sep 26 11:10:16 2015

Tools Copyright (c) 1996-2012 Texas Instruments Incorporated
package/lib/Regression/regress_d_c/./../packages/ti/vlib/src/VLIB_haarDetectObjectsDense/VLIB_haarDetectObjectsDense_d.se66 PAGE   46

    2476                    ;----------------------------------------------------------------------
    2477                    ; 200 | free(objectPos);                                                       
    2478                    ;----------------------------------------------------------------------
    2479                    $C$RL41:   ; CALL OCCURS {free} {0}          ; |200| 
    2480                    $C$DW$197       .dwtag  DW_TAG_TI_branch
    2481                            .dwattr $C$DW$197, DW_AT_low_pc(0x00)
    2482                            .dwattr $C$DW$197, DW_AT_name("free")
    2483                            .dwattr $C$DW$197, DW_AT_TI_call
    2484                    
    2485 00000758 10000013!            CALLP   .S2     free,B3
    2486 0000075c 023de2e4  ||         LDW     .D2T1   *+SP(60),A4       ; |201| 
    2487                    
    2488                            .dwpsn  file "./../packages/ti/vlib/src/VLIB_haarDetectObjectsDense/VLIB_haarDetectObjectsDens
    2489                    ;----------------------------------------------------------------------
    2490                    ; 201 | free(objectPos_cn);                                                    
    2491                    ;----------------------------------------------------------------------
    2492 00000760           $C$RL42:   ; CALL OCCURS {free} {0}          ; |201| 
    2493 00000760           $C$DW$L$VLIB_haarDetectObjectsDense_d$40$E:
    2494                    ;** --------------------------------------------------------------------------*
    2495 00000760           $C$DW$L$VLIB_haarDetectObjectsDense_d$41$B:
    2496                    ;          EXCLUSIVE CPU CYCLES: 14
    2497 00000760 01800028!            MVKL    .S1     test_cases,A3
    2498 00000764 01800068!            MVKH    .S1     test_cases,A3
    2499                            .dwpsn  file "./../packages/ti/vlib/src/VLIB_haarDetectObjectsDense/VLIB_haarDetectObjectsDens
    2500 00000768 018c0264             LDW     .D1T1   *A3,A3            ; |51| 
    2501 0000076c 05801852             ADDK    .S2     48,B11            ; |51| 
    2502 00000770 07bc2058             ADD     .L1     1,A15,A15         ; |51| 
    2503 00000774 00002000             NOP             2
    2504 00000778 003c68f8             CMPGT   .L1     A3,A15,A0         ; |51| 
    2505                    
    2506 0000077c ce494123     [ A0]   BNOP    .S2     $C$L1,2           ; |51| 
    2507 00000780 c5801851  || [ A0]   ADDK    .S1     48,A11            ; |56| 
    2508 00000784 c220a358  || [ A0]   MVK     .L1     0x8,A4            ; |62| 
    2509                    
    2510                            .dwpsn  file "./../packages/ti/vlib/src/VLIB_haarDetectObjectsDense/VLIB_haarDetectObjectsDens
    2511 00000788 c52c8264     [ A0]   LDW     .D1T1   *+A11(16),A10     ; |58| 
    2512                            .dwpsn  file "./../packages/ti/vlib/src/VLIB_haarDetectObjectsDense/VLIB_haarDetectObjectsDens
    2513 0000078c c62c4266     [ A0]   LDW     .D1T2   *+A11(8),B12      ; |56| 
    2514                            .dwpsn  file "./../packages/ti/vlib/src/VLIB_haarDetectObjectsDense/VLIB_haarDetectObjectsDens
    2515 00000790 c6ac6264     [ A0]   LDW     .D1T1   *+A11(12),A13     ; |57| 
    2516                            .dwpsn  file "./../packages/ti/vlib/src/VLIB_haarDetectObjectsDense/VLIB_haarDetectObjectsDens
    2517                               ; BRANCHCC OCCURS {$C$L1}         ; |51| 
    2518 00000794           $C$DW$L$VLIB_haarDetectObjectsDense_d$41$E:
    2519                    ;** --------------------------------------------------------------------------*
    2520 00000794           $C$L17:    
    2521                    ;          EXCLUSIVE CPU CYCLES: 7
    2522                    ;**     -----------------------g24:
    2523                    ;** 206 -----------------------    VLIB_profile_setMode(1, 2, "Only One Copy of Integral Image in Use"
    2524                    ;** 207 -----------------------    VLIB_profile_cycle_report(2, C$7 = "N = Number of Trees Executed Fo
    2525                    ;** 211 -----------------------    VLIB_profile_setMode(2, 2, "Two Copy of Integral Image in Use", 1);
    2526                    ;** 212 -----------------------    VLIB_profile_cycle_report(2, C$7, C$8);
    2527                    ;** 161 -----------------------    printf((const char *)"---------------------------------------------
    2528                    ;** 168 -----------------------    VLIB_stack_memory();  // [19]
    2529                    ;**     -----------------------    return;
    2530 00000794 03000028!            MVKL    .S1     $C$SL7+0,A6
TMS320C6x Assembler PC v7.4.2 Sat Sep 26 11:10:16 2015

Tools Copyright (c) 1996-2012 Texas Instruments Incorporated
package/lib/Regression/regress_d_c/./../packages/ti/vlib/src/VLIB_haarDetectObjectsDense/VLIB_haarDetectObjectsDense_d.se66 PAGE   47

    2531                    $C$DW$198       .dwtag  DW_TAG_TI_branch
    2532                            .dwattr $C$DW$198, DW_AT_low_pc(0x00)
    2533                            .dwattr $C$DW$198, DW_AT_name("VLIB_profile_setMode")
    2534                            .dwattr $C$DW$198, DW_AT_TI_call
    2535                    
    2536 00000798 10000013!            CALLP   .S2     VLIB_profile_setMode,B3
    2537 0000079c 03000069! ||         MVKH    .S1     $C$SL7+0,A6
    2538 000007a0     2626  ||         MVK     .L1     0x1,A4            ; |206| 
    2539 000007a2     4627  ||         MVK     .L2     0x2,B4            ; |206| 
    2540 000007a4 03000042  ||         ZERO    .D2     B6                ; |206| 
    2541                    
    2542                            .dwpsn  file "./../packages/ti/vlib/src/VLIB_haarDetectObjectsDense/VLIB_haarDetectObjectsDens
    2543                    ;----------------------------------------------------------------------
    2544                    ; 206 | VLIB_profile_setMode(1, 2, "Only One Copy of Integral Image in Use", 0)
    2545                    ;     | ; /* Mode 1 */                                                         
    2546                    ;----------------------------------------------------------------------
    2547 000007a8           $C$RL43:   ; CALL OCCURS {VLIB_profile_setMode} {0}  ; |206| 
    2548                    ;** --------------------------------------------------------------------------*
    2549                    ;          EXCLUSIVE CPU CYCLES: 36
    2550                    
    2551 000007a8 0500002b!            MVKL    .S2     $C$SL9+0,B10
    2552 000007ac 05000028! ||         MVKL    .S1     $C$SL8+0,A10
    2553                    
    2554 000007b0 0500006b!            MVKH    .S2     $C$SL9+0,B10
    2555 000007b4 05000068! ||         MVKH    .S1     $C$SL8+0,A10
    2556                    
    2557                    $C$DW$199       .dwtag  DW_TAG_TI_branch
    2558                            .dwattr $C$DW$199, DW_AT_low_pc(0x00)
    2559                            .dwattr $C$DW$199, DW_AT_name("VLIB_profile_cycle_report")
    2560                            .dwattr $C$DW$199, DW_AT_TI_call
    2561                    
    2562 000007b8 10000013!            CALLP   .S2     VLIB_profile_cycle_report,B3
    2563 000007c0     8507  ||         MV      .L2     B10,B4            ; |207| 
    2564 000007c2     c506  ||         MV      .L1     A10,A6            ; |207| 
    2565 000007c4     4212  ||         MVK     .S1     0x2,A4            ; |207| 
    2566                    
    2567                            .dwpsn  file "./../packages/ti/vlib/src/VLIB_haarDetectObjectsDense/VLIB_haarDetectObjectsDens
    2568                    ;----------------------------------------------------------------------
    2569                    ; 207 | VLIB_profile_cycle_report(vlib_PROFILE_FORMULA_RANGE,                  
    2570                    ; 208 |                           "N = Number of Trees Executed For all Points
    2571                    ;     | in Image",                                                             
    2572                    ; 209 |                           "Number of Trees Executed For all Points in I
    2573                    ;     | mage");                                                                
    2574                    ;----------------------------------------------------------------------
    2575 000007c6           $C$RL44:   ; CALL OCCURS {VLIB_profile_cycle_report} {0}  ; |207| 
    2576                            .dwpsn  file "./../packages/ti/vlib/src/VLIB_haarDetectObjectsDense/VLIB_haarDetectObjectsDens
    2577                    ;----------------------------------------------------------------------
    2578                    ; 211 | VLIB_profile_setMode(2, 2, "Two Copy of Integral Image in Use", 1); /*
    2579                    ;     | Mode 1 */                                                              
    2580                    ;----------------------------------------------------------------------
    2581 000007c6     4627             MVK     .L2     0x2,B4            ; |211| 
    2582 000007c8 03000028!            MVKL    .S1     $C$SL10+0,A6
    2583                    $C$DW$200       .dwtag  DW_TAG_TI_branch
    2584                            .dwattr $C$DW$200, DW_AT_low_pc(0x00)
    2585                            .dwattr $C$DW$200, DW_AT_name("VLIB_profile_setMode")
TMS320C6x Assembler PC v7.4.2 Sat Sep 26 11:10:16 2015

Tools Copyright (c) 1996-2012 Texas Instruments Incorporated
package/lib/Regression/regress_d_c/./../packages/ti/vlib/src/VLIB_haarDetectObjectsDense/VLIB_haarDetectObjectsDense_d.se66 PAGE   48

    2586                            .dwattr $C$DW$200, DW_AT_TI_call
    2587                    
    2588 000007cc 10000013!            CALLP   .S2     VLIB_profile_setMode,B3
    2589 000007d0     9246  ||         MV      .L1X    B4,A4             ; |211| 
    2590 000007d4 03000069! ||         MVKH    .S1     $C$SL10+0,A6
    2591 000007d2     2727  ||         MVK     .L2     0x1,B6            ; |211| 
    2592                    
    2593                    $C$RL45:   ; CALL OCCURS {VLIB_profile_setMode} {0}  ; |211| 
    2594                    $C$DW$201       .dwtag  DW_TAG_TI_branch
    2595                            .dwattr $C$DW$201, DW_AT_low_pc(0x00)
    2596                            .dwattr $C$DW$201, DW_AT_name("VLIB_profile_cycle_report")
    2597                            .dwattr $C$DW$201, DW_AT_TI_call
    2598                    
    2599 000007e0 10000013!            CALLP   .S2     VLIB_profile_cycle_report,B3
    2600 000007e4     8507  ||         MV      .L2     B10,B4            ; |212| 
    2601 000007e6     c506  ||         MV      .L1     A10,A6            ; |212| 
    2602 000007e8 02000128  ||         MVK     .S1     0x2,A4            ; |212| 
    2603                    
    2604                            .dwpsn  file "./../packages/ti/vlib/src/VLIB_haarDetectObjectsDense/VLIB_haarDetectObjectsDens
    2605                    ;----------------------------------------------------------------------
    2606                    ; 212 | VLIB_profile_cycle_report(vlib_PROFILE_FORMULA_RANGE,                  
    2607                    ; 213 |                           "N = Number of Trees Executed For all Points
    2608                    ;     | in Image",                                                             
    2609                    ; 214 |                           "Number of Trees Executed For all Points in I
    2610                    ;     | mage");                                                                
    2611                    ; 217 | VLIB_kernel_memory();                                                  
    2612                    ;----------------------------------------------------------------------
    2613 000007ec           $C$RL46:   ; CALL OCCURS {VLIB_profile_cycle_report} {0}  ; |212| 
    2614 000007ec 0200002a!            MVKL    .S2     $C$SL11+0,B4
    2615 000007f0 0200006a!            MVKH    .S2     $C$SL11+0,B4
    2616                    $C$DW$202       .dwtag  DW_TAG_TI_branch
    2617                            .dwattr $C$DW$202, DW_AT_low_pc(0x00)
    2618                            .dwattr $C$DW$202, DW_AT_name("printf")
    2619                            .dwattr $C$DW$202, DW_AT_TI_call
    2620                    
    2621 000007f4 10000013!            CALLP   .S2     printf,B3
    2622 000007f8 023c22f6  ||         STW     .D2T2   B4,*+SP(4)        ; |161| 
    2623                    
    2624                            .dwpsn  file ".\..\packages\ti\vlib\src\VLIB_haarDetectObjectsDense\../common/VLIB_memory.h",l
    2625                    $C$RL47:   ; CALL OCCURS {printf} {0}        ; |161| 
    2626                    $C$DW$203       .dwtag  DW_TAG_TI_branch
    2627                            .dwattr $C$DW$203, DW_AT_low_pc(0x00)
    2628                            .dwattr $C$DW$203, DW_AT_name("VLIB_stack_memory")
    2629                            .dwattr $C$DW$203, DW_AT_TI_call
    2630 00000800 10000012!            CALLP   .S2     VLIB_stack_memory,B3
    2631                            .dwpsn  file ".\..\packages\ti\vlib\src\VLIB_haarDetectObjectsDense\../common/VLIB_memory.h",l
    2632 00000804           $C$RL48:   ; CALL OCCURS {VLIB_stack_memory} {0}  ; |168| 
    2633                    ;** --------------------------------------------------------------------------*
    2634                    ;          EXCLUSIVE CPU CYCLES: 13
    2635                            .dwpsn  file "./../packages/ti/vlib/src/VLIB_haarDetectObjectsDense/VLIB_haarDetectObjectsDens
    2636 00000804 01be92e6             LDW     .D2T2   *++SP(80),B3      ; |218| 
    2637                            .dwcfi  cfa_offset, 48
    2638                            .dwcfi  restore_reg, 19
    2639 00000808     c677             LDDW    .D2T1   *++SP,A13:A12
    2640                            .dwcfi  cfa_offset, 40
TMS320C6x Assembler PC v7.4.2 Sat Sep 26 11:10:16 2015

Tools Copyright (c) 1996-2012 Texas Instruments Incorporated
package/lib/Regression/regress_d_c/./../packages/ti/vlib/src/VLIB_haarDetectObjectsDense/VLIB_haarDetectObjectsDense_d.se66 PAGE   49

    2641                            .dwcfi  restore_reg, 13
    2642                            .dwcfi  restore_reg, 12
    2643 0000080a     c777             LDDW    .D2T1   *++SP,A15:A14
    2644                            .dwcfi  cfa_offset, 32
    2645                            .dwcfi  restore_reg, 15
    2646                            .dwcfi  restore_reg, 14
    2647 0000080c     d577             LDDW    .D2T2   *++SP,B11:B10
    2648                            .dwcfi  cfa_offset, 24
    2649                            .dwcfi  restore_reg, 27
    2650                            .dwcfi  restore_reg, 26
    2651 0000080e     d677             LDDW    .D2T2   *++SP,B13:B12
    2652                            .dwcfi  cfa_offset, 16
    2653                            .dwcfi  restore_reg, 29
    2654                            .dwcfi  restore_reg, 28
    2655 00000810     6577             LDW     .D2T1   *++SP(8),A10
    2656                            .dwcfi  cfa_offset, 8
    2657                            .dwcfi  restore_reg, 10
    2658 00000812     65f7             LDW     .D2T1   *++SP(8),A11      ; |218| 
    2659                            .dwcfi  cfa_offset, 0
    2660                            .dwcfi  restore_reg, 11
    2661                            .dwcfi  cfa_offset, 0
    2662                    $C$DW$204       .dwtag  DW_TAG_TI_branch
    2663                            .dwattr $C$DW$204, DW_AT_low_pc(0x00)
    2664                            .dwattr $C$DW$204, DW_AT_TI_return
    2665 00000814 008ca362             RETNOP  .S2     B3,5
    2666                               ; BRANCH OCCURS {B3}  
    2667                    
    2668                    $C$DW$205       .dwtag  DW_TAG_TI_loop
    2669                            .dwattr $C$DW$205, DW_AT_name("c:\nightlybuilds\vlib\ti\vlib\vlib\examples\package/lib/Regress
    2670                            .dwattr $C$DW$205, DW_AT_TI_begin_file("./../packages/ti/vlib/src/VLIB_haarDetectObjectsDense/
    2671                            .dwattr $C$DW$205, DW_AT_TI_begin_line(0x33)
    2672                            .dwattr $C$DW$205, DW_AT_TI_end_line(0xcb)
    2673                    $C$DW$206       .dwtag  DW_TAG_TI_loop_range
    2674                            .dwattr $C$DW$206, DW_AT_low_pc($C$DW$L$VLIB_haarDetectObjectsDense_d$4$B)
    2675                            .dwattr $C$DW$206, DW_AT_high_pc($C$DW$L$VLIB_haarDetectObjectsDense_d$4$E)
    2676                    $C$DW$207       .dwtag  DW_TAG_TI_loop_range
    2677                            .dwattr $C$DW$207, DW_AT_low_pc($C$DW$L$VLIB_haarDetectObjectsDense_d$37$B)
    2678                            .dwattr $C$DW$207, DW_AT_high_pc($C$DW$L$VLIB_haarDetectObjectsDense_d$37$E)
    2679                    $C$DW$208       .dwtag  DW_TAG_TI_loop_range
    2680                            .dwattr $C$DW$208, DW_AT_low_pc($C$DW$L$VLIB_haarDetectObjectsDense_d$31$B)
    2681                            .dwattr $C$DW$208, DW_AT_high_pc($C$DW$L$VLIB_haarDetectObjectsDense_d$31$E)
    2682                    $C$DW$209       .dwtag  DW_TAG_TI_loop_range
    2683                            .dwattr $C$DW$209, DW_AT_low_pc($C$DW$L$VLIB_haarDetectObjectsDense_d$32$B)
    2684                            .dwattr $C$DW$209, DW_AT_high_pc($C$DW$L$VLIB_haarDetectObjectsDense_d$32$E)
    2685                    $C$DW$210       .dwtag  DW_TAG_TI_loop_range
    2686                            .dwattr $C$DW$210, DW_AT_low_pc($C$DW$L$VLIB_haarDetectObjectsDense_d$20$B)
    2687                            .dwattr $C$DW$210, DW_AT_high_pc($C$DW$L$VLIB_haarDetectObjectsDense_d$20$E)
    2688                    $C$DW$211       .dwtag  DW_TAG_TI_loop_range
    2689                            .dwattr $C$DW$211, DW_AT_low_pc($C$DW$L$VLIB_haarDetectObjectsDense_d$19$B)
    2690                            .dwattr $C$DW$211, DW_AT_high_pc($C$DW$L$VLIB_haarDetectObjectsDense_d$19$E)
    2691                    $C$DW$212       .dwtag  DW_TAG_TI_loop_range
    2692                            .dwattr $C$DW$212, DW_AT_low_pc($C$DW$L$VLIB_haarDetectObjectsDense_d$21$B)
    2693                            .dwattr $C$DW$212, DW_AT_high_pc($C$DW$L$VLIB_haarDetectObjectsDense_d$21$E)
    2694                    $C$DW$213       .dwtag  DW_TAG_TI_loop_range
    2695                            .dwattr $C$DW$213, DW_AT_low_pc($C$DW$L$VLIB_haarDetectObjectsDense_d$5$B)
TMS320C6x Assembler PC v7.4.2 Sat Sep 26 11:10:16 2015

Tools Copyright (c) 1996-2012 Texas Instruments Incorporated
package/lib/Regression/regress_d_c/./../packages/ti/vlib/src/VLIB_haarDetectObjectsDense/VLIB_haarDetectObjectsDense_d.se66 PAGE   50

    2696                            .dwattr $C$DW$213, DW_AT_high_pc($C$DW$L$VLIB_haarDetectObjectsDense_d$5$E)
    2697                    $C$DW$214       .dwtag  DW_TAG_TI_loop_range
    2698                            .dwattr $C$DW$214, DW_AT_low_pc($C$DW$L$VLIB_haarDetectObjectsDense_d$6$B)
    2699                            .dwattr $C$DW$214, DW_AT_high_pc($C$DW$L$VLIB_haarDetectObjectsDense_d$6$E)
    2700                    $C$DW$215       .dwtag  DW_TAG_TI_loop_range
    2701                            .dwattr $C$DW$215, DW_AT_low_pc($C$DW$L$VLIB_haarDetectObjectsDense_d$7$B)
    2702                            .dwattr $C$DW$215, DW_AT_high_pc($C$DW$L$VLIB_haarDetectObjectsDense_d$7$E)
    2703                    $C$DW$216       .dwtag  DW_TAG_TI_loop_range
    2704                            .dwattr $C$DW$216, DW_AT_low_pc($C$DW$L$VLIB_haarDetectObjectsDense_d$8$B)
    2705                            .dwattr $C$DW$216, DW_AT_high_pc($C$DW$L$VLIB_haarDetectObjectsDense_d$8$E)
    2706                    $C$DW$217       .dwtag  DW_TAG_TI_loop_range
    2707                            .dwattr $C$DW$217, DW_AT_low_pc($C$DW$L$VLIB_haarDetectObjectsDense_d$9$B)
    2708                            .dwattr $C$DW$217, DW_AT_high_pc($C$DW$L$VLIB_haarDetectObjectsDense_d$9$E)
    2709                    $C$DW$218       .dwtag  DW_TAG_TI_loop_range
    2710                            .dwattr $C$DW$218, DW_AT_low_pc($C$DW$L$VLIB_haarDetectObjectsDense_d$10$B)
    2711                            .dwattr $C$DW$218, DW_AT_high_pc($C$DW$L$VLIB_haarDetectObjectsDense_d$10$E)
    2712                    $C$DW$219       .dwtag  DW_TAG_TI_loop_range
    2713                            .dwattr $C$DW$219, DW_AT_low_pc($C$DW$L$VLIB_haarDetectObjectsDense_d$11$B)
    2714                            .dwattr $C$DW$219, DW_AT_high_pc($C$DW$L$VLIB_haarDetectObjectsDense_d$11$E)
    2715                    $C$DW$220       .dwtag  DW_TAG_TI_loop_range
    2716                            .dwattr $C$DW$220, DW_AT_low_pc($C$DW$L$VLIB_haarDetectObjectsDense_d$12$B)
    2717                            .dwattr $C$DW$220, DW_AT_high_pc($C$DW$L$VLIB_haarDetectObjectsDense_d$12$E)
    2718                    $C$DW$221       .dwtag  DW_TAG_TI_loop_range
    2719                            .dwattr $C$DW$221, DW_AT_low_pc($C$DW$L$VLIB_haarDetectObjectsDense_d$13$B)
    2720                            .dwattr $C$DW$221, DW_AT_high_pc($C$DW$L$VLIB_haarDetectObjectsDense_d$13$E)
    2721                    $C$DW$222       .dwtag  DW_TAG_TI_loop_range
    2722                            .dwattr $C$DW$222, DW_AT_low_pc($C$DW$L$VLIB_haarDetectObjectsDense_d$14$B)
    2723                            .dwattr $C$DW$222, DW_AT_high_pc($C$DW$L$VLIB_haarDetectObjectsDense_d$14$E)
    2724                    $C$DW$223       .dwtag  DW_TAG_TI_loop_range
    2725                            .dwattr $C$DW$223, DW_AT_low_pc($C$DW$L$VLIB_haarDetectObjectsDense_d$18$B)
    2726                            .dwattr $C$DW$223, DW_AT_high_pc($C$DW$L$VLIB_haarDetectObjectsDense_d$18$E)
    2727                    $C$DW$224       .dwtag  DW_TAG_TI_loop_range
    2728                            .dwattr $C$DW$224, DW_AT_low_pc($C$DW$L$VLIB_haarDetectObjectsDense_d$22$B)
    2729                            .dwattr $C$DW$224, DW_AT_high_pc($C$DW$L$VLIB_haarDetectObjectsDense_d$22$E)
    2730                    $C$DW$225       .dwtag  DW_TAG_TI_loop_range
    2731                            .dwattr $C$DW$225, DW_AT_low_pc($C$DW$L$VLIB_haarDetectObjectsDense_d$23$B)
    2732                            .dwattr $C$DW$225, DW_AT_high_pc($C$DW$L$VLIB_haarDetectObjectsDense_d$23$E)
    2733                    $C$DW$226       .dwtag  DW_TAG_TI_loop_range
    2734                            .dwattr $C$DW$226, DW_AT_low_pc($C$DW$L$VLIB_haarDetectObjectsDense_d$24$B)
    2735                            .dwattr $C$DW$226, DW_AT_high_pc($C$DW$L$VLIB_haarDetectObjectsDense_d$24$E)
    2736                    $C$DW$227       .dwtag  DW_TAG_TI_loop_range
    2737                            .dwattr $C$DW$227, DW_AT_low_pc($C$DW$L$VLIB_haarDetectObjectsDense_d$25$B)
    2738                            .dwattr $C$DW$227, DW_AT_high_pc($C$DW$L$VLIB_haarDetectObjectsDense_d$25$E)
    2739                    $C$DW$228       .dwtag  DW_TAG_TI_loop_range
    2740                            .dwattr $C$DW$228, DW_AT_low_pc($C$DW$L$VLIB_haarDetectObjectsDense_d$29$B)
    2741                            .dwattr $C$DW$228, DW_AT_high_pc($C$DW$L$VLIB_haarDetectObjectsDense_d$29$E)
    2742                    $C$DW$229       .dwtag  DW_TAG_TI_loop_range
    2743                            .dwattr $C$DW$229, DW_AT_low_pc($C$DW$L$VLIB_haarDetectObjectsDense_d$30$B)
    2744                            .dwattr $C$DW$229, DW_AT_high_pc($C$DW$L$VLIB_haarDetectObjectsDense_d$30$E)
    2745                    $C$DW$230       .dwtag  DW_TAG_TI_loop_range
    2746                            .dwattr $C$DW$230, DW_AT_low_pc($C$DW$L$VLIB_haarDetectObjectsDense_d$33$B)
    2747                            .dwattr $C$DW$230, DW_AT_high_pc($C$DW$L$VLIB_haarDetectObjectsDense_d$33$E)
    2748                    $C$DW$231       .dwtag  DW_TAG_TI_loop_range
    2749                            .dwattr $C$DW$231, DW_AT_low_pc($C$DW$L$VLIB_haarDetectObjectsDense_d$34$B)
    2750                            .dwattr $C$DW$231, DW_AT_high_pc($C$DW$L$VLIB_haarDetectObjectsDense_d$34$E)
TMS320C6x Assembler PC v7.4.2 Sat Sep 26 11:10:16 2015

Tools Copyright (c) 1996-2012 Texas Instruments Incorporated
package/lib/Regression/regress_d_c/./../packages/ti/vlib/src/VLIB_haarDetectObjectsDense/VLIB_haarDetectObjectsDense_d.se66 PAGE   51

    2751                    $C$DW$232       .dwtag  DW_TAG_TI_loop_range
    2752                            .dwattr $C$DW$232, DW_AT_low_pc($C$DW$L$VLIB_haarDetectObjectsDense_d$35$B)
    2753                            .dwattr $C$DW$232, DW_AT_high_pc($C$DW$L$VLIB_haarDetectObjectsDense_d$35$E)
    2754                    $C$DW$233       .dwtag  DW_TAG_TI_loop_range
    2755                            .dwattr $C$DW$233, DW_AT_low_pc($C$DW$L$VLIB_haarDetectObjectsDense_d$36$B)
    2756                            .dwattr $C$DW$233, DW_AT_high_pc($C$DW$L$VLIB_haarDetectObjectsDense_d$36$E)
    2757                    $C$DW$234       .dwtag  DW_TAG_TI_loop_range
    2758                            .dwattr $C$DW$234, DW_AT_low_pc($C$DW$L$VLIB_haarDetectObjectsDense_d$38$B)
    2759                            .dwattr $C$DW$234, DW_AT_high_pc($C$DW$L$VLIB_haarDetectObjectsDense_d$38$E)
    2760                    $C$DW$235       .dwtag  DW_TAG_TI_loop_range
    2761                            .dwattr $C$DW$235, DW_AT_low_pc($C$DW$L$VLIB_haarDetectObjectsDense_d$39$B)
    2762                            .dwattr $C$DW$235, DW_AT_high_pc($C$DW$L$VLIB_haarDetectObjectsDense_d$39$E)
    2763                    $C$DW$236       .dwtag  DW_TAG_TI_loop_range
    2764                            .dwattr $C$DW$236, DW_AT_low_pc($C$DW$L$VLIB_haarDetectObjectsDense_d$40$B)
    2765                            .dwattr $C$DW$236, DW_AT_high_pc($C$DW$L$VLIB_haarDetectObjectsDense_d$40$E)
    2766                    $C$DW$237       .dwtag  DW_TAG_TI_loop_range
    2767                            .dwattr $C$DW$237, DW_AT_low_pc($C$DW$L$VLIB_haarDetectObjectsDense_d$41$B)
    2768                            .dwattr $C$DW$237, DW_AT_high_pc($C$DW$L$VLIB_haarDetectObjectsDense_d$41$E)
    2769                    
    2770                    $C$DW$238       .dwtag  DW_TAG_TI_loop
    2771                            .dwattr $C$DW$238, DW_AT_name("c:\nightlybuilds\vlib\ti\vlib\vlib\examples\package/lib/Regress
    2772                            .dwattr $C$DW$238, DW_AT_TI_begin_file("./../packages/ti/vlib/src/VLIB_haarDetectObjectsDense/
    2773                            .dwattr $C$DW$238, DW_AT_TI_begin_line(0x96)
    2774                            .dwattr $C$DW$238, DW_AT_TI_end_line(0x9e)
    2775                    $C$DW$239       .dwtag  DW_TAG_TI_loop_range
    2776                            .dwattr $C$DW$239, DW_AT_low_pc($C$DW$L$VLIB_haarDetectObjectsDense_d$16$B)
    2777                            .dwattr $C$DW$239, DW_AT_high_pc($C$DW$L$VLIB_haarDetectObjectsDense_d$16$E)
    2778                            .dwendtag $C$DW$238
    2779                    
    2780                    
    2781                    $C$DW$240       .dwtag  DW_TAG_TI_loop
    2782                            .dwattr $C$DW$240, DW_AT_name("c:\nightlybuilds\vlib\ti\vlib\vlib\examples\package/lib/Regress
    2783                            .dwattr $C$DW$240, DW_AT_TI_begin_file("./../packages/ti/vlib/src/VLIB_haarDetectObjectsDense/
    2784                            .dwattr $C$DW$240, DW_AT_TI_begin_line(0xa2)
    2785                            .dwattr $C$DW$240, DW_AT_TI_end_line(0xaa)
    2786                    $C$DW$241       .dwtag  DW_TAG_TI_loop_range
    2787                            .dwattr $C$DW$241, DW_AT_low_pc($C$DW$L$VLIB_haarDetectObjectsDense_d$27$B)
    2788                            .dwattr $C$DW$241, DW_AT_high_pc($C$DW$L$VLIB_haarDetectObjectsDense_d$27$E)
    2789                            .dwendtag $C$DW$240
    2790                    
    2791                            .dwendtag $C$DW$205
    2792                    
    2793                            .dwattr $C$DW$100, DW_AT_TI_end_file("./../packages/ti/vlib/src/VLIB_haarDetectObjectsDense/VL
    2794                            .dwattr $C$DW$100, DW_AT_TI_end_line(0xda)
    2795                            .dwattr $C$DW$100, DW_AT_TI_end_column(0x01)
    2796                            .dwendentry
    2797                            .dwendtag $C$DW$100
    2798                    
    2799                    ;; Inlined function references:
    2800                    ;; [ 16] VLIB_profile_start
    2801                    ;; [ 17] VLIB_profile_stop
    2802                    ;; [ 19] VLIB_kernel_memory
    2803                    ;******************************************************************************
    2804                    ;* STRINGS                                                                    *
    2805                    ;******************************************************************************
TMS320C6x Assembler PC v7.4.2 Sat Sep 26 11:10:16 2015

Tools Copyright (c) 1996-2012 Texas Instruments Incorporated
package/lib/Regression/regress_d_c/./../packages/ti/vlib/src/VLIB_haarDetectObjectsDense/VLIB_haarDetectObjectsDense_d.se66 PAGE   52

    2806 00000000                   .sect   ".const:.string"
    2807 00000000 00000056  $C$SL1: .string "VLIB_haarDetectObjectsDense",0
         00000001 0000004C 
         00000002 00000049 
         00000003 00000042 
         00000004 0000005F 
         00000005 00000068 
         00000006 00000061 
         00000007 00000061 
         00000008 00000072 
         00000009 00000044 
         0000000a 00000065 
         0000000b 00000074 
         0000000c 00000065 
         0000000d 00000063 
         0000000e 00000074 
         0000000f 0000004F 
         00000010 00000062 
         00000011 0000006A 
         00000012 00000065 
         00000013 00000063 
         00000014 00000074 
         00000015 00000073 
         00000016 00000044 
         00000017 00000065 
         00000018 0000006E 
         00000019 00000073 
         0000001a 00000065 
         0000001b 00000000 
    2808 0000001c 00000020  $C$SL2: .string " Mismatch With Number of Trees Executed totTreeExec = %d, t"
         0000001d 0000004D 
         0000001e 00000069 
         0000001f 00000073 
         00000020 0000006D 
         00000021 00000061 
         00000022 00000074 
         00000023 00000063 
         00000024 00000068 
         00000025 00000020 
         00000026 00000057 
         00000027 00000069 
         00000028 00000074 
         00000029 00000068 
         0000002a 00000020 
         0000002b 0000004E 
         0000002c 00000075 
         0000002d 0000006D 
         0000002e 00000062 
         0000002f 00000065 
         00000030 00000072 
         00000031 00000020 
         00000032 0000006F 
         00000033 00000066 
         00000034 00000020 
         00000035 00000054 
TMS320C6x Assembler PC v7.4.2 Sat Sep 26 11:10:16 2015

Tools Copyright (c) 1996-2012 Texas Instruments Incorporated
package/lib/Regression/regress_d_c/./../packages/ti/vlib/src/VLIB_haarDetectObjectsDense/VLIB_haarDetectObjectsDense_d.se66 PAGE   53

         00000036 00000072 
         00000037 00000065 
         00000038 00000065 
         00000039 00000073 
         0000003a 00000020 
         0000003b 00000045 
         0000003c 00000078 
         0000003d 00000065 
         0000003e 00000063 
         0000003f 00000075 
         00000040 00000074 
         00000041 00000065 
         00000042 00000064 
         00000043 00000020 
         00000044 00000074 
         00000045 0000006F 
         00000046 00000074 
         00000047 00000054 
         00000048 00000072 
         00000049 00000065 
         0000004a 00000065 
         0000004b 00000045 
         0000004c 00000078 
         0000004d 00000065 
         0000004e 00000063 
         0000004f 00000020 
         00000050 0000003D 
         00000051 00000020 
         00000052 00000025 
         00000053 00000064 
         00000054 0000002C 
         00000055 00000020 
         00000056 00000074 
    2809 00000057 0000006F          .string "otTreeExec_cn = %d ",10,0
         00000058 00000074 
         00000059 00000054 
         0000005a 00000072 
         0000005b 00000065 
         0000005c 00000065 
         0000005d 00000045 
         0000005e 00000078 
         0000005f 00000065 
         00000060 00000063 
         00000061 0000005F 
         00000062 00000063 
         00000063 0000006E 
         00000064 00000020 
         00000065 0000003D 
         00000066 00000020 
         00000067 00000025 
         00000068 00000064 
         00000069 00000020 
         0000006a 0000000A 
         0000006b 00000000 
    2810 0000006c 00000020  $C$SL3: .string " Mismatch With Reference in Object Number = %u ",10,0
TMS320C6x Assembler PC v7.4.2 Sat Sep 26 11:10:16 2015

Tools Copyright (c) 1996-2012 Texas Instruments Incorporated
package/lib/Regression/regress_d_c/./../packages/ti/vlib/src/VLIB_haarDetectObjectsDense/VLIB_haarDetectObjectsDense_d.se66 PAGE   54

         0000006d 0000004D 
         0000006e 00000069 
         0000006f 00000073 
         00000070 0000006D 
         00000071 00000061 
         00000072 00000074 
         00000073 00000063 
         00000074 00000068 
         00000075 00000020 
         00000076 00000057 
         00000077 00000069 
         00000078 00000074 
         00000079 00000068 
         0000007a 00000020 
         0000007b 00000052 
         0000007c 00000065 
         0000007d 00000066 
         0000007e 00000065 
         0000007f 00000072 
         00000080 00000065 
         00000081 0000006E 
         00000082 00000063 
         00000083 00000065 
         00000084 00000020 
         00000085 00000069 
         00000086 0000006E 
         00000087 00000020 
         00000088 0000004F 
         00000089 00000062 
         0000008a 0000006A 
         0000008b 00000065 
         0000008c 00000063 
         0000008d 00000074 
         0000008e 00000020 
         0000008f 0000004E 
         00000090 00000075 
         00000091 0000006D 
         00000092 00000062 
         00000093 00000065 
         00000094 00000072 
         00000095 00000020 
         00000096 0000003D 
         00000097 00000020 
         00000098 00000025 
         00000099 00000075 
         0000009a 00000020 
         0000009b 0000000A 
         0000009c 00000000 
    2811 0000009d 00000020  $C$SL4: .string " Mismatch With Static Reference in Object Number = %u ",10,0
         0000009e 0000004D 
         0000009f 00000069 
         000000a0 00000073 
         000000a1 0000006D 
         000000a2 00000061 
         000000a3 00000074 
TMS320C6x Assembler PC v7.4.2 Sat Sep 26 11:10:16 2015

Tools Copyright (c) 1996-2012 Texas Instruments Incorporated
package/lib/Regression/regress_d_c/./../packages/ti/vlib/src/VLIB_haarDetectObjectsDense/VLIB_haarDetectObjectsDense_d.se66 PAGE   55

         000000a4 00000063 
         000000a5 00000068 
         000000a6 00000020 
         000000a7 00000057 
         000000a8 00000069 
         000000a9 00000074 
         000000aa 00000068 
         000000ab 00000020 
         000000ac 00000053 
         000000ad 00000074 
         000000ae 00000061 
         000000af 00000074 
         000000b0 00000069 
         000000b1 00000063 
         000000b2 00000020 
         000000b3 00000052 
         000000b4 00000065 
         000000b5 00000066 
         000000b6 00000065 
         000000b7 00000072 
         000000b8 00000065 
         000000b9 0000006E 
         000000ba 00000063 
         000000bb 00000065 
         000000bc 00000020 
         000000bd 00000069 
         000000be 0000006E 
         000000bf 00000020 
         000000c0 0000004F 
         000000c1 00000062 
         000000c2 0000006A 
         000000c3 00000065 
         000000c4 00000063 
         000000c5 00000074 
         000000c6 00000020 
         000000c7 0000004E 
         000000c8 00000075 
         000000c9 0000006D 
         000000ca 00000062 
         000000cb 00000065 
         000000cc 00000072 
         000000cd 00000020 
         000000ce 0000003D 
         000000cf 00000020 
         000000d0 00000025 
         000000d1 00000075 
         000000d2 00000020 
         000000d3 0000000A 
         000000d4 00000000 
    2812 000000d5 00000025  $C$SL5: .string "%s generated input | Opt results compared to NatC results |"
         000000d6 00000073 
         000000d7 00000020 
         000000d8 00000067 
         000000d9 00000065 
         000000da 0000006E 
TMS320C6x Assembler PC v7.4.2 Sat Sep 26 11:10:16 2015

Tools Copyright (c) 1996-2012 Texas Instruments Incorporated
package/lib/Regression/regress_d_c/./../packages/ti/vlib/src/VLIB_haarDetectObjectsDense/VLIB_haarDetectObjectsDense_d.se66 PAGE   56

         000000db 00000065 
         000000dc 00000072 
         000000dd 00000061 
         000000de 00000074 
         000000df 00000065 
         000000e0 00000064 
         000000e1 00000020 
         000000e2 00000069 
         000000e3 0000006E 
         000000e4 00000070 
