******************************************************************************
                  TI ARM Linker Unix v5.2.5                    
******************************************************************************
>> Linked Fri Sep 18 12:50:28 2015

OUTPUT FILE NAME:   <bin/ti_platforms_evmDRA7XX_ipu1/fault.xem4>
ENTRY POINT SYMBOL: "ti_sysbios_family_arm_ducati_Core_reset"  address: 00000009


MEMORY CONFIGURATION

         name            origin    length      used     unused   attr    fill
----------------------  --------  ---------  --------  --------  ----  --------
  L2_ROM                00000000   00004000  000005ec  00003a14  RWIX
  EXT_CODE              00004000   000fc000  00015cc7  000e6339  RW X
  L2_RAM                20000000   00010000  00000000  00010000  RWIX
  OCMC_RAM1             40300000   00080000  00000000  00080000  RWIX
  OCMC_RAM2             40400000   00100000  00000000  00100000  RWIX
  OCMC_RAM3             40500000   00100000  00000000  00100000  RWIX
  EXT_DATA              80000000   00200000  00082ce4  0017d31c  RW  
  EXT_HEAP              80200000   00300000  00000000  00300000  RW  
  TRACE_BUF             9f000000   00060000  00008000  00058000  RW  
  EXC_DATA              9f060000   00010000  00000200  0000fe00  RW  
  PM_DATA               9f070000   00020000  00000000  00020000  RW X


SEGMENT ALLOCATION MAP

run origin  load origin   length   init length attrs members
----------  ----------- ---------- ----------- ----- -------
00000000    00000000    00000050   00000050    r-x
  00000000    00000000    00000050   00000050    r-x .ducatiBoot
00000400    00000400    00000140   00000140    r--
  00000400    00000400    00000140   00000140    r-- .resetVecs
000007f0    000007f0    00000010   00000000    rw-
  000007f0    000007f0    00000010   00000000    rw- .ducatiGates
00003000    00003000    0000044c   0000044c    rw-
  00003000    00003000    0000044c   0000044c    rw- .resource_table
00004000    00004000    00015cd8   00015cd8    r-x
  00004000    00004000    00004bdc   00004bdc    r-x .text.1
  00008bdc    00008bdc    00000004   00000004    r-- .const.1
  00008be0    00008be0    0000076c   0000076c    r-x .text.2
  0000934c    0000934c    00000004   00000004    r-- .const.2
  00009350    00009350    00000254   00000254    r-x .text.3
  000095a4    000095a4    00000004   00000004    r-- .const.3
  000095a8    000095a8    00000244   00000244    r-x .text.4
  000097ec    000097ec    00000004   00000004    r-- .const.4
  000097f0    000097f0    0000047c   0000047c    r-x .text.5
  00009c6c    00009c6c    00000004   00000004    r-- .const.5
  00009c70    00009c70    00000654   00000654    r-x .text.6
  0000a2c4    0000a2c4    00000004   00000004    r-- .const.6
  0000a2c8    0000a2c8    000003ec   000003ec    r-x .text.7
  0000a6b4    0000a6b4    00000004   00000004    r-- .const.7
  0000a6b8    0000a6b8    000001f4   000001f4    r-x .text.8
  0000a8ac    0000a8ac    00000004   00000004    r-- .const.8
  0000a8b0    0000a8b0    000008dc   000008dc    r-x .text.9
  0000b18c    0000b18c    00000004   00000004    r-- .const.9
  0000b190    0000b190    00000304   00000304    r-x .text.10
  0000b494    0000b494    00000004   00000004    r-- .const.10
  0000b498    0000b498    00000464   00000464    r-x .text.11
  0000b8fc    0000b8fc    00000004   00000004    r-- .const.11
  0000b900    0000b900    00000174   00000174    r-x .text.12
  0000ba74    0000ba74    00000004   00000004    r-- .const.12
  0000ba78    0000ba78    0000044c   0000044c    r-x .text.13
  0000bec4    0000bec4    00000004   00000004    r-- .const.13
  0000bec8    0000bec8    00000164   00000164    r-x .text.14
  0000c02c    0000c02c    00000004   00000004    r-- .const.14
  0000c030    0000c030    00000164   00000164    r-x .text.15
  0000c194    0000c194    00000004   00000004    r-- .const.15
  0000c198    0000c198    00000164   00000164    r-x .text.16
  0000c2fc    0000c2fc    00000004   00000004    r-- .const.16
  0000c300    0000c300    00000164   00000164    r-x .text.17
  0000c464    0000c464    00000004   00000004    r-- .const.17
  0000c468    0000c468    0000014c   0000014c    r-x .text.18
  0000c5b4    0000c5b4    00000004   00000004    r-- .const.18
  0000c5b8    0000c5b8    0000014c   0000014c    r-x .text.19
  0000c704    0000c704    00000004   00000004    r-- .const.19
  0000c708    0000c708    0000014c   0000014c    r-x .text.20
  0000c854    0000c854    00000004   00000004    r-- .const.20
  0000c858    0000c858    0000028c   0000028c    r-x .text.21
  0000cae4    0000cae4    00000004   00000004    r-- .const.21
  0000cae8    0000cae8    0000027c   0000027c    r-x .text.22
  0000cd64    0000cd64    00000004   00000004    r-- .const.22
  0000cd68    0000cd68    000003a4   000003a4    r-x .text.23
  0000d10c    0000d10c    00000004   00000004    r-- .const.23
  0000d110    0000d110    00000134   00000134    r-x .text.24
  0000d244    0000d244    00000004   00000004    r-- .const.24
  0000d248    0000d248    0000024c   0000024c    r-x .text.25
  0000d494    0000d494    00000004   00000004    r-- .const.25
  0000d498    0000d498    0000023c   0000023c    r-x .text.26
  0000d6d4    0000d6d4    00000004   00000004    r-- .const.26
  0000d6d8    0000d6d8    00000234   00000234    r-x .text.27
  0000d90c    0000d90c    00000004   00000004    r-- .const.27
  0000d910    0000d910    00000114   00000114    r-x .text.28
  0000da24    0000da24    00000004   00000004    r-- .const.28
  0000da28    0000da28    0000053c   0000053c    r-x .text.29
  0000df64    0000df64    00000004   00000004    r-- .const.29
  0000df68    0000df68    000003fc   000003fc    r-x .text.30
  0000e364    0000e364    00000004   00000004    r-- .const.30
  0000e368    0000e368    000002ec   000002ec    r-x .text.31
  0000e654    0000e654    00000004   00000004    r-- .const.31
  0000e658    0000e658    000002c4   000002c4    r-x .text.32
  0000e91c    0000e91c    00000004   00000004    r-- .const.32
  0000e920    0000e920    00000344   00000344    r-x .text.33
  0000ec64    0000ec64    00000004   00000004    r-- .const.33
  0000ec68    0000ec68    0000018c   0000018c    r-x .text.34
  0000edf4    0000edf4    00000004   00000004    r-- .const.34
  0000edf8    0000edf8    000000c4   000000c4    r-x .text.35
  0000eebc    0000eebc    00000004   00000004    r-- .const.35
  0000eec0    0000eec0    000003bc   000003bc    r-x .text.36
  0000f27c    0000f27c    00000004   00000004    r-- .const.36
  0000f280    0000f280    000000bc   000000bc    r-x .text.37
  0000f33c    0000f33c    00000004   00000004    r-- .const.37
  0000f340    0000f340    00000174   00000174    r-x .text.38
  0000f4b4    0000f4b4    00000004   00000004    r-- .const.38
  0000f4b8    0000f4b8    0000016c   0000016c    r-x .text.39
  0000f624    0000f624    00000004   00000004    r-- .const.39
  0000f628    0000f628    000000b4   000000b4    r-x .text.40
  0000f6dc    0000f6dc    00000004   00000004    r-- .const.40
  0000f6e0    0000f6e0    000000b4   000000b4    r-x .text.41
  0000f794    0000f794    00000004   00000004    r-- .const.41
  0000f798    0000f798    000000b4   000000b4    r-x .text.42
  0000f84c    0000f84c    00000004   00000004    r-- .const.42
  0000f850    0000f850    00000154   00000154    r-x .text.43
  0000f9a4    0000f9a4    00000004   00000004    r-- .const.43
  0000f9a8    0000f9a8    00000644   00000644    r-x .text.44
  0000ffec    0000ffec    00000004   00000004    r-- .const.44
  0000fff0    0000fff0    00000394   00000394    r-x .text.45
  00010384    00010384    00000004   00000004    r-- .const.45
  00010388    00010388    00000094   00000094    r-x .text.46
  0001041c    0001041c    00000004   00000004    r-- .const.46
  00010420    00010420    000001ac   000001ac    r-x .text.47
  000105cc    000105cc    00000004   00000004    r-- .const.47
  000105d0    000105d0    0000021c   0000021c    r-x .text.48
  000107ec    000107ec    00000004   00000004    r-- .const.48
  000107f0    000107f0    000000fc   000000fc    r-x .text.49
  000108ec    000108ec    00000004   00000004    r-- .const.49
  000108f0    000108f0    0000007c   0000007c    r-x .text.50
  0001096c    0001096c    00000004   00000004    r-- .const.50
  00010970    00010970    00000334   00000334    r-x .text.51
  00010ca4    00010ca4    00000004   00000004    r-- .const.51
  00010ca8    00010ca8    000001ac   000001ac    r-x .text.52
  00010e54    00010e54    00000004   00000004    r-- .const.52
  00010e58    00010e58    0000076c   0000076c    r-x .text.53
  000115c4    000115c4    00000004   00000004    r-- .const.53
  000115c8    000115c8    00000113   00000113    r-x .text.54
  000116dc    000116dc    00000004   00000004    r-- .const.54
  000116e0    000116e0    0000046c   0000046c    r-x .text.55
  00011b4c    00011b4c    00000004   00000004    r-- .const.55
  00011b50    00011b50    0000004c   0000004c    r-x .text.56
  00011b9c    00011b9c    00000004   00000004    r-- .const.56
  00011ba0    00011ba0    0000004c   0000004c    r-x .text.57
  00011bec    00011bec    00000004   00000004    r-- .const.57
  00011bf0    00011bf0    00000474   00000474    r-x .text.58
  00012064    00012064    00000004   00000004    r-- .const.58
  00012068    00012068    00000044   00000044    r-x .text.59
  000120ac    000120ac    00000004   00000004    r-- .const.59
  000120b0    000120b0    00000044   00000044    r-x .text.60
  000120f4    000120f4    00000004   00000004    r-- .const.60
  000120f8    000120f8    0000030c   0000030c    r-x .text.61
  00012404    00012404    00000004   00000004    r-- .const.61
  00012408    00012408    000002f4   000002f4    r-x .text.62
  000126fc    000126fc    00000004   00000004    r-- .const.62
  00012700    00012700    0000003c   0000003c    r-x .text.63
  0001273c    0001273c    00000004   00000004    r-- .const.63
  00012740    00012740    000000b4   000000b4    r-x .text.64
  000127f4    000127f4    00000004   00000004    r-- .const.64
  000127f8    000127f8    0000003c   0000003c    r-x .text.65
  00012834    00012834    00000004   00000004    r-- .const.65
  00012838    00012838    0000003c   0000003c    r-x .text.66
  00012874    00012874    00000004   00000004    r-- .const.66
  00012878    00012878    00000354   00000354    r-x .text.67
  00012bcc    00012bcc    00000004   00000004    r-- .const.67
  00012bd0    00012bd0    00000034   00000034    r-x .text.68
  00012c04    00012c04    00000004   00000004    r-- .const.68
  00012c08    00012c08    00000454   00000454    r-x .text.69
  0001305c    0001305c    00000004   00000004    r-- .const.69
  00013060    00013060    00000254   00000254    r-x .text.70
  000132b4    000132b4    00000004   00000004    r-- .const.70
  000132b8    000132b8    0000036c   0000036c    r-x .text.71
  00013624    00013624    00000004   00000004    r-- .const.71
  00013628    00013628    00000354   00000354    r-x .text.72
  0001397c    0001397c    00000004   00000004    r-- .const.72
  00013980    00013980    0000031c   0000031c    r-x .text.73
  00013c9c    00013c9c    00000004   00000004    r-- .const.73
  00013ca0    00013ca0    0000001c   0000001c    r-x .text.74
  00013cbc    00013cbc    00000004   00000004    r-- .const.74
  00013cc0    00013cc0    00000174   00000174    r-x .text.75
  00013e34    00013e34    00000004   00000004    r-- .const.75
  00013e38    00013e38    00000174   00000174    r-x .text.76
  00013fac    00013fac    00000004   00000004    r-- .const.76
  00013fb0    00013fb0    00000052   00000052    r-x .text.77
  00014004    00014004    00000004   00000004    r-- .const.77
  00014008    00014008    00000012   00000012    r-x .text.78
  0001401c    0001401c    00000004   00000004    r-- .const.78
  00014020    00014020    00000044   00000044    r-x .text.79
  00014064    00014064    00000004   00000004    r-- .const.79
  00014068    00014068    00000294   00000294    r-x .text.80
  000142fc    000142fc    00000004   00000004    r-- .const.80
  00014300    00014300    0000000c   0000000c    r-x .text.81
  0001430c    0001430c    00000004   00000004    r-- .const.81
  00014310    00014310    0000000c   0000000c    r-x .text.82
  0001431c    0001431c    00000004   00000004    r-- .const.82
  00014320    00014320    0000000c   0000000c    r-x .text.83
  0001432c    0001432c    00000004   00000004    r-- .const.83
  00014330    00014330    0000000c   0000000c    r-x .text.84
  0001433c    0001433c    00000004   00000004    r-- .const.84
  00014340    00014340    0000000c   0000000c    r-x .text.85
  0001434c    0001434c    00000004   00000004    r-- .const.85
  00014350    00014350    00000084   00000084    r-x .text.86
  000143d4    000143d4    00000004   00000004    r-- .const.86
  000143d8    000143d8    0000003c   0000003c    r-x .text.87
  00014414    00014414    00000004   00000004    r-- .const.87
  00014418    00014418    0000000c   0000000c    r-x .text.88
  00014424    00014424    00000004   00000004    r-- .const.88
  00014428    00014428    0000000c   0000000c    r-x .text.89
  00014434    00014434    00000004   00000004    r-- .const.89
  00014438    00014438    000000e2   000000e2    r-x .text.90
  0001451c    0001451c    00000004   00000004    r-- .const.90
  00014520    00014520    00000124   00000124    r-x .text.91
  00014644    00014644    00000004   00000004    r-- .const.91
  00014648    00014648    00000004   00000004    r-x .text.92
  0001464c    0001464c    00000004   00000004    r-- .const.92
  00014650    00014650    00000004   00000004    r-x .text.93
  00014654    00014654    00000004   00000004    r-- .const.93
  00014658    00014658    00000004   00000004    r-x .text.94
  0001465c    0001465c    00000004   00000004    r-- .const.94
  00014660    00014660    00000004   00000004    r-x .text.95
  00014664    00014664    00000004   00000004    r-- .const.95
  00014668    00014668    00000004   00000004    r-x .text.96
  0001466c    0001466c    00000004   00000004    r-- .const.96
  00014670    00014670    00000004   00000004    r-x .text.97
  00014674    00014674    00000004   00000004    r-- .const.97
  00014678    00014678    00000004   00000004    r-x .text.98
  0001467c    0001467c    00000004   00000004    r-- .const.98
  00014680    00014680    00000004   00000004    r-x .text.99
  00014684    00014684    00000004   00000004    r-- .const.99
  00014688    00014688    00000004   00000004    r-x .text.100
  0001468c    0001468c    00000004   00000004    r-- .const.100
  00014690    00014690    00000002   00000002    r-x .text.101
  00014694    00014694    00000004   00000004    r-- .const.101
  00014698    00014698    00000002   00000002    r-x .text.102
  0001469c    0001469c    00000004   00000004    r-- .const.102
  000146a0    000146a0    00000002   00000002    r-x .text.103
  000146a4    000146a4    00004258   00004258    r-- .const.103
  00018900    00018900    000013d8   000013d8    r-- .cinit
80000000    80000000    00082ce8   00000000    rw-
  80000000    80000000    00080954   00000000    rw- .bss
  80080958    80080958    00001390   00000000    rw- .data
  80081ce8    80081ce8    00001000   00000000    rw- .stack
9f000000    9f000000    00008000   00000000    rw-
  9f000000    9f000000    00008000   00000000    rw- .tracebuf
9f060000    9f060000    00000200   00000000    rw-
  9f060000    9f060000    00000200   00000000    rw- .errorbuf


SECTION ALLOCATION MAP

 output                                  attributes/
section   page    origin      length       input sections
--------  ----  ----------  ----------   ----------------
.bss       0    80000000    00080954     UNINITIALIZED
                  80000000    00040000     fault_pem4.oem4 (.bss:ti_sysbios_heaps_HeapBuf_Instance_State_1_buf__A)
                  80040000    00020000     fault_pem4.oem4 (.bss:ti_sysbios_heaps_HeapBuf_Instance_State_0_buf__A)
                  80060000    00020000     fault_pem4.oem4 (.bss:ti_sysbios_heaps_HeapMem_Instance_State_0_buf__A)
                  80080000    00000800     fault_pem4.oem4 (.bss:taskStackSection)
                  80080800    00000140     fault_pem4.oem4 (.bss:ti_sysbios_family_arm_m3_Hwi_dispatchTable)
                  80080940    00000004     (.common:endIdx$4)
                  80080944    00000004     (.common:startIdx$3)
                  80080948    00000004     (.common:ti_sysbios_knl_Swi_Instance_State_0_hookEnv__A)
                  8008094c    00000004     (.common:ti_sysbios_knl_Task_Instance_State_0_hookEnv__A)
                  80080950    00000004     (.common:timeStampSecCharLen$5)

.neardata 
*          0    80080954    00000000     UNINITIALIZED

.rodata    0    80080954    00000000     UNINITIALIZED

.stack     0    80081ce8    00001000     UNINITIALIZED
                  80081ce8    00001000     --HOLE--

.cinit     0    00018900    000013d8     
                  00018900    00001398     (.cinit..data.load) [load image]
                  00019c98    00000008     (.cinit..bss.load) [load image, compression = zero_init]
                  00019ca0    00000008     (.cinit..errorbuf.load) [load image, compression = zero_init]
                  00019ca8    00000008     (.cinit..tracebuf.load) [load image, compression = zero_init]
                  00019cb0    00000008     (__TI_handler_table)
                  00019cb8    00000020     (__TI_cinit_table)

.init_array 
*          0    00004000    00000000     UNINITIALIZED

.bootVecs 
*          0    00000000    00000008     DSECT
                  00000000    00000008     boot.aem4 : boot.oem4 (.bootVecs)

.vecs      0    00000400    00000000     DSECT

.ducatiBoot 
*          0    00000000    00000050     
                  00000000    00000050     sysbios.aem4 : ducati_Core_asm.obj (.ducatiBoot)

.resetVecs 
*          0    00000400    00000140     
                  00000400    00000140     fault_pem4.oem4 (.resetVecs)

.ducatiGates 
*          0    000007f0    00000010     UNINITIALIZED
                  000007f0    00000010     fault_pem4.oem4 (.ducatiGates)

.resource_table 
*          0    00003000    0000044c     
                  00003000    0000044c     fault_pem4.oem4 (.resource_table)

.tracebuf 
*          0    9f000000    00008000     UNINITIALIZED
                  9f000000    00008000     fault_pem4.oem4 (.tracebuf)

.errorbuf 
*          0    9f060000    00000200     UNINITIALIZED
                  9f060000    00000200     fault_pem4.oem4 (.errorbuf)

xdc.meta   0    00004000    00000113     COPY SECTION
                  00004000    00000113     fault_pem4.oem4 (xdc.meta)

.text.1    0    00004000    00004bdc     
                  00004000    000010a6     rtsv7M4_T_le_eabi.lib : _printfi.obj (.text)
                  000050a6    00000002                           : i_div0.obj (.text)
                  000050a8    00000734     ti.deh_vayu_smp.aem4 : Deh.oem4 (.text:ti_deh_Deh_excHandler__F)
                  000057dc    00000004     fault_pem4.oem4 (.text:ti_sysbios_family_arm_m3_TaskSupport_Module__startupDone__S)
                  000057e0    000005b4     ipc.aem4 : Ipc.obj (.text:RPMessage_send)
                  00005d94    00000004     fault_pem4.oem4 (.text:ti_sysbios_family_shared_vayu_IntXbar_Module__startupDone__S)
                  00005d98    000004c0     ipc.aem4 : Ipc.obj (.text:ti_ipc_namesrv_NameServerRemoteRpmsg_get__F)
                  00006258    00000430     fault.oem4 (.text:tsk1Fxn)
                  00006688    000003f0     ipc.aem4 : Ipc.obj (.text:MessageQ_put)
                  00006a78    00000394     sysbios.aem4 : BIOS.obj (.text:ti_sysbios_heaps_HeapBuf_Instance_init__E)
                  00006e0c    00000004     fault_pem4.oem4 (.text:ti_sysbios_hal_ammu_AMMU_Module__startupDone__S)
                  00006e10    00000370     ipc.aem4 : Ipc.obj (.text:NameServerRemote_processMessage)
                  00007180    00000358              : Ipc.obj (.text:VirtQueue_create)
                  000074d8    0000034c     ti.targets.arm.rtsarm.aem4 : System.oem4 (.text:xdc_runtime_System_doPrint__I)
                  00007824    00000004                                : Error.oem4 (.text:xdc_runtime_Error_getSite__E)
                  00007828    00000314     sysbios.aem4 : BIOS.obj (.text:ti_sysbios_knl_Semaphore_pend__E)
                  00007b3c    00000004     ti.targets.arm.rtsarm.aem4 : System.oem4 (.text:xdc_runtime_System_aprintf_va__F)
                  00007b40    0000030c     ipc.aem4 : Ipc.obj (.text:RPMessage_swiFxn$15)
                  00007e4c    00000004     ti.targets.arm.rtsarm.aem4 : System.oem4 (.text:xdc_runtime_System_printf_va__F)
                  00007e50    000002f4     ipc.aem4 : Ipc.obj (.text:ti_sdo_ipc_family_vayu_NotifySetup_Module_startup__E)
                  00008144    00000004     ti.targets.arm.rtsarm.aem4 : System.oem4 (.text:xdc_runtime_System_sprintf_va__F)
                  00008148    000002d4     ipc.aem4 : Ipc.obj (.text:RPMessage_init)
                  0000841c    00000004     fault_pem4.oem4 (.text:xdc_runtime_knl_GateThread_Module__startupDone__S)
                  00008420    00000298     ipc.aem4 : Ipc.obj (.text:VirtQueue_startup)
                  000086b8    00000294              : Ipc.obj (.text:NameServer_add)
                  0000894c    00000002     fault_pem4.oem4 (.text:ti_sysbios_BIOS_nullFunc__I)
                  0000894e    00000002     ti.trace.aem4 : SysMin.oem4 (.text:ti_trace_SysMin_flush__E)
                  00008950    0000028c     ipc.aem4 : Ipc.obj (.text:RPMessage_create)

.const.1   0    00008bdc    00000004     
                  00008bdc    00000004     fault_pem4.oem4 (.const:ti_ipc_namesrv_NameServerRemoteRpmsg_Module__diagsEnabled__C)

.text.2    0    00008be0    0000076c     
                  00008be0    00000284     ipc.aem4 : Ipc.obj (.text:transportCallbackFxn$8)
                  00008e64    00000274     ti.deh_vayu_smp.aem4 : Watchdog.oem4 (.text:ti_deh_Watchdog_init__F)
                  000090d8    00000274     sysbios.aem4 : BIOS.obj (.text:ti_sysbios_knl_Task_Instance_finalize__E)

.const.2   0    0000934c    00000004     
                  0000934c    00000004     fault_pem4.oem4 (.const:ti_ipc_namesrv_NameServerRemoteRpmsg_Module__diagsIncluded__C)

.text.3    0    00009350    00000254     
                  00009350    00000254     sysbios.aem4 : BIOS.obj (.text:ti_sysbios_heaps_HeapMem_free__E)

.const.3   0    000095a4    00000004     
                  000095a4    00000004     fault_pem4.oem4 (.const:ti_ipc_namesrv_NameServerRemoteRpmsg_Module__diagsMask__C)

.text.4    0    000095a8    00000244     
                  000095a8    00000244     ipc.aem4 : Ipc.obj (.text:ti_ipc_transports_TransportRpmsg_Instance_init__E)

.const.4   0    000097ec    00000004     
                  000097ec    00000004     fault_pem4.oem4 (.const:ti_ipc_namesrv_NameServerRemoteRpmsg_Module__loggerFxn1__C)

.text.5    0    000097f0    0000047c     
                  000097f0    00000240     sysbios.aem4 : BIOS.obj (.text:ti_sysbios_heaps_HeapMem_alloc__E)
                  00009a30    0000023c     ipc.aem4 : Ipc.obj (.text:MessageQ_free)

.const.5   0    00009c6c    00000004     
                  00009c6c    00000004     fault_pem4.oem4 (.const:ti_ipc_namesrv_NameServerRemoteRpmsg_Module__loggerFxn2__C)

.text.6    0    00009c70    00000654     
                  00009c70    00000224     ipc.aem4 : Ipc.obj (.text:ti_sdo_ipc_MessageQ_Instance_init__E)
                  00009e94    0000021c     fault_pem4.oem4 (.text:xdc_runtime_System_printfExtend__I)
                  0000a0b0    00000214     ti.trace.aem4 : SysMin.oem4 (.text:ti_trace_SysMin_putch__E)

.const.6   0    0000a2c4    00000004     
                  0000a2c4    00000004     fault_pem4.oem4 (.const:ti_ipc_namesrv_NameServerRemoteRpmsg_Module__loggerFxn4__C)

.text.7    0    0000a2c8    000003ec     
                  0000a2c8    000001f8     sysbios.aem4 : BIOS.obj (.text:ti_sysbios_heaps_HeapBuf_free__E)
                  0000a4c0    000001f4     rtsv7M4_T_le_eabi.lib : ull_div_t2.obj (.text)

.const.7   0    0000a6b4    00000004     
                  0000a6b4    00000004     fault_pem4.oem4 (.const:ti_ipc_namesrv_NameServerRemoteRpmsg_Module__loggerFxn8__C)

.text.8    0    0000a6b8    000001f4     
                  0000a6b8    000001f4     sysbios.aem4 : BIOS.obj (.text:ti_sysbios_knl_Task_Instance_init__E)

.const.8   0    0000a8ac    00000004     
                  0000a8ac    00000004     fault_pem4.oem4 (.const:ti_ipc_namesrv_NameServerRemoteRpmsg_Module__loggerObj__C)

.text.9    0    0000a8b0    000008dc     
                  0000a8b0    000001f0     sysbios.aem4 : BIOS.obj (.text:ti_sysbios_hal_unicache_Cache_startup__I)
                  0000aaa0    000001dc     ipc.aem4 : Ipc.obj (.text:IpcMgr_ipcStartup)
                  0000ac7c    000001b6     rtsv7M4_T_le_eabi.lib : fd_add_t2.obj (.text)
                  0000ae32    00000006     ti.targets.arm.rtsarm.aem4 : xdc_noinit.oem4 (.text:__xdc__init)
                  0000ae38    000001b0     sysbios.aem4 : BIOS.obj (.text:ti_sysbios_gates_GateMutexPri_enter__E)
                  0000afe8    000001a4     ipc.aem4 : Ipc.obj (.text:ti_ipc_transports_TransportRpmsg_Instance_finalize__E)

.const.9   0    0000b18c    00000004     
                  0000b18c    00000004     fault_pem4.oem4 (.const:ti_ipc_namesrv_NameServerRemoteRpmsg_timeout__C)

.text.10   0    0000b190    00000304     
                  0000b190    00000188     sysbios.aem4 : BIOS.obj (.text:ti_sysbios_knl_Task_setPri__E)
                  0000b318    0000017c     ipc.aem4 : Ipc.obj (.text:VirtQueue_isr)

.const.10 
*          0    0000b494    00000004     
                  0000b494    00000004     fault_pem4.oem4 (.const:ti_ipc_transports_TransportRpmsgSetup_Module__diagsEnabled__C)

.text.11   0    0000b498    00000464     
                  0000b498    00000178     ipc.aem4 : Ipc.obj (.text:ti_sdo_ipc_MessageQ_registerTransport__F)
                  0000b610    00000178     sysbios.aem4 : BIOS.obj (.text:ti_sysbios_knl_Swi_run__I)
                  0000b788    00000174     ipc.aem4 : Ipc.obj (.text:ti_sdo_utils_NameServer_registerRemoteDriver__E)

.const.11 
*          0    0000b8fc    00000004     
                  0000b8fc    00000004     fault_pem4.oem4 (.const:ti_ipc_transports_TransportRpmsgSetup_Module__diagsIncluded__C)

.text.12   0    0000b900    00000174     
                  0000b900    00000174     sysbios.aem4 : BIOS.obj (.text:ti_sysbios_family_arm_m3_Hwi_excBusFault__I)

.const.12 
*          0    0000ba74    00000004     
                  0000ba74    00000004     fault_pem4.oem4 (.const:ti_ipc_transports_TransportRpmsgSetup_Module__diagsMask__C)

.text.13   0    0000ba78    0000044c     
                  0000ba78    00000170     sysbios.aem4 : BIOS.obj (.text:ti_sysbios_timers_dmtimer_Timer_checkFreq__I)
                  0000bbe8    0000016f     fault.oem4 (.text:fxnFault)
                  0000bd57    00000001     --HOLE-- [fill = 0]
                  0000bd58    0000016c     ipc.aem4 : Ipc.obj (.text:ti_sdo_ipc_MessageQ_unregisterTransport__F)

.const.13 
*          0    0000bec4    00000004     
                  0000bec4    00000004     fault_pem4.oem4 (.const:ti_ipc_transports_TransportRpmsgSetup_Module__loggerFxn2__C)

.text.14   0    0000bec8    00000164     
                  0000bec8    00000164     ipc.aem4 : Ipc.obj (.text:sendMessage$14)

.const.14 
*          0    0000c02c    00000004     
                  0000c02c    00000004     fault_pem4.oem4 (.const:ti_ipc_transports_TransportRpmsgSetup_Module__loggerObj__C)

.text.15   0    0000c030    00000164     
                  0000c030    00000164     ipc.aem4 : Ipc.obj (.text:ti_sdo_utils_NameServer_unregisterRemoteDriver__E)

.const.15 
*          0    0000c194    00000004     
                  0000c194    00000004     fault_pem4.oem4 (.const:ti_ipc_transports_TransportRpmsg_Module__diagsEnabled__C)

.text.16   0    0000c198    00000164     
                  0000c198    00000164     sysbios.aem4 : BIOS.obj (.text:ti_sysbios_family_arm_m3_Hwi_excUsageFault__I)

.const.16 
*          0    0000c2fc    00000004     
                  0000c2fc    00000004     fault_pem4.oem4 (.const:ti_ipc_transports_TransportRpmsg_Module__diagsIncluded__C)

.text.17   0    0000c300    00000164     
                  0000c300    00000164     sysbios.aem4 : BIOS.obj (.text:ti_sysbios_heaps_HeapBuf_alloc__E)

.const.17 
*          0    0000c464    00000004     
                  0000c464    00000004     fault_pem4.oem4 (.const:ti_ipc_transports_TransportRpmsg_Module__diagsMask__C)

.text.18   0    0000c468    0000014c     
                  0000c468    0000014c     ipc.aem4 : Ipc.obj (.text:MessageQ_alloc)

.const.18 
*          0    0000c5b4    00000004     
                  0000c5b4    00000004     fault_pem4.oem4 (.const:ti_ipc_transports_TransportRpmsg_Module__loggerFxn1__C)

.text.19   0    0000c5b8    0000014c     
                  0000c5b8    0000014c     ipc.aem4 : Ipc.obj (.text:ti_sdo_ipc_MessageQ_Instance_finalize__E)

.const.19 
*          0    0000c704    00000004     
                  0000c704    00000004     fault_pem4.oem4 (.const:ti_ipc_transports_TransportRpmsg_Module__loggerFxn2__C)

.text.20   0    0000c708    0000014c     
                  0000c708    0000014c     sysbios.aem4 : BIOS.obj (.text:ti_sysbios_family_shared_vayu_IntXbar_connect__E)

.const.20 
*          0    0000c854    00000004     
                  0000c854    00000004     fault_pem4.oem4 (.const:ti_ipc_transports_TransportRpmsg_Module__loggerFxn4__C)

.text.21   0    0000c858    0000028c     
                  0000c858    00000148     sysbios.aem4 : BIOS.obj (.text:ti_sysbios_family_arm_m3_Hwi_excMemFault__I)
                  0000c9a0    00000144     ipc.aem4 : Ipc.obj (.text:ti_sdo_ipc_family_vayu_InterruptIpu_intRegister__E)

.const.21 
*          0    0000cae4    00000004     
                  0000cae4    00000004     fault_pem4.oem4 (.const:ti_ipc_transports_TransportRpmsg_Module__loggerFxn8__C)

.text.22   0    0000cae8    0000027c     
                  0000cae8    00000140     sysbios.aem4 : BIOS.obj (.text:ti_sysbios_knl_Semaphore_post__E)
                  0000cc28    0000013c                  : BIOS.obj (.text:ti_sysbios_heaps_HeapMem_Instance_init__E)

.const.22 
*          0    0000cd64    00000004     
                  0000cd64    00000004     fault_pem4.oem4 (.const:ti_ipc_transports_TransportRpmsg_Module__loggerObj__C)

.text.23   0    0000cd68    000003a4     
                  0000cd68    00000138     sysbios.aem4 : BIOS.obj (.text:ti_sysbios_family_arm_m3_Hwi_dispatchC__I)
                  0000cea0    00000136     rtsv7M4_T_le_eabi.lib : fd_div_t2.obj (.text)
                  0000cfd6    00000002     --HOLE-- [fill = 0]
                  0000cfd8    00000134     ipc.aem4 : Ipc.obj (.text:ti_sdo_ipc_family_vayu_InterruptIpu_intSend__E)

.const.23 
*          0    0000d10c    00000004     
                  0000d10c    00000004     fault_pem4.oem4 (.const:ti_sdo_ipc_MessageQ_A_cannotFreeStaticMsg__C)

.text.24   0    0000d110    00000134     
                  0000d110    00000134     sysbios.aem4 : BIOS.obj (.text:ti_sysbios_knl_Clock_workFunc__E)

.const.24 
*          0    0000d244    00000004     
                  0000d244    00000004     fault_pem4.oem4 (.const:ti_sdo_ipc_MessageQ_A_heapIdInvalid__C)

.text.25   0    0000d248    0000024c     
                  0000d248    00000128     sysbios.aem4 : BIOS.obj (.text:ti_sysbios_hal_unicache_Cache_inv__E)
                  0000d370    00000124     ipc.aem4 : Ipc.obj (.text:MessageQ_get)

.const.25 
*          0    0000d494    00000004     
                  0000d494    00000004     fault_pem4.oem4 (.const:ti_sdo_ipc_MessageQ_A_invalidMsg__C)

.text.26   0    0000d498    0000023c     
                  0000d498    00000120     ipc.aem4 : Ipc.obj (.text:NameServer_getLocal)
                  0000d5b8    0000011c              : Ipc.obj (.text:VirtQueue_kick)

.const.26 
*          0    0000d6d4    00000004     
                  0000d6d4    00000004     fault_pem4.oem4 (.const:ti_sdo_ipc_MessageQ_A_invalidObj__C)

.text.27   0    0000d6d8    00000234     
                  0000d6d8    0000011c     sysbios.aem4 : BIOS.obj (.text:ti_sysbios_timers_dmtimer_Timer_deviceConfig__I)
                  0000d7f4    00000118     ti.targets.arm.rtsarm.aem4 : Error.oem4 (.text:xdc_runtime_Error_policyDefault__E)

.const.27 
*          0    0000d90c    00000004     
                  0000d90c    00000004     fault_pem4.oem4 (.const:ti_sdo_ipc_MessageQ_A_invalidQueueId__C)

.text.28   0    0000d910    00000114     
                  0000d910    00000114     ipc.aem4 : Ipc.obj (.text:ti_ipc_transports_TransportRpmsg_put__E)

.const.28 
*          0    0000da24    00000004     
                  0000da24    00000004     fault_pem4.oem4 (.const:ti_sdo_ipc_MessageQ_A_procIdInvalid__C)

.text.29   0    0000da28    0000053c     
                  0000da28    00000110     ipc.aem4 : Ipc.obj (.text:callback_availBufReady$15)
                  0000db38    00000110     rtsv7M4_T_le_eabi.lib : xdscale.obj (.text)
                  0000dc48    00000110     sysbios.aem4 : BIOS.obj (.text:ti_sysbios_knl_Task_schedule__I)
                  0000dd58    00000108     ipc.aem4 : Ipc.obj (.text:ti_sdo_ipc_family_vayu_InterruptIpu_intClear__E)
                  0000de60    00000104     sysbios.aem4 : BIOS.obj (.text:ti_sysbios_knl_Swi_Instance_init__E)

.const.29 
*          0    0000df64    00000004     
                  0000df64    00000004     fault_pem4.oem4 (.const:ti_sdo_ipc_MessageQ_A_unregisteredTransport__C)

.text.30   0    0000df68    000003fc     
                  0000df68    00000104     sysbios.aem4 : BIOS.obj (.text:ti_sysbios_knl_Swi_Module_startup__E)
                  0000e06c    00000100     ti.targets.arm.rtsarm.aem4 : Core-mem.oem4 (.text:xdc_runtime_Core_createObject__I)
                  0000e16c    000000fc     rtsv7M4_T_le_eabi.lib : fd_mul_t2.obj (.text)
                  0000e268    000000fc     sysbios.aem4 : BIOS.obj (.text:ti_sysbios_knl_Task_postInit__I)

.const.30 
*          0    0000e364    00000004     
                  0000e364    00000004     fault_pem4.oem4 (.const:ti_sdo_ipc_MessageQ_E_indexNotAvailable__C)

.text.31   0    0000e368    000002ec     
                  0000e368    000000fc     sysbios.aem4 : BIOS.obj (.text:ti_sysbios_knl_Task_startCore__E)
                  0000e464    000000f8     ti.targets.arm.rtsarm.aem4 : Log.oem4 (.text:xdc_runtime_Log_doPrint__E)
                  0000e55c    000000f8                                : Startup.oem4 (.text:xdc_runtime_Startup_startMods__I)

.const.31 
*          0    0000e654    00000004     
                  0000e654    00000004     fault_pem4.oem4 (.const:ti_sdo_ipc_MessageQ_E_maxReached__C)

.text.32   0    0000e658    000002c4     
                  0000e658    000000f0     sysbios.aem4 : BIOS.obj (.text:ti_sysbios_knl_Task_exit__E)
                  0000e748    000000ec                  : BIOS.obj (.text:ti_sysbios_heaps_HeapBuf_Module_startup__E)
                  0000e834    000000e8     ti.deh_vayu_smp.aem4 : StackDbg.oem4 (.text:ti_deh_StackDbg_walkStack__F)

.const.32 
*          0    0000e91c    00000004     
                  0000e91c    00000004     fault_pem4.oem4 (.const:ti_sdo_ipc_MessageQ_E_nameFailed__C)

.text.33   0    0000e920    00000344     
                  0000e920    000000d8     sysbios.aem4 : BIOS.obj (.text:ti_sysbios_knl_Swi_post__E)
                  0000e9f8    000000d0                  : BIOS.obj (.text:ti_sysbios_family_arm_ducati_GateDualCore_enter__E)
                  0000eac8    000000d0                  : m3_Hwi_asm.obj (.text:ti_sysbios_family_arm_m3_Hwi_dispatch__I)
                  0000eb98    000000cc     ti.targets.arm.rtsarm.aem4 : Core-smem.oem4 (.text:xdc_runtime_Core_constructObject__I)

.const.33 
*          0    0000ec64    00000004     
                  0000ec64    00000004     fault_pem4.oem4 (.const:ti_sdo_ipc_MessageQ_Instance_State_highList__O)

.text.34   0    0000ec68    0000018c     
                  0000ec68    000000c8     ipc.aem4 : Ipc.obj (.text:ti_ipc_transports_TransportRpmsgSetup_attach__E)
                  0000ed30    000000c4              : Ipc.obj (.text:MultiProc_getId)

.const.34 
*          0    0000edf4    00000004     
                  0000edf4    00000004     fault_pem4.oem4 (.const:ti_sdo_ipc_MessageQ_Instance_State_normalList__O)

.text.35   0    0000edf8    000000c4     
                  0000edf8    000000c4     sysbios.aem4 : BIOS.obj (.text:ti_sysbios_family_arm_m3_Hwi_Module_startup__E)

.const.35 
*          0    0000eebc    00000004     
                  0000eebc    00000004     fault_pem4.oem4 (.const:ti_sdo_ipc_MessageQ_LM_free__C)

.text.36   0    0000eec0    000003bc     
                  0000eec0    000000c0     ipc.aem4 : Ipc.obj (.text:ti_ipc_namesrv_NameServerRemoteRpmsg_detach__E)
                  0000ef80    000000c0     fault_pem4.oem4 (.text:ti_sysbios_BIOS_rtsUnlock__I)
                  0000f040    000000c0     sysbios.aem4 : BIOS.obj (.text:ti_sysbios_timers_dmtimer_Timer_setPeriodMicroSecs__E)
                  0000f100    000000be     ti.deh_vayu_smp.aem4 : Deh.oem4 (.text:printStackEntry)
                  0000f1be    000000be     rtsv7M4_T_le_eabi.lib : xdnorm.obj (.text)

.const.36 
*          0    0000f27c    00000004     
                  0000f27c    00000004     fault_pem4.oem4 (.const:ti_sdo_ipc_MessageQ_LM_get__C)

.text.37   0    0000f280    000000bc     
                  0000f280    000000bc     sysbios.aem4 : BIOS.obj (.text:ti_sysbios_family_arm_m3_Hwi_excDebugMon__I)

.const.37 
*          0    0000f33c    00000004     
                  0000f33c    00000004     fault_pem4.oem4 (.const:ti_sdo_ipc_MessageQ_LM_putLocal__C)

.text.38   0    0000f340    00000174     
                  0000f340    000000bc     sysbios.aem4 : BIOS.obj (.text:ti_sysbios_family_arm_m3_Hwi_excHardFault__I)
                  0000f3fc    000000b8     ti.deh_vayu_smp.aem4 : StackDbg.oem4 (.text:__decode_bl32)

.const.38 
*          0    0000f4b4    00000004     
                  0000f4b4    00000004     fault_pem4.oem4 (.const:ti_sdo_ipc_MessageQ_Module__diagsEnabled__C)

.text.39   0    0000f4b8    0000016c     
                  0000f4b8    000000b8     sysbios.aem4 : BIOS.obj (.text:ti_sysbios_knl_Task_unblockI__E)
                  0000f570    000000b4                  : BIOS.obj (.text:ti_sysbios_family_arm_ducati_Timer_startup__E)

.const.39 
*          0    0000f624    00000004     
                  0000f624    00000004     fault_pem4.oem4 (.const:ti_sdo_ipc_MessageQ_Module__diagsIncluded__C)

.text.40   0    0000f628    000000b4     
                  0000f628    000000b4     sysbios.aem4 : BIOS.obj (.text:ti_sysbios_family_shared_vayu_IntXbar_initXbarRegs__I)

.const.40 
*          0    0000f6dc    00000004     
                  0000f6dc    00000004     fault_pem4.oem4 (.const:ti_sdo_ipc_MessageQ_Module__diagsMask__C)

.text.41   0    0000f6e0    000000b4     
                  0000f6e0    000000b4     sysbios.aem4 : BIOS.obj (.text:ti_sysbios_gates_GateMutex_enter__E)

.const.41 
*          0    0000f794    00000004     
                  0000f794    00000004     fault_pem4.oem4 (.const:ti_sdo_ipc_MessageQ_Module__loggerFxn4__C)

.text.42   0    0000f798    000000b4     
                  0000f798    000000b4     sysbios.aem4 : BIOS.obj (.text:ti_sysbios_knl_Task_checkStacks__E)

.const.42 
*          0    0000f84c    00000004     
                  0000f84c    00000004     fault_pem4.oem4 (.const:ti_sdo_ipc_MessageQ_Module__loggerObj__C)

.text.43   0    0000f850    00000154     
                  0000f850    000000ac     ipc.aem4 : Ipc.obj (.text:ti_sdo_utils_NameServer_Module_startup__E)
                  0000f8fc    000000a8     ti.deh_vayu_smp.aem4 : Deh.oem4 (.text:dump_hex)

.const.43 
*          0    0000f9a4    00000004     
                  0000f9a4    00000004     fault_pem4.oem4 (.const:ti_sdo_ipc_MessageQ_Object__count__C)

.text.44   0    0000f9a8    00000644     
                  0000f9a8    000000a8     ipc.aem4 : Ipc.obj (.text:ti_ipc_namesrv_NameServerRemoteRpmsg_Instance_init__E)
                  0000fa50    000000a8     sysbios.aem4 : BIOS.obj (.text:ti_sysbios_knl_Task_blockI__E)
                  0000faf8    000000a0     auto_init.aem4 : auto_init.oem4 (.text)
                  0000fb98    000000a0     ipc.aem4 : Ipc.obj (.text:ti_ipc_namesrv_NameServerRemoteRpmsg_attach__E)
                  0000fc38    000000a0              : Ipc.obj (.text:ti_sdo_ipc_family_vayu_NotifySetup_dispatchIsr__I)
                  0000fcd8    000000a0     sysbios.aem4 : BIOS.obj (.text:ti_sysbios_knl_Swi_Instance_finalize__E)
                  0000fd78    000000a0     ti.targets.arm.rtsarm.aem4 : Text.oem4 (.text:xdc_runtime_Text_putMod__E)
                  0000fe18    0000009c     ipc.aem4 : Ipc.obj (.text:MultiProc_getName)
                  0000feb4    0000009c     rtsv7M4_T_le_eabi.lib : memcpy_t2.obj (.text)
                  0000ff50    0000009c     ipc.aem4 : Ipc.obj (.text:ti_sdo_ipc_family_vayu_NotifySetup_plugHwi__F)

.const.44 
*          0    0000ffec    00000004     
                  0000ffec    00000004     fault_pem4.oem4 (.const:ti_sdo_ipc_MessageQ_Object__heap__C)

.text.45   0    0000fff0    00000394     
                  0000fff0    0000009c     sysbios.aem4 : BIOS.obj (.text:ti_sysbios_knl_Semaphore_Instance_init__E)
                  0001008c    0000009a     ti.targets.arm.rtsarm.aem4 : Text.oem4 (.text:xdc_runtime_Text_putSite__E)
                  00010126    00000002     --HOLE-- [fill = 0]
                  00010128    00000098     ipc.aem4 : Ipc.obj (.text:MessageQ_create)
                  000101c0    00000098              : Ipc.obj (.text:ti_sdo_ipc_family_vayu_InterruptIpu_intEnable__E)
                  00010258    00000098     sysbios.aem4 : BIOS.obj (.text:ti_sysbios_gates_GateSwi_enter__E)
                  000102f0    00000094                  : BIOS.obj (.text:ti_sysbios_family_arm_m3_Hwi_Instance_init__E)

.const.45 
*          0    00010384    00000004     
                  00010384    00000004     fault_pem4.oem4 (.const:ti_sdo_ipc_MessageQ_Object__table__C)

.text.46   0    00010388    00000094     
                  00010388    00000094     sysbios.aem4 : BIOS.obj (.text:ti_sysbios_syncs_SyncSem_Instance_init__E)

.const.46 
*          0    0001041c    00000004     
                  0001041c    00000004     fault_pem4.oem4 (.const:ti_sdo_ipc_MessageQ_maxRuntimeEntries__C)

.text.47   0    00010420    000001ac     
                  00010420    00000090     sysbios.aem4 : BIOS.obj (.text:ti_sysbios_family_arm_ducati_GateDualCore_Instance_init__E)
                  000104b0    00000090                  : BIOS.obj (.text:ti_sysbios_knl_Task_Module_startup__E)
                  00010540    0000008c                  : BIOS.obj (.text:ti_sysbios_family_arm_ducati_Timer_setPeriod__E)

.const.47 
*          0    000105cc    00000004     
                  000105cc    00000004     fault_pem4.oem4 (.const:ti_sdo_ipc_MessageQ_numReservedEntries__C)

.text.48   0    000105d0    0000021c     
                  000105d0    00000088     sysbios.aem4 : BIOS.obj (.text:ti_sysbios_family_arm_m3_Hwi_initNVIC__E)
                  00010658    00000088                  : BIOS.obj (.text:ti_sysbios_timers_dmtimer_Timer_start__E)
                  000106e0    00000086     rtsv7M4_T_le_eabi.lib : fd_cmp_t2.obj (.text:__aeabi_cdcmple)
                  00010766    00000086                           : fd_cmp_t2.obj (.text:__aeabi_cdrcmple)

.const.48 
*          0    000107ec    00000004     
                  000107ec    00000004     fault_pem4.oem4 (.const:ti_sdo_ipc_family_vayu_InterruptIpu_Module__diagsEnabled__C)

.text.49   0    000107f0    000000fc     
                  000107f0    00000080     sysbios.aem4 : BIOS.obj (.text:ti_sysbios_family_shared_vayu_IntXbar_initIntXbar__I)
                  00010870    0000007c     ipc.aem4 : Ipc.obj (.text:NameServer_getHandle)

.const.49 
*          0    000108ec    00000004     
                  000108ec    00000004     fault_pem4.oem4 (.const:ti_sdo_ipc_family_vayu_InterruptIpu_Module__diagsIncluded__C)

.text.50   0    000108f0    0000007c     
                  000108f0    0000007c     ipc.aem4 : Ipc.obj (.text:ti_sdo_ipc_MessageQ_Module_startup__E)

.const.50 
*          0    0001096c    00000004     
                  0001096c    00000004     fault_pem4.oem4 (.const:ti_sdo_ipc_family_vayu_InterruptIpu_Module__diagsMask__C)

.text.51   0    00010970    00000334     
                  00010970    0000007c     sysbios.aem4 : BIOS.obj (.text:ti_sysbios_family_arm_ducati_GateDualCore_Module_startup__E)
                  000109ec    0000007a     rtsv7M4_T_le_eabi.lib : memset_t2.obj (.text)
                  00010a66    00000002     --HOLE-- [fill = 0]
                  00010a68    00000078     sysbios.aem4 : BIOS.obj (.text:ti_sysbios_timers_dmtimer_Timer_Module_startup__E)
                  00010ae0    00000074                  : BIOS.obj (.text:ti_sysbios_family_arm_m3_Hwi_postInit__I)
                  00010b54    00000070     fault_pem4.oem4 (.text:ti_ipc_transports_TransportRpmsg_Object__create__S)
                  00010bc4    0000006e     ti.deh_vayu_smp.aem4 : Watchdog.oem4 (.text:initTimer)
                  00010c32    00000006     ti.targets.arm.rtsarm.aem4 : LoggerSys.oem4 (.text:xdc_runtime_LoggerSys_Instance_init__E)
                  00010c38    0000006c     sysbios.aem4 : BIOS.obj (.text:ti_sysbios_gates_GateMutexPri_leave__E)

.const.51 
*          0    00010ca4    00000004     
                  00010ca4    00000004     fault_pem4.oem4 (.const:ti_sdo_ipc_family_vayu_InterruptIpu_ducatiCtrlBaseAddr__C)

.text.52   0    00010ca8    000001ac     
                  00010ca8    0000006c     sysbios.aem4 : BIOS.obj (.text:ti_sysbios_knl_Swi_restoreHwi__E)
                  00010d14    0000006c     ti.targets.arm.rtsarm.aem4 : Error.oem4 (.text:xdc_runtime_Error_print__E)
                  00010d80    0000006c                                : Memory.oem4 (.text:xdc_runtime_Memory_alloc__E)
                  00010dec    00000068     fault_pem4.oem4 (.text:ti_ipc_transports_TransportRpmsg_create)

.const.52 
*          0    00010e54    00000004     
                  00010e54    00000004     fault_pem4.oem4 (.const:ti_sdo_ipc_family_vayu_InterruptIpu_ipu1_0ProcId__C)

.text.53   0    00010e58    0000076c     
                  00010e58    00000068     sysbios.aem4 : BIOS.obj (.text:ti_sysbios_family_arm_ducati_Timer_Module_startup__E)
                  00010ec0    00000068     fault_pem4.oem4 (.text:ti_sysbios_family_arm_m3_Hwi_create)
                  00010f28    00000068     fault_pem4.oem4 (.text:ti_sysbios_heaps_HeapBuf_Object__create__S)
                  00010f90    00000068     fault_pem4.oem4 (.text:ti_sysbios_syncs_SyncSem_Object__create__S)
                  00010ff8    00000068     sysbios.aem4 : BIOS.obj (.text:ti_sysbios_timers_dmtimer_Timer_getHandle__E)
                  00011060    00000068     fault_pem4.oem4 (.text:xdc_runtime_knl_GateThread_Object__create__S)
                  000110c8    00000066     rtsv7M4_T_le_eabi.lib : xdunscal.obj (.text)
                  0001112e    00000066     ti.targets.arm.rtsarm.aem4 : Core-mem.oem4 (.text:xdc_runtime_Core_deleteObject__I)
                  00011194    00000064     fault_pem4.oem4 (.text:ti_sdo_ipc_MessageQ_create)
                  000111f8    00000064     fault_pem4.oem4 (.text:ti_sysbios_family_arm_ducati_GateDualCore_Object__create__S)
                  0001125c    00000064     fault_pem4.oem4 (.text:ti_sysbios_knl_Swi_create)
                  000112c0    00000064     fault_pem4.oem4 (.text:ti_sysbios_knl_Task_create)
                  00011324    00000064     ti.targets.arm.rtsarm.aem4 : System.oem4 (.text:xdc_runtime_System_formatNum__I)
                  00011388    00000060     rtsv7M4_T_le_eabi.lib : sprintf.obj (.text)
                  000113e8    00000060     sysbios.aem4 : BIOS.obj (.text:ti_sysbios_family_arm_ducati_Timer_initDevice__I)
                  00011448    00000060                  : BIOS.obj (.text:ti_sysbios_knl_Clock_logTick__E)
                  000114a8    00000060     fault_pem4.oem4 (.text:ti_sysbios_syncs_SyncSem_create)
                  00011508    00000060     fault_pem4.oem4 (.text:xdc_runtime_knl_GateThread_create)
                  00011568    0000005c     ti.deh_vayu_smp.aem4 : Watchdog.oem4 (.text:ti_deh_Watchdog_restore__I)

.const.53 
*          0    000115c4    00000004     
                  000115c4    00000004     fault_pem4.oem4 (.const:ti_sdo_ipc_family_vayu_InterruptIpu_ipu1_1ProcId__C)

.text.54   0    000115c8    00000113     
                  000115c8    0000005c     sysbios.aem4 : BIOS.obj (.text:ti_sysbios_knl_Swi_schedule__I)
                  00011624    0000005c     ti.targets.arm.rtsarm.aem4 : Registry.oem4 (.text:xdc_runtime_Registry_addModule__E)
                  00011680    0000005b                                : Text.oem4 (.text:xdc_runtime_Text_putLab__E)

.const.54 
*          0    000116dc    00000004     
                  000116dc    00000004     fault_pem4.oem4 (.const:ti_sdo_ipc_family_vayu_InterruptIpu_ipu2_0ProcId__C)

.text.55   0    000116e0    0000046c     
                  000116e0    00000058     sysbios.aem4 : BIOS.obj (.text:ti_sysbios_family_arm_ducati_TimestampProvider_Module_startup__E)
                  00011738    00000058                  : BIOS.obj (.text:ti_sysbios_knl_Swi_postInit__I)
                  00011790    00000058                  : BIOS.obj (.text:ti_sysbios_timers_dmtimer_Timer_initDevice__I)
                  000117e8    00000056     rtsv7M4_T_le_eabi.lib : ltoa.obj (.text)
                  0001183e    00000002     --HOLE-- [fill = 0]
                  00011840    00000054     ti.targets.arm.rtsarm.aem4 : Assert.oem4 (.text:xdc_runtime_Assert_raise__I)
                  00011894    00000050     fault.oem4 (.text:main)
                  000118e4    00000050     ti.targets.arm.rtsarm.aem4 : Startup.oem4 (.text:xdc_runtime_Startup_exec__E)
                  00011934    00000050                                : Text.oem4 (.text:xdc_runtime_Text_visitRope2__I)
                  00011984    0000004c     rtsv7M4_T_le_eabi.lib : atoi.obj (.text)
                  000119d0    0000004c                           : cpy_tbl.obj (.text)
                  00011a1c    0000004c     ti.deh_vayu_smp.aem4 : Watchdog.oem4 (.text:ti_deh_Watchdog_start__I)
                  00011a68    0000004c     ipc.aem4 : Ipc.obj (.text:ti_sdo_ipc_family_vayu_InterruptIpu_intShmDucatiStub__I)
                  00011ab4    0000004c     sysbios.aem4 : m3_TaskSupport_asm.obj (.text:ti_sysbios_family_arm_m3_TaskSupport_buildTaskStack)
                  00011b00    0000004c                  : BIOS.obj (.text:ti_sysbios_heaps_HeapBuf_postInit__I)

.const.55 
*          0    00011b4c    00000004     
                  00011b4c    00000004     fault_pem4.oem4 (.const:ti_sdo_ipc_family_vayu_InterruptIpu_ipu2_1ProcId__C)

.text.56   0    00011b50    0000004c     
                  00011b50    0000004c     sysbios.aem4 : BIOS.obj (.text:ti_sysbios_heaps_HeapMem_getStats__E)

.const.56 
*          0    00011b9c    00000004     
                  00011b9c    00000004     fault_pem4.oem4 (.const:ti_sdo_ipc_interfaces_IMessageQTransport_Interface__BASE__C)

.text.57   0    00011ba0    0000004c     
                  00011ba0    0000004c     sysbios.aem4 : BIOS.obj (.text:ti_sysbios_knl_Swi_runLoop__I)

.const.57 
*          0    00011bec    00000004     
                  00011bec    00000004     fault_pem4.oem4 (.const:ti_sdo_ipc_interfaces_INetworkTransport_Interface__BASE__C)

.text.58   0    00011bf0    00000474     
                  00011bf0    0000004c     sysbios.aem4 : BIOS.obj (.text:ti_sysbios_knl_Task_allBlockedFunction__I)
                  00011c3c    0000004a     ti.targets.arm.rtsarm.aem4 : LoggerSys.oem4 (.text:xdc_runtime_LoggerSys_write8__E)
                  00011c86    00000048     rtsv7M4_T_le_eabi.lib : fd_toi_t2.obj (.text)
                  00011cce    00000002     --HOLE-- [fill = 0]
                  00011cd0    00000048     ti.deh_vayu_smp.aem4 : Watchdog.oem4 (.text:ti_deh_Watchdog_isException__F)
                  00011d18    00000048     fault_pem4.oem4 (.text:ti_ipc_namesrv_NameServerRemoteRpmsg_Object__create__S)
                  00011d60    00000048     sysbios.aem4 : BIOS.obj (.text:ti_sysbios_family_arm_m3_Hwi_disableInterrupt__E)
                  00011da8    00000048                  : BIOS.obj (.text:ti_sysbios_family_arm_m3_Hwi_enableInterrupt__E)
                  00011df0    00000048                  : BIOS.obj (.text:ti_sysbios_family_arm_m3_Hwi_excReserved__I)
                  00011e38    00000048                  : m3_Hwi_asm_switch.obj (.text:ti_sysbios_family_arm_m3_Hwi_initStacks__E)
                  00011e80    00000048                  : BIOS.obj (.text:ti_sysbios_family_shared_vayu_TimerSupport_enable__E)
                  00011ec8    00000046     rtsv7M4_T_le_eabi.lib : ldexp.obj (.text)
                  00011f0e    00000046     ti.targets.arm.rtsarm.aem4 : Core-params.oem4 (.text:xdc_runtime_Core_assignParams__I)
                  00011f54    00000044     boot.aem4 : boot.oem4 (.text)
                  00011f98    00000044     rtsv7M4_T_le_eabi.lib : exit.obj (.text)
                  00011fdc    00000044     fault_pem4.oem4 (.text:ti_ipc_namesrv_NameServerRemoteRpmsg_create)
                  00012020    00000044     sysbios.aem4 : BIOS.obj (.text:ti_sysbios_family_arm_ducati_TimestampProvider_get32__E)

.const.58 
*          0    00012064    00000004     
                  00012064    00000004     fault_pem4.oem4 (.const:ti_sdo_ipc_interfaces_ITransport_Interface__BASE__C)

.text.59   0    00012068    00000044     
                  00012068    00000044     sysbios.aem4 : BIOS.obj (.text:ti_sysbios_family_arm_m3_Hwi_getStackInfo__E)

.const.59 
*          0    000120ac    00000004     
                  000120ac    00000004     fault_pem4.oem4 (.const:ti_sdo_utils_INameServerRemote_Interface__BASE__C)

.text.60   0    000120b0    00000044     
                  000120b0    00000044     sysbios.aem4 : BIOS.obj (.text:ti_sysbios_hal_unicache_Cache_wbAll__E)

.const.60 
*          0    000120f4    00000004     
                  000120f4    00000004     fault_pem4.oem4 (.const:ti_sdo_utils_MultiProc_A_invalidMultiProcId__C)

.text.61   0    000120f8    0000030c     
                  000120f8    00000044     sysbios.aem4 : BIOS.obj (.text:ti_sysbios_timers_dmtimer_Timer_startup__E)
                  0001213c    00000044     ti.targets.arm.rtsarm.aem4 : Error.oem4 (.text:xdc_runtime_Error_setX__E)
                  00012180    00000044                                : Text.oem4 (.text:xdc_runtime_Text_xprintf__I)
                  000121c4    00000040     rtsv7M4_T_le_eabi.lib : signal.obj (.text)
                  00012204    00000040                           : u_divt2.obj (.text)
                  00012244    00000040     fault_pem4.oem4 (.text:ti_sdo_ipc_MessageQ_Object__get__S)
                  00012284    00000040     fault_pem4.oem4 (.text:ti_sdo_utils_NameServer_Object__get__S)
                  000122c4    00000040     fault_pem4.oem4 (.text:ti_sysbios_family_arm_m3_Hwi_Object__get__S)
                  00012304    00000040     fault_pem4.oem4 (.text:ti_sysbios_gates_GateHwi_Object__create__S)
                  00012344    00000040     fault_pem4.oem4 (.text:ti_sysbios_gates_GateMutexPri_Object__create__S)
                  00012384    00000040     fault_pem4.oem4 (.text:ti_sysbios_gates_GateMutex_Object__create__S)
                  000123c4    00000040     fault_pem4.oem4 (.text:ti_sysbios_gates_GateSwi_Object__create__S)

.const.61 
*          0    00012404    00000004     
                  00012404    00000004     fault_pem4.oem4 (.const:ti_sdo_utils_MultiProc_A_invalidProcName__C)

.text.62   0    00012408    000002f4     
                  00012408    00000040     sysbios.aem4 : BIOS.obj (.text:ti_sysbios_hal_unicache_Cache_seizeRegs__I)
                  00012448    00000040     fault_pem4.oem4 (.text:ti_sysbios_heaps_HeapBuf_Object__get__S)
                  00012488    00000040     fault_pem4.oem4 (.text:ti_sysbios_heaps_HeapMem_Object__create__S)
                  000124c8    00000040     fault_pem4.oem4 (.text:ti_sysbios_heaps_HeapMem_Object__get__S)
                  00012508    00000040     fault_pem4.oem4 (.text:ti_sysbios_knl_Semaphore_create)
                  00012548    00000040     fault_pem4.oem4 (.text:ti_sysbios_knl_Swi_Object__get__S)
                  00012588    00000040     fault_pem4.oem4 (.text:ti_sysbios_knl_Task_Object__get__S)
                  000125c8    00000040     fault_pem4.oem4 (.text:ti_sysbios_xdcruntime_GateThreadSupport_Object__create__S)
                  00012608    00000040     fault_pem4.oem4 (.text:xdc_runtime_LoggerSys_Object__create__S)
                  00012648    0000003c     ti.deh_vayu_smp.aem4 : Watchdog.oem4 (.text:ti_deh_Watchdog_stop__I)
                  00012684    0000003c     fault_pem4.oem4 (.text:ti_sdo_utils_List_create)
                  000126c0    0000003c     sysbios.aem4 : BIOS.obj (.text:ti_sysbios_family_arm_ducati_Core_Module_startup__E)

.const.62 
*          0    000126fc    00000004     
                  000126fc    00000004     fault_pem4.oem4 (.const:ti_sdo_utils_MultiProc_Module__diagsEnabled__C)

.text.63   0    00012700    0000003c     
                  00012700    0000003c     sysbios.aem4 : BIOS.obj (.text:ti_sysbios_family_arm_m3_Hwi_excSvCall__I)

.const.63 
*          0    0001273c    00000004     
                  0001273c    00000004     fault_pem4.oem4 (.const:ti_sdo_utils_MultiProc_Module__diagsIncluded__C)

.text.64   0    00012740    000000b4     
                  00012740    0000003c     sysbios.aem4 : BIOS.obj (.text:ti_sysbios_family_arm_m3_TaskSupport_start__E)
                  0001277c    0000003c     fault_pem4.oem4 (.text:ti_sysbios_gates_GateHwi_create)
                  000127b8    0000003c     sysbios.aem4 : BIOS.obj (.text:ti_sysbios_gates_GateSwi_leave__E)

.const.64 
*          0    000127f4    00000004     
                  000127f4    00000004     fault_pem4.oem4 (.const:ti_sdo_utils_MultiProc_Module__diagsMask__C)

.text.65   0    000127f8    0000003c     
                  000127f8    0000003c     sysbios.aem4 : BIOS.obj (.text:ti_sysbios_heaps_HeapMem_init__I)

.const.65 
*          0    00012834    00000004     
                  00012834    00000004     fault_pem4.oem4 (.const:ti_sdo_utils_MultiProc_nameList__C)

.text.66   0    00012838    0000003c     
                  00012838    0000003c     sysbios.aem4 : BIOS.obj (.text:ti_sysbios_knl_Swi_startup__E)

.const.66 
*          0    00012874    00000004     
                  00012874    00000004     fault_pem4.oem4 (.const:ti_sdo_utils_NameServer_A_invArgument__C)

.text.67   0    00012878    00000354     
                  00012878    0000003c     sysbios.aem4 : BIOS.obj (.text:ti_sysbios_syncs_SyncSem_wait__E)
                  000128b4    0000003c     fault_pem4.oem4 (.text:ti_sysbios_timers_dmtimer_Timer_Object__get__S)
                  000128f0    0000003c     sysbios.aem4 : BIOS.obj (.text:ti_sysbios_timers_dmtimer_Timer_stop__E)
                  0001292c    0000003c     ti.trace.aem4 : SysMin.oem4 (.text:ti_trace_SysMin_abort__E)
                  00012968    00000038                   : SysMin.oem4 (.text:SysMin_output)
                  000129a0    00000038     ti.deh_vayu_smp.aem4 : Watchdog.oem4 (.text:ti_deh_Watchdog_kick__I)
                  000129d8    00000038     fault_pem4.oem4 (.text:ti_ipc_remoteproc_Resource_init__I)
                  00012a10    00000038     fault_pem4.oem4 (.text:ti_sysbios_family_arm_ducati_GateDualCore_Object__get__S)
                  00012a48    00000038     sysbios.aem4 : BIOS.obj (.text:ti_sysbios_family_arm_ducati_TimestampProvider_get64__E)
                  00012a80    00000038                  : BIOS.obj (.text:ti_sysbios_family_arm_m3_Hwi_excNoIsr__I)
                  00012ab8    00000038     fault_pem4.oem4 (.text:ti_sysbios_knl_Clock_doTick__I)
                  00012af0    00000038     fault_pem4.oem4 (.text:ti_sysbios_knl_Queue_Object__get__S)
                  00012b28    00000038     sysbios.aem4 : BIOS.obj (.text:ti_sysbios_knl_Task_processVitalTaskFlag__I)
                  00012b60    00000038     ti.targets.arm.rtsarm.aem4 : System.oem4 (.text:xdc_runtime_System_atexit__E)
                  00012b98    00000034     rtsv7M4_T_le_eabi.lib : feraiseexcept.obj (.text)

.const.67 
*          0    00012bcc    00000004     
                  00012bcc    00000004     fault_pem4.oem4 (.const:ti_sdo_utils_NameServer_A_invalidLen__C)

.text.68   0    00012bd0    00000034     
                  00012bd0    00000034     sysbios.aem4 : BIOS.obj (.text:ti_sysbios_family_arm_m3_Hwi_excNmi__I)

.const.68 
*          0    00012c04    00000004     
                  00012c04    00000004     fault_pem4.oem4 (.const:ti_sdo_utils_NameServer_E_entryExists__C)

.text.69   0    00012c08    00000454     
                  00012c08    00000034     sysbios.aem4 : BIOS.obj (.text:ti_sysbios_hal_Hwi_checkStack)
                  00012c3c    00000034     fault_pem4.oem4 (.text:ti_sysbios_knl_Semaphore_construct)
                  00012c70    00000034     ti.targets.arm.rtsarm.aem4 : Core-label.oem4 (.text:xdc_runtime_Core_assignLabel__I)
                  00012ca4    00000033                                : Text.oem4 (.text:xdc_runtime_Text_printVisFxn__I)
                  00012cd7    00000001     --HOLE-- [fill = 0]
                  00012cd8    00000032     sysbios.aem4 : BIOS.obj (.text:ti_sysbios_hal_Hwi_initStack)
                  00012d0a    00000006     ti.targets.arm.rtsarm.aem4 : System.oem4 (.text:xdc_runtime_System_Module_startup__E)
                  00012d10    00000032     sysbios.aem4 : BIOS.obj (.text:ti_sysbios_knl_Semaphore_pendTimeout__I)
                  00012d42    00000030     rtsv7M4_T_le_eabi.lib : strncpy.obj (.text)
                  00012d72    00000002     --HOLE-- [fill = 0]
                  00012d74    00000030                           : xferaise.obj (.text)
                  00012da4    00000030     fault_pem4.oem4 (.text:ti_sdo_utils_List_construct)
                  00012dd4    00000030     fault_pem4.oem4 (.text:ti_sysbios_BIOS_atExitFunc__I)
                  00012e04    00000030     fault_pem4.oem4 (.text:ti_sysbios_BIOS_errorRaiseHook__I)
                  00012e34    00000030     fault_pem4.oem4 (.text:ti_sysbios_BIOS_rtsLock__I)
                  00012e64    00000030     fault_pem4.oem4 (.text:ti_sysbios_gates_GateMutexPri_construct)
                  00012e94    00000030     fault_pem4.oem4 (.text:ti_sysbios_knl_Queue_construct)
                  00012ec4    00000030     ti.targets.arm.rtsarm.aem4 : System.oem4 (.text:xdc_runtime_System_processAtExit__E)
                  00012ef4    0000002e     rtsv7M4_T_le_eabi.lib : i_tofd_t2.obj (.text)
                  00012f22    0000002e                           : raise.obj (.text)
                  00012f50    0000002e     sysbios.aem4 : BIOS.obj (.text:ti_sysbios_heaps_HeapBuf_getStats__E)
                  00012f7e    0000002e     fault_pem4.oem4 (.text:xdc_runtime_System_sprintf__E)
                  00012fac    0000002c     ti.deh_vayu_smp.aem4 : StackDbg.oem4 (.text:decode_bl32)
                  00012fd8    0000002c     fault_pem4.oem4 (.text:ti_ipc_transports_TransportRpmsg_Params__init__S)
                  00013004    0000002c     fault_pem4.oem4 (.text:ti_sdo_ipc_MessageQ_Params__init__S)
                  00013030    0000002c     fault_pem4.oem4 (.text:ti_sysbios_BIOS_startFunc__I)

.const.69 
*          0    0001305c    00000004     
                  0001305c    00000004     fault_pem4.oem4 (.const:ti_sdo_utils_NameServer_E_maxReached__C)

.text.70   0    00013060    00000254     
                  00013060    0000002c     sysbios.aem4 : BIOS.obj (.text:ti_sysbios_family_arm_m3_Hwi_Instance_finalize__E)
                  0001308c    0000002c     fault_pem4.oem4 (.text:ti_sysbios_family_arm_m3_Hwi_Params__init__S)
                  000130b8    0000002c     fault_pem4.oem4 (.text:ti_sysbios_gates_GateHwi_Params__init__S)
                  000130e4    0000002c     fault_pem4.oem4 (.text:ti_sysbios_knl_Semaphore_Params__init__S)
                  00013110    0000002c     sysbios.aem4 : BIOS.obj (.text:ti_sysbios_knl_Task_restore__E)
                  0001313c    0000002c     ti.trace.aem4 : SysMin.oem4 (.text:ti_trace_SysMin_Module_startup__E)
                  00013168    0000002c     ti.targets.arm.rtsarm.aem4 : Text.oem4 (.text:xdc_runtime_Text_cordText__E)
                  00013194    0000002a     rtsv7M4_T_le_eabi.lib : xdclass.obj (.text)
                  000131be    0000002a     fault_pem4.oem4 (.text:ti_ipc_namesrv_NameServerRemoteRpmsg_get__E)
                  000131e8    0000002a     ti.targets.arm.rtsarm.aem4 : System.oem4 (.text:xdc_runtime_System_putchar__I)
                  00013212    00000002     --HOLE-- [fill = 0]
                  00013214    00000028     fault_pem4.oem4 (.text:ti_ipc_namesrv_NameServerRemoteRpmsg_Object__delete__S)
                  0001323c    00000028     fault_pem4.oem4 (.text:ti_ipc_namesrv_NameServerRemoteRpmsg_Object__next__S)
                  00013264    00000028     fault_pem4.oem4 (.text:ti_ipc_transports_TransportRpmsg_Object__delete__S)
                  0001328c    00000028     fault_pem4.oem4 (.text:ti_sdo_utils_NameServer_Object__next__S)

.const.70 
*          0    000132b4    00000004     
                  000132b4    00000004     fault_pem4.oem4 (.const:ti_sdo_utils_NameServer_Instance_State_freeList__O)

.text.71   0    000132b8    0000036c     
                  000132b8    00000028     sysbios.aem4 : BIOS.obj (.text:ti_sysbios_family_arm_ducati_TimestampProvider_getFreq__E)
                  000132e0    00000028     fault_pem4.oem4 (.text:ti_sysbios_gates_GateMutexPri_Object__delete__S)
                  00013308    00000028     fault_pem4.oem4 (.text:ti_sysbios_gates_GateMutex_Object__delete__S)
                  00013330    00000028     fault_pem4.oem4 (.text:ti_sysbios_heaps_HeapBuf_Object__delete__S)
                  00013358    00000028     fault_pem4.oem4 (.text:ti_sysbios_knl_Semaphore_Object__delete__S)
                  00013380    00000028     fault_pem4.oem4 (.text:ti_sysbios_knl_Swi_Object__delete__S)
                  000133a8    00000028     fault_pem4.oem4 (.text:ti_sysbios_syncs_SyncSem_Object__delete__S)
                  000133d0    00000028     fault_pem4.oem4 (.text:ti_sysbios_xdcruntime_GateThreadSupport_Object__delete__S)
                  000133f8    00000028     fault_pem4.oem4 (.text:xdc_runtime_System_aprintf__E)
                  00013420    00000028     fault_pem4.oem4 (.text:xdc_runtime_System_printf__E)
                  00013448    00000028     fault_pem4.oem4 (.text:xdc_runtime_knl_GateThread_Object__delete__S)
                  00013470    00000026     ti.targets.arm.rtsarm.aem4 : System.oem4 (.text:xdc_runtime_System_avprintf__E)
                  00013496    00000026     fault_pem4.oem4 (.text:xdc_runtime_knl_GateThread_Proxy_Object__create__S)
                  000134bc    00000024     ti.deh_vayu_smp.aem4 : Watchdog.oem4 (.text:ti_deh_Watchdog_taskSwitch__F)
                  000134e0    00000024     fault_pem4.oem4 (.text:ti_ipc_namesrv_NameServerRemoteRpmsg_Object__first__S)
                  00013504    00000024     fault_pem4.oem4 (.text:ti_sdo_utils_NameServer_Object__first__S)
                  00013528    00000024     fault_pem4.oem4 (.text:ti_sysbios_BIOS_registerRTSLock__I)
                  0001354c    00000024     fault_pem4.oem4 (.text:ti_sysbios_family_arm_ducati_GateDualCore_Object__delete__S)
                  00013570    00000024     sysbios.aem4 : BIOS.obj (.text:ti_sysbios_family_arm_m3_Hwi_doTaskRestore__I)
                  00013594    00000024     fault_pem4.oem4 (.text:ti_sysbios_gates_GateHwi_Object__delete__S)
                  000135b8    00000024     fault_pem4.oem4 (.text:ti_sysbios_gates_GateSwi_Object__delete__S)
                  000135dc    00000024     fault_pem4.oem4 (.text:ti_sysbios_heaps_HeapMem_Object__delete__S)
                  00013600    00000024     fault_pem4.oem4 (.text:ti_sysbios_knl_Task_Handle__label__S)

.const.71 
*          0    00013624    00000004     
                  00013624    00000004     fault_pem4.oem4 (.const:ti_sdo_utils_NameServer_Instance_State_nameList__O)

.text.72   0    00013628    00000354     
                  00013628    00000024     sysbios.aem4 : BIOS.obj (.text:ti_sysbios_timers_dmtimer_Timer_stub__E)
                  0001364c    00000024     fault_pem4.oem4 (.text:xdc_runtime_LoggerSys_Object__delete__S)
                  00013670    00000024     ti.targets.arm.rtsarm.aem4 : LoggerSys.oem4 (.text:xdc_runtime_LoggerSys_write4__E)
                  00013694    00000024                                : System.oem4 (.text:xdc_runtime_System_vprintf__E)
                  000136b8    00000022     rtsv7M4_T_le_eabi.lib : frexp.obj (.text)
                  000136da    00000022     fault_pem4.oem4 (.text:ti_deh_StackDbg_walkStack__E)
                  000136fc    00000022     ti.deh_vayu_smp.aem4 : Watchdog.oem4 (.text:ti_deh_Watchdog_swiPrehook__F)
                  0001371e    00000022     fault_pem4.oem4 (.text:ti_ipc_namesrv_NameServerRemoteRpmsg_Handle__label__S)
                  00013740    00000022     fault_pem4.oem4 (.text:ti_ipc_transports_TransportRpmsg_Handle__label__S)
                  00013762    00000022     fault_pem4.oem4 (.text:ti_sysbios_family_arm_ducati_GateDualCore_Handle__label__S)
                  00013784    00000022     fault_pem4.oem4 (.text:ti_sysbios_gates_GateHwi_Handle__label__S)
                  000137a6    00000022     fault_pem4.oem4 (.text:ti_sysbios_gates_GateMutexPri_Handle__label__S)
                  000137c8    00000022     fault_pem4.oem4 (.text:ti_sysbios_gates_GateMutex_Handle__label__S)
                  000137ea    00000022     fault_pem4.oem4 (.text:ti_sysbios_gates_GateSwi_Handle__label__S)
                  0001380c    00000022     fault_pem4.oem4 (.text:ti_sysbios_heaps_HeapBuf_Handle__label__S)
                  0001382e    00000022     fault_pem4.oem4 (.text:ti_sysbios_heaps_HeapMem_Handle__label__S)
                  00013850    00000022     fault_pem4.oem4 (.text:ti_sysbios_knl_Swi_Handle__label__S)
                  00013872    00000022     fault_pem4.oem4 (.text:ti_sysbios_syncs_SyncSem_Handle__label__S)
                  00013894    00000022     fault_pem4.oem4 (.text:xdc_runtime_LoggerSys_Handle__label__S)
                  000138b6    00000022     ti.targets.arm.rtsarm.aem4 : Registry.oem4 (.text:xdc_runtime_Registry_findByNameInList__I)
                  000138d8    00000022     fault_pem4.oem4 (.text:xdc_runtime_knl_GateThread_Handle__label__S)
                  000138fa    00000022     fault_pem4.oem4 (.text:xdc_runtime_knl_GateThread_Proxy_create)
                  0001391c    00000020     ti.deh_vayu_smp.aem4 : Deh.oem4 (.text:ti_deh_Deh_Module_startup__E)
                  0001393c    00000020                          : Watchdog.oem4 (.text:ti_deh_Watchdog_idleBegin__F)
                  0001395c    00000020     fault_pem4.oem4 (.text:ti_sysbios_BIOS_removeRTSLock__I)

.const.72 
*          0    0001397c    00000004     
                  0001397c    00000004     fault_pem4.oem4 (.const:ti_sdo_utils_NameServer_Module__diagsEnabled__C)

.text.73   0    00013980    0000031c     
                  00013980    00000020     sysbios.aem4 : BIOS.obj (.text:ti_sysbios_family_arm_m3_Hwi_clearInterrupt__E)
                  000139a0    00000020                  : m3_Hwi_asm.obj (.text:ti_sysbios_family_arm_m3_Hwi_excHandlerAsm__I)
                  000139c0    00000020                  : BIOS.obj (.text:ti_sysbios_family_arm_m3_Hwi_excHandler__I)
                  000139e0    00000020     fault_pem4.oem4 (.text:ti_sysbios_gates_GateMutexPri_Object__destruct__S)
                  00013a00    00000020     fault_pem4.oem4 (.text:ti_sysbios_hal_Cache_CacheProxy_inv__E)
                  00013a20    00000020     sysbios.aem4 : BIOS.obj (.text:ti_sysbios_knl_Idle_run__E)
                  00013a40    00000020     fault_pem4.oem4 (.text:ti_sysbios_knl_Semaphore_Object__destruct__S)
                  00013a60    00000020     sysbios.aem4 : BIOS.obj (.text:ti_sysbios_timers_dmtimer_Timer_getFreq__E)
                  00013a80    00000020     ti.trace.aem4 : SysMin.oem4 (.text:ti_trace_SysMin_exit__E)
                  00013aa0    00000020     fault_pem4.oem4 (.text:xdc_runtime_IHeap_alloc)
                  00013ac0    00000020     ti.targets.arm.rtsarm.aem4 : LoggerSys.oem4 (.text:xdc_runtime_LoggerSys_write2__E)
                  00013ae0    00000020                                : Registry.oem4 (.text:xdc_runtime_Registry_findById__E)
                  00013b00    00000020     fault_pem4.oem4 (.text:xdc_runtime_Text_visitRope__I)
                  00013b20    0000001e     sysbios.aem4 : m3_Hwi_asm_switch.obj (.text:ti_sysbios_family_xxx_Hwi_switchAndRunFunc)
                  00013b3e    0000001e     fault_pem4.oem4 (.text:ti_sysbios_knl_Task_SupportProxy_start__E)
                  00013b5c    0000001e     ti.targets.arm.rtsarm.aem4 : LoggerSys.oem4 (.text:xdc_runtime_LoggerSys_write0__E)
                  00013b7a    0000001e                                : LoggerSys.oem4 (.text:xdc_runtime_LoggerSys_write1__E)
                  00013b98    0000001e     fault_pem4.oem4 (.text:xdc_runtime_Memory_HeapProxy_alloc__E)
                  00013bb6    0000001c     rtsv7M4_T_le_eabi.lib : memccpy.obj (.text)
                  00013bd2    00000006     ti.targets.arm.rtsarm.aem4 : GateThread.oem4 (.text:xdc_runtime_knl_GateThread_enter__E)
                  00013bd8    0000001c     ipc.aem4 : Ipc.obj (.text:ti_sdo_ipc_family_vayu_InterruptIpu_intShmMbxStub__I)
                  00013bf4    0000001c     fault_pem4.oem4 (.text:ti_sdo_utils_List_Object__destruct__S)
                  00013c10    0000001c     fault_pem4.oem4 (.text:ti_sdo_utils_NameServer_Module__startupDone__F)
                  00013c2c    0000001c     fault_pem4.oem4 (.text:ti_sysbios_family_arm_ducati_Timer_Module__startupDone__F)
                  00013c48    0000001c     fault_pem4.oem4 (.text:ti_sysbios_family_arm_ducati_Wugen_Module__startupDone__F)
                  00013c64    0000001c     fault_pem4.oem4 (.text:ti_sysbios_family_arm_m3_Hwi_Module__startupDone__F)
                  00013c80    0000001c     fault_pem4.oem4 (.text:ti_sysbios_family_shared_vayu_TimerSupport_Module__startupDone__F)

.const.73 
*          0    00013c9c    00000004     
                  00013c9c    00000004     fault_pem4.oem4 (.const:ti_sdo_utils_NameServer_Module__diagsIncluded__C)

.text.74   0    00013ca0    0000001c     
                  00013ca0    0000001c     sysbios.aem4 : BIOS.obj (.text:ti_sysbios_gates_GateMutexPri_Instance_init__E)

.const.74 
*          0    00013cbc    00000004     
                  00013cbc    00000004     fault_pem4.oem4 (.const:ti_sdo_utils_NameServer_Module__diagsMask__C)

.text.75   0    00013cc0    00000174     
                  00013cc0    0000001c     sysbios.aem4 : BIOS.obj (.text:ti_sysbios_gates_GateMutex_Instance_init__E)
                  00013cdc    0000001c     fault_pem4.oem4 (.text:ti_sysbios_knl_Queue_Object__destruct__S)
                  00013cf8    0000001c     sysbios.aem4 : BIOS.obj (.text:ti_sysbios_knl_Task_enter__I)
                  00013d14    0000001c     fault_pem4.oem4 (.text:ti_sysbios_timers_dmtimer_Timer_Module__startupDone__F)
                  00013d30    0000001c     ti.targets.arm.rtsarm.aem4 : Error.oem4 (.text:xdc_runtime_Error_raiseX__E)
                  00013d4c    0000001c                                : Memory.oem4 (.text:xdc_runtime_Memory_valloc__E)
                  00013d68    0000001c     fault_pem4.oem4 (.text:xdc_runtime_Startup_exec__I)
                  00013d84    0000001c     ti.targets.arm.rtsarm.aem4 : System.oem4 (.text:xdc_runtime_System_abort__E)
                  00013da0    0000001a     sysbios.aem4 : m3_Hwi_asm.obj (.text:ti_sysbios_family_arm_m3_Hwi_pendSV__I)
                  00013dba    0000001a     fault_pem4.oem4 (.text:xdc_runtime_IHeap_free)
                  00013dd4    00000018     rtsv7M4_T_le_eabi.lib : args_main.obj (.text)
                  00013dec    00000018                           : strcmp.obj (.text)
                  00013e04    00000018     fault_pem4.oem4 (.text:ti_sdo_ipc_MessageQ_registerTransport__E)
                  00013e1c    00000018     fault_pem4.oem4 (.text:ti_sdo_ipc_family_vayu_NotifySetup_plugHwi__E)

.const.75 
*          0    00013e34    00000004     
                  00013e34    00000004     fault_pem4.oem4 (.const:ti_sdo_utils_NameServer_Object__count__C)

.text.76   0    00013e38    00000174     
                  00013e38    00000018     sysbios.aem4 : BIOS.obj (.text:ti_sysbios_gates_GateMutex_leave__E)
                  00013e50    00000018     ti.targets.arm.rtsarm.aem4 : Error.oem4 (.text:xdc_runtime_Error_check__E)
                  00013e68    00000018                                : System.oem4 (.text:xdc_runtime_System_exit__E)
                  00013e80    00000018                                : Text.oem4 (.text:xdc_runtime_Text_ropeText__E)
                  00013e98    00000016     rtsv7M4_T_le_eabi.lib : strchr.obj (.text)
                  00013eae    00000016     fault_pem4.oem4 (.text:ti_sysbios_BIOS_exitFunc__I)
                  00013ec4    00000016     ti.deh_vayu_smp.aem4 : Watchdog.oem4 (.text:ti_sysbios_family_arm_m3_Hwi_Params_init)
                  00013eda    00000016                          : Deh.oem4 (.text:ti_sysbios_knl_Swi_Handle_name)
                  00013ef0    00000016                          : Deh.oem4 (.text:ti_sysbios_knl_Task_Handle_name)
                  00013f06    00000016     ti.targets.arm.rtsarm.aem4 : System.oem4 (.text:xdc_runtime_System_vsprintf__E)
                  00013f1c    00000016                                : GateThread.oem4 (.text:xdc_runtime_knl_GateThread_Instance_init__E)
                  00013f32    00000002     --HOLE-- [fill = 0]
                  00013f34    00000014     rtsv7M4_T_le_eabi.lib : _lock.obj (.text)
                  00013f48    00000014                           : strlen.obj (.text)
                  00013f5c    00000014     fault_pem4.oem4 (.text:ti_sdo_ipc_MessageQ_unregisterTransport__E)
                  00013f70    00000014     sysbios.aem4 : BIOS.obj (.text:ti_sysbios_family_arm_m3_Hwi_switchFromBootStack__E)
                  00013f84    00000014     fault_pem4.oem4 (.text:ti_sysbios_hal_Hwi_HwiProxy_getStackInfo__E)
                  00013f98    00000014     fault_pem4.oem4 (.text:ti_sysbios_knl_Clock_Module_State_clockQ)

.const.76 
*          0    00013fac    00000004     
                  00013fac    00000004     fault_pem4.oem4 (.const:ti_sdo_utils_NameServer_Object__table__C)

.text.77   0    00013fb0    00000052     
                  00013fb0    00000014     sysbios.aem4 : BIOS.obj (.text:ti_sysbios_xdcruntime_GateThreadSupport_Instance_init__E)
                  00013fc4    00000014     fault_pem4.oem4 (.text:xdc_runtime_Memory_HeapProxy_free__E)
                  00013fd8    00000012     sysbios.aem4 : BIOS.obj (.text:ti_sysbios_family_shared_vayu_TimerSupport_Module_startup__E)
                  00013fea    00000006     ti.targets.arm.rtsarm.aem4 : GateThread.oem4 (.text:xdc_runtime_knl_GateThread_leave__E)
                  00013ff0    00000012     sysbios.aem4 : BIOS.obj (.text:ti_sysbios_hal_Hwi_Module_startup__E)

.const.77 
*          0    00014004    00000004     
                  00014004    00000004     fault_pem4.oem4 (.const:ti_sysbios_BIOS_installedErrorHook__C)

.text.78   0    00014008    00000012     
                  00014008    00000012     sysbios.aem4 : BIOS.obj (.text:ti_sysbios_hal_Timer_Module_startup__E)

.const.78 
*          0    0001401c    00000004     
                  0001401c    00000004     fault_pem4.oem4 (.const:ti_sysbios_family_arm_ducati_Core_E_mismatchedIds__C)

.text.79   0    00014020    00000044     
                  00014020    00000012     sysbios.aem4 : BIOS.obj (.text:ti_sysbios_knl_Clock_Module_startup__E)
                  00014032    00000012     ti.targets.arm.rtsarm.aem4 : System.oem4 (.text:xdc_runtime_System_putch__E)
                  00014044    00000010     fault_pem4.oem4 (.text:ti_deh_Deh_excHandler__E)
                  00014054    00000010     fault_pem4.oem4 (.text:ti_deh_Watchdog_taskSwitch__E)

.const.79 
*          0    00014064    00000004     
                  00014064    00000004     fault_pem4.oem4 (.const:ti_sysbios_family_arm_ducati_Core_id__C)

.text.80   0    00014068    00000294     
                  00014068    00000010     ipc.aem4 : Ipc.obj (.text:ti_sdo_ipc_family_vayu_NotifySetup_interruptTable__F)
                  00014078    00000010     fault_pem4.oem4 (.text:ti_sdo_utils_MultiProc_getClusterId__E)
                  00014088    00000010     ipc.aem4 : Ipc.obj (.text:ti_sdo_utils_MultiProc_getClusterId__F)
                  00014098    00000010     fault_pem4.oem4 (.text:ti_sysbios_BIOS_RtsGateProxy_leave__E)
                  000140a8    00000010     sysbios.aem4 : BIOS.obj (.text:ti_sysbios_BIOS_setThreadType__E)
                  000140b8    00000010                  : BIOS.obj (.text:ti_sysbios_BIOS_start__E)
                  000140c8    00000010                  : m3_TaskSupport_asm.obj (.text:ti_sysbios_family_arm_m3_TaskSupport_glue)
                  000140d8    00000010                  : m3_TaskSupport_asm.obj (.text:ti_sysbios_family_arm_m3_TaskSupport_swap__E)
                  000140e8    00000010                  : BIOS.obj (.text:ti_sysbios_gates_GateMutexPri_Instance_finalize__E)
                  000140f8    00000010                  : BIOS.obj (.text:ti_sysbios_gates_GateMutex_Instance_finalize__E)
                  00014108    00000010     fault_pem4.oem4 (.text:ti_sysbios_hal_unicache_Cache_Module_GateProxy_leave__E)
                  00014118    00000010     sysbios.aem4 : BIOS.obj (.text:ti_sysbios_heaps_HeapBuf_Instance_finalize__E)
                  00014128    00000010     fault_pem4.oem4 (.text:ti_sysbios_heaps_HeapMem_Module_GateProxy_leave__E)
                  00014138    00000010     sysbios.aem4 : BIOS.obj (.text:ti_sysbios_knl_Semaphore_Instance_finalize__E)
                  00014148    00000010                  : BIOS.obj (.text:ti_sysbios_knl_Swi_disable__E)
                  00014158    00000010     fault_pem4.oem4 (.text:ti_sysbios_knl_Task_SupportProxy_checkStack__E)
                  00014168    00000010     fault_pem4.oem4 (.text:ti_sysbios_knl_Task_SupportProxy_swap__E)
                  00014178    00000010     sysbios.aem4 : BIOS.obj (.text:ti_sysbios_knl_Task_disable__E)
                  00014188    00000010     ti.deh_vayu_smp.aem4 : Watchdog.oem4 (.text:ti_sysbios_timers_dmtimer_Timer_Object_get)
                  00014198    00000010     fault_pem4.oem4 (.text:ti_sysbios_timers_dmtimer_Timer_TimerSupportProxy_enable__E)
                  000141a8    00000010     sysbios.aem4 : BIOS.obj (.text:ti_sysbios_xdcruntime_GateThreadSupport_Instance_finalize__E)
                  000141b8    00000010                  : BIOS.obj (.text:ti_sysbios_xdcruntime_GateThreadSupport_enter__E)
                  000141c8    00000010                  : BIOS.obj (.text:ti_sysbios_xdcruntime_GateThreadSupport_leave__E)
                  000141d8    00000010     ti.trace.aem4 : SysMin.oem4 (.text:ti_trace_SysMin_ready__E)
                  000141e8    00000010     ti.targets.arm.rtsarm.aem4 : Gate.oem4 (.text:xdc_runtime_Gate_leaveSystem__E)
                  000141f8    00000010                                : Memory.oem4 (.text:xdc_runtime_Memory_free__E)
                  00014208    00000010     fault_pem4.oem4 (.text:xdc_runtime_System_Module_GateProxy_leave__E)
                  00014218    00000010     fault_pem4.oem4 (.text:xdc_runtime_System_SupportProxy_putch__E)
                  00014228    00000010     ti.targets.arm.rtsarm.aem4 : System.oem4 (.text:xdc_runtime_System_vsnprintf__E)
                  00014238    00000010     fault_pem4.oem4 (.text:xdc_runtime_knl_GateThread_Proxy_leave__E)
                  00014248    0000000e     rtsv7M4_T_le_eabi.lib : copy_decompress_none.obj (.text:decompress:none)
                  00014256    00000002     --HOLE-- [fill = 0]
                  00014258    0000000e     sysbios.aem4 : BIOS.obj (.text:ti_sysbios_knl_Idle_loop__E)
                  00014266    00000002     --HOLE-- [fill = 0]
                  00014268    0000000e                  : BIOS.obj (.text:ti_sysbios_knl_Queue_empty__E)
                  00014276    00000002     --HOLE-- [fill = 0]
                  00014278    0000000c     ipc.aem4 : Ipc.obj (.text:MultiProc_self)
                  00014284    0000000c     rtsv7M4_T_le_eabi.lib : copy_zero_init.obj (.text:decompress:ZI)
                  00014290    0000000c     fault_pem4.oem4 (.text:ti_deh_Watchdog_init__E)
                  0001429c    0000000c     fault_pem4.oem4 (.text:ti_deh_Watchdog_isException__E)
                  000142a8    0000000c     fault_pem4.oem4 (.text:ti_deh_Watchdog_swiPrehook__E)
                  000142b4    0000000c     fault_pem4.oem4 (.text:ti_ipc_namesrv_NameServerRemoteRpmsg_delete)
                  000142c0    0000000c     ipc.aem4 : Ipc.obj (.text:ti_ipc_remoteproc_Resource_Module_startup__E)
                  000142cc    0000000c     fault_pem4.oem4 (.text:ti_sdo_ipc_family_vayu_NotifySetup_interruptTable__E)
                  000142d8    0000000c     fault_pem4.oem4 (.text:ti_sdo_utils_List_destruct)
                  000142e4    0000000c     fault_pem4.oem4 (.text:ti_sysbios_BIOS_RtsGateProxy_enter__E)
                  000142f0    0000000c     sysbios.aem4 : BIOS.obj (.text:ti_sysbios_BIOS_getThreadType__E)

.const.80 
*          0    000142fc    00000004     
                  000142fc    00000004     fault_pem4.oem4 (.const:ti_sysbios_family_arm_ducati_Core_ipuId__C)

.text.81   0    00014300    0000000c     
                  00014300    0000000c     sysbios.aem4 : BIOS.obj (.text:ti_sysbios_family_arm_ducati_Core_getId__E)

.const.81 
*          0    0001430c    00000004     
                  0001430c    00000004     fault_pem4.oem4 (.const:ti_sysbios_family_arm_ducati_GateDualCore_A_nestedEnter__C)

.text.82   0    00014310    0000000c     
                  00014310    0000000c     sysbios.aem4 : BIOS.obj (.text:ti_sysbios_family_arm_ducati_Core_startCore1__I)

.const.82 
*          0    0001431c    00000004     
                  0001431c    00000004     fault_pem4.oem4 (.const:ti_sysbios_family_arm_ducati_GateDualCore_E_gateInUse__C)

.text.83   0    00014320    0000000c     
                  00014320    0000000c     sysbios.aem4 : BIOS.obj (.text:ti_sysbios_family_arm_ducati_GateDualCore_leave__E)

.const.83 
*          0    0001432c    00000004     
                  0001432c    00000004     fault_pem4.oem4 (.const:ti_sysbios_family_arm_ducati_GateDualCore_E_invalidIndex__C)

.text.84   0    00014330    0000000c     
                  00014330    0000000c     sysbios.aem4 : BIOS.obj (.text:ti_sysbios_family_arm_m3_Hwi_disableFxn__E)

.const.84 
*          0    0001433c    00000004     
                  0001433c    00000004     fault_pem4.oem4 (.const:ti_sysbios_family_arm_ducati_GateDualCore_Module__diagsEnabled__C)

.text.85   0    00014340    0000000c     
                  00014340    0000000c     sysbios.aem4 : BIOS.obj (.text:ti_sysbios_family_arm_m3_TaskSupport_checkStack__E)

.const.85 
*          0    0001434c    00000004     
                  0001434c    00000004     fault_pem4.oem4 (.const:ti_sysbios_family_arm_ducati_GateDualCore_Module__diagsIncluded__C)

.text.86   0    00014350    00000084     
                  00014350    0000000c     sysbios.aem4 : BIOS.obj (.text:ti_sysbios_family_arm_m3_TaskSupport_getStackAlignment__E)
                  0001435c    0000000c     fault_pem4.oem4 (.text:ti_sysbios_gates_GateHwi_delete)
                  00014368    0000000c     sysbios.aem4 : BIOS.obj (.text:ti_sysbios_gates_GateHwi_enter__E)
                  00014374    0000000c     fault_pem4.oem4 (.text:ti_sysbios_gates_GateMutexPri_destruct)
                  00014380    0000000c     sysbios.aem4 : BIOS.obj (.text:ti_sysbios_gates_GateSwi_query__E)
                  0001438c    0000000c     fault_pem4.oem4 (.text:ti_sysbios_hal_Hwi_HwiProxy_clearInterrupt__E)
                  00014398    0000000c     fault_pem4.oem4 (.text:ti_sysbios_hal_Hwi_HwiProxy_disableInterrupt__E)
                  000143a4    0000000c     fault_pem4.oem4 (.text:ti_sysbios_hal_Hwi_HwiProxy_enableInterrupt__E)
                  000143b0    0000000c     fault_pem4.oem4 (.text:ti_sysbios_hal_unicache_Cache_Module_GateProxy_enter__E)
                  000143bc    0000000c     fault_pem4.oem4 (.text:ti_sysbios_heaps_HeapMem_Module_GateProxy_enter__E)
                  000143c8    0000000c     fault_pem4.oem4 (.text:ti_sysbios_heaps_HeapMem_Module_GateProxy_query__E)

.const.86 
*          0    000143d4    00000004     
                  000143d4    00000004     fault_pem4.oem4 (.const:ti_sysbios_family_arm_ducati_GateDualCore_Module__diagsMask__C)

.text.87   0    000143d8    0000003c     
                  000143d8    0000000c     sysbios.aem4 : BIOS.obj (.text:ti_sysbios_knl_Clock_getTicks__E)
                  000143e4    0000000c     fault_pem4.oem4 (.text:ti_sysbios_knl_Queue_destruct)
                  000143f0    0000000c     fault_pem4.oem4 (.text:ti_sysbios_knl_Semaphore_delete)
                  000143fc    0000000c     fault_pem4.oem4 (.text:ti_sysbios_knl_Semaphore_destruct)
                  00014408    0000000c     fault_pem4.oem4 (.text:ti_sysbios_knl_Swi_delete)

.const.87 
*          0    00014414    00000004     
                  00014414    00000004     fault_pem4.oem4 (.const:ti_sysbios_family_arm_ducati_GateDualCore_Object__count__C)

.text.88   0    00014418    0000000c     
                  00014418    0000000c     sysbios.aem4 : BIOS.obj (.text:ti_sysbios_knl_Swi_self__E)

.const.88 
*          0    00014424    00000004     
                  00014424    00000004     fault_pem4.oem4 (.const:ti_sysbios_family_arm_ducati_GateDualCore_Object__table__C)

.text.89   0    00014428    0000000c     
                  00014428    0000000c     sysbios.aem4 : BIOS.obj (.text:ti_sysbios_knl_Task_self__E)

.const.89 
*          0    00014434    00000004     
                  00014434    00000004     fault_pem4.oem4 (.const:ti_sysbios_family_arm_ducati_GateDualCore_numGates__C)

.text.90   0    00014438    000000e2     
                  00014438    0000000c     sysbios.aem4 : BIOS.obj (.text:ti_sysbios_syncs_SyncSem_Instance_finalize__E)
                  00014444    0000000c     fault_pem4.oem4 (.text:ti_sysbios_syncs_SyncSem_delete)
                  00014450    0000000c     fault_pem4.oem4 (.text:xdc_iargToPtr)
                  0001445c    0000000c     ti.targets.arm.rtsarm.aem4 : Error.oem4 (.text:xdc_runtime_Error_init__E)
                  00014468    0000000c                                : Gate.oem4 (.text:xdc_runtime_Gate_enterSystem__E)
                  00014474    0000000c     fault_pem4.oem4 (.text:xdc_runtime_LoggerSys_TimestampProxy_get64__E)
                  00014480    0000000c     ti.targets.arm.rtsarm.aem4 : Memory.oem4 (.text:xdc_runtime_Memory_calloc__E)
                  0001448c    0000000c                                : Memory.oem4 (.text:xdc_runtime_Memory_getMaxDefaultTypeAlign__E)
                  00014498    0000000c                                : Registry.oem4 (.text:xdc_runtime_Registry_findByName__E)
                  000144a4    0000000c     fault_pem4.oem4 (.text:xdc_runtime_System_Module_GateProxy_enter__E)
                  000144b0    0000000c     fault_pem4.oem4 (.text:xdc_runtime_System_SupportProxy_abort__E)
                  000144bc    0000000c     fault_pem4.oem4 (.text:xdc_runtime_System_SupportProxy_exit__E)
                  000144c8    0000000c     fault_pem4.oem4 (.text:xdc_runtime_Timestamp_SupportProxy_getFreq__E)
                  000144d4    0000000c     ti.targets.arm.rtsarm.aem4 : GateThread.oem4 (.text:xdc_runtime_knl_GateThread_Instance_finalize__E)
                  000144e0    0000000c     fault_pem4.oem4 (.text:xdc_runtime_knl_GateThread_Proxy_Object__delete__S)
                  000144ec    0000000c     fault_pem4.oem4 (.text:xdc_runtime_knl_GateThread_Proxy_delete)
                  000144f8    0000000c     fault_pem4.oem4 (.text:xdc_runtime_knl_GateThread_Proxy_enter__E)
                  00014504    0000000c     fault_pem4.oem4 (.text:xdc_runtime_knl_GateThread_Proxy_query__E)
                  00014510    0000000a     ipc.aem4 : Ipc.obj (.text:VirtQueue_postCrashToMailbox)

.const.90 
*          0    0001451c    00000004     
                  0001451c    00000004     fault_pem4.oem4 (.const:ti_sysbios_family_arm_ducati_Timer_E_cannotSupport__C)

.text.91   0    00014520    00000124     
                  00014520    0000000a     sysbios.aem4 : BIOS.obj (.text:ti_sysbios_syncs_SyncSem_query__E)
                  0001452a    0000000a     ti.targets.arm.rtsarm.aem4 : LoggerSys.oem4 (.text:xdc_runtime_LoggerSys_disable__E)
                  00014534    0000000a                                : LoggerSys.oem4 (.text:xdc_runtime_LoggerSys_enable__E)
                  0001453e    00000008     fault_pem4.oem4 (.text:ti_deh_Deh_idleBegin__E)
                  00014546    00000008     ti.deh_vayu_smp.aem4 : Deh.oem4 (.text:ti_deh_Deh_idleBegin__F)
                  0001454e    00000008     fault_pem4.oem4 (.text:ti_deh_Watchdog_idleBegin__E)
                  00014556    00000008     fault_pem4.oem4 (.text:ti_sdo_utils_NameServer_Module__startupDone__S)
                  0001455e    00000008     fault_pem4.oem4 (.text:ti_sysbios_family_arm_ducati_Timer_Module__startupDone__S)
                  00014566    00000008     fault_pem4.oem4 (.text:ti_sysbios_family_arm_ducati_Wugen_Module__startupDone__S)
                  0001456e    00000008     fault_pem4.oem4 (.text:ti_sysbios_family_arm_m3_Hwi_Module__startupDone__S)
                  00014576    00000002     --HOLE-- [fill = 0]
                  00014578    00000008     sysbios.aem4 : BIOS.obj (.text:ti_sysbios_family_arm_m3_Hwi_doSwiRestore__I)
                  00014580    00000008                  : BIOS.obj (.text:ti_sysbios_family_arm_m3_Hwi_startup__E)
                  00014588    00000008     fault_pem4.oem4 (.text:ti_sysbios_family_shared_vayu_TimerSupport_Module__startupDone__S)
                  00014590    00000008     fault_pem4.oem4 (.text:ti_sysbios_hal_Cache_CacheProxy_wbAll__E)
                  00014598    00000008     fault_pem4.oem4 (.text:ti_sysbios_hal_Core_CoreProxy_getId__E)
                  000145a0    00000008     fault_pem4.oem4 (.text:ti_sysbios_hal_Hwi_HwiProxy_Module__startupDone__S)
                  000145a8    00000008     fault_pem4.oem4 (.text:ti_sysbios_hal_Hwi_HwiProxy_startup__E)
                  000145b0    00000008     fault_pem4.oem4 (.text:ti_sysbios_hal_Hwi_HwiProxy_switchFromBootStack__E)
                  000145b8    00000008     fault_pem4.oem4 (.text:ti_sysbios_hal_Timer_TimerProxy_Module__startupDone__S)
                  000145c0    00000008     fault_pem4.oem4 (.text:ti_sysbios_knl_Clock_TimerProxy_Module__startupDone__S)
                  000145c8    00000008     fault_pem4.oem4 (.text:ti_sysbios_knl_Task_SupportProxy_Module__startupDone__S)
                  000145d0    00000008     fault_pem4.oem4 (.text:ti_sysbios_knl_Task_SupportProxy_getStackAlignment__E)
                  000145d8    00000008     fault_pem4.oem4 (.text:ti_sysbios_timers_dmtimer_Timer_Module__startupDone__S)
                  000145e0    00000008     fault_pem4.oem4 (.text:ti_sysbios_timers_dmtimer_Timer_TimerSupportProxy_Module__startupDone__S)
                  000145e8    00000008     fault_pem4.oem4 (.text:xdc_runtime_Startup_reset__I)
                  000145f0    00000008     fault_pem4.oem4 (.text:xdc_runtime_System_SupportProxy_ready__E)
                  000145f8    00000008     fault_pem4.oem4 (.text:xdc_runtime_Timestamp_SupportProxy_get32__E)
                  00014600    00000006     ipc.aem4 : Ipc.obj (.text:ti_ipc_namesrv_NameServerRemoteRpmsg_Instance_finalize__E)
                  00014606    00000002     --HOLE-- [fill = 0]
                  00014608    00000006              : Ipc.obj (.text:ti_sdo_utils_List_Instance_init__E)
                  0001460e    00000002     --HOLE-- [fill = 0]
                  00014610    00000006     sysbios.aem4 : BIOS.obj (.text:ti_sysbios_family_arm_ducati_Wugen_Module_startup__E)
                  00014616    00000002     --HOLE-- [fill = 0]
                  00014618    00000006                  : BIOS.obj (.text:ti_sysbios_family_arm_m3_Hwi_restoreFxn__E)
                  0001461e    00000002     --HOLE-- [fill = 0]
                  00014620    00000006                  : BIOS.obj (.text:ti_sysbios_gates_GateHwi_leave__E)
                  00014626    00000002     --HOLE-- [fill = 0]
                  00014628    00000006                  : BIOS.obj (.text:ti_sysbios_heaps_HeapMem_isBlocking__E)
                  0001462e    00000002     --HOLE-- [fill = 0]
                  00014630    00000006                  : BIOS.obj (.text:ti_sysbios_knl_Queue_Instance_init__E)
                  00014636    00000002     --HOLE-- [fill = 0]
                  00014638    00000006                  : BIOS.obj (.text:ti_sysbios_syncs_SyncSem_signal__E)
                  0001463e    00000002     --HOLE-- [fill = 0]
                  00014640    00000004     ipc.aem4 : Ipc.obj (.text:MessageQ_getQueueId)

.const.91 
*          0    00014644    00000004     
                  00014644    00000004     fault_pem4.oem4 (.const:ti_sysbios_family_arm_ducati_Timer_startupNeeded__C)

.text.92   0    00014648    00000004     
                  00014648    00000004     ipc.aem4 : Ipc.obj (.text:ti_ipc_namesrv_NameServerRemoteRpmsg_sharedMemReq__E)

.const.92 
*          0    0001464c    00000004     
                  0001464c    00000004     fault_pem4.oem4 (.const:ti_sysbios_family_arm_m3_Hwi_E_NMI__C)

.text.93   0    00014650    00000004     
                  00014650    00000004     ipc.aem4 : Ipc.obj (.text:ti_ipc_transports_TransportRpmsg_control__E)

.const.93 
*          0    00014654    00000004     
                  00014654    00000004     fault_pem4.oem4 (.const:ti_sysbios_family_arm_m3_Hwi_E_alreadyDefined__C)

.text.94   0    00014658    00000004     
                  00014658    00000004     ipc.aem4 : Ipc.obj (.text:ti_ipc_transports_TransportRpmsg_getStatus__E)

.const.94 
*          0    0001465c    00000004     
                  0001465c    00000004     fault_pem4.oem4 (.const:ti_sysbios_family_arm_m3_Hwi_E_busFault__C)

.text.95   0    00014660    00000004     
                  00014660    00000004     sysbios.aem4 : BIOS.obj (.text:ti_sysbios_family_arm_ducati_GateDualCore_query__E)

.const.95 
*          0    00014664    00000004     
                  00014664    00000004     fault_pem4.oem4 (.const:ti_sysbios_family_arm_m3_Hwi_E_debugMon__C)

.text.96   0    00014668    00000004     
                  00014668    00000004     sysbios.aem4 : BIOS.obj (.text:ti_sysbios_gates_GateHwi_query__E)

.const.96 
*          0    0001466c    00000004     
                  0001466c    00000004     fault_pem4.oem4 (.const:ti_sysbios_family_arm_m3_Hwi_E_hardFault__C)

.text.97   0    00014670    00000004     
                  00014670    00000004     sysbios.aem4 : BIOS.obj (.text:ti_sysbios_gates_GateMutexPri_query__E)

.const.97 
*          0    00014674    00000004     
                  00014674    00000004     fault_pem4.oem4 (.const:ti_sysbios_family_arm_m3_Hwi_E_memFault__C)

.text.98   0    00014678    00000004     
                  00014678    00000004     sysbios.aem4 : BIOS.obj (.text:ti_sysbios_gates_GateMutex_query__E)

.const.98 
*          0    0001467c    00000004     
                  0001467c    00000004     fault_pem4.oem4 (.const:ti_sysbios_family_arm_m3_Hwi_E_noIsr__C)

.text.99   0    00014680    00000004     
                  00014680    00000004     sysbios.aem4 : BIOS.obj (.text:ti_sysbios_heaps_HeapBuf_isBlocking__E)

.const.99 
*          0    00014684    00000004     
                  00014684    00000004     fault_pem4.oem4 (.const:ti_sysbios_family_arm_m3_Hwi_E_reserved__C)

.text.100 
*          0    00014688    00000004     
                  00014688    00000004     sysbios.aem4 : BIOS.obj (.text:ti_sysbios_knl_Task_startup__E)

.const.100 
*          0    0001468c    00000004     
                  0001468c    00000004     fault_pem4.oem4 (.const:ti_sysbios_family_arm_m3_Hwi_E_svCall__C)

.text.101 
*          0    00014690    00000002     
                  00014690    00000002     ipc.aem4 : Ipc.obj (.text:ti_ipc_transports_TransportRpmsg_setErrFxn__E)

.const.101 
*          0    00014694    00000004     
                  00014694    00000004     fault_pem4.oem4 (.const:ti_sysbios_family_arm_m3_Hwi_E_usageFault__C)

.text.102 
*          0    00014698    00000002     
                  00014698    00000002     sysbios.aem4 : BIOS.obj (.text:ti_sysbios_gates_GateHwi_Instance_init__E)

.const.102 
*          0    0001469c    00000004     
                  0001469c    00000004     fault_pem4.oem4 (.const:ti_sysbios_family_arm_m3_Hwi_LD_end__C)

.text.103 
*          0    000146a0    00000002     
                  000146a0    00000002     sysbios.aem4 : BIOS.obj (.text:ti_sysbios_gates_GateSwi_Instance_init__E)

.const.103 
*          0    000146a4    00004258     
                  000146a4    00002a55     fault_pem4.oem4 (.const:xdc_runtime_Text_charTab__A)
                  000170f9    00000001     fault_pem4.oem4 (.const:ti_sdo_utils_MultiProc_procAddrMode__C)
                  000170fa    00000002     fault_pem4.oem4 (.const:ti_ipc_namesrv_NameServerRemoteRpmsg_Module__id__C)
                  000170fc    000004b8     fault_pem4.oem4 (.const:ti_sysbios_hal_ammu_AMMU_mmuInitConfig__C)
                  000175b4    000001e4     fault_pem4.oem4 (.const:ti_sdo_ipc_family_vayu_InterruptIpu_mailboxTable__C)
                  00017798    000001e4     fault_pem4.oem4 (.const:ti_sdo_ipc_family_vayu_NotifySetup_mailboxTable__C)
                  0001797c    00000188     fault_pem4.oem4 (.const:xdc_runtime_Text_nodeTab__A)
                  00017b04    00000101     rtsv7M4_T_le_eabi.lib : ctype.obj (.const:.string:_ctypes_)
                  00017c05    00000001     fault_pem4.oem4 (.const:ti_sysbios_family_arm_ducati_TimestampProvider_inpsel__C)
                  00017c06    00000002     fault_pem4.oem4 (.const:ti_ipc_namesrv_NameServerRemoteRpmsg_Module__loggerDefined__C)
                  00017c08    0000007c     fault_pem4.oem4 (.const:.string)
                  00017c84    00000054     fault_pem4.oem4 (.const:xdc_runtime_Startup_sfxnTab__A)
                  00017cd8    00000040     fault_pem4.oem4 (.const:ti_sdo_ipc_family_vayu_InterruptIpu_mailboxBaseAddr__C)
                  00017d18    00000040     fault_pem4.oem4 (.const:ti_sdo_ipc_family_vayu_NotifySetup_mailboxBaseAddr__C)
                  00017d58    0000003c     fault_pem4.oem4 (.const:ti_sysbios_knl_Task_Object__PARAMS__C)
                  00017d94    00000034     fault_pem4.oem4 (.const:xdc_runtime_LoggerSys_Module__FXNS__C)
                  00017dc8    00000030     fault_pem4.oem4 (.const:ti_sysbios_family_arm_m3_Hwi_Object__PARAMS__C)
                  00017df8    0000002c     fault_pem4.oem4 (.const:ti_sdo_ipc_family_vayu_InterruptIpu_procIdTable__C)
                  00017e24    0000002c     fault_pem4.oem4 (.const:ti_sdo_ipc_family_vayu_NotifySetup_procIdTable__C)
                  00017e50    0000002c     fault_pem4.oem4 (.const:ti_sysbios_heaps_HeapBuf_Object__PARAMS__C)
                  00017e7c    0000002a     fault_pem4.oem4 (.const:xdc_runtime_Startup_sfxnRts__A)
                  00017ea6    00000002     fault_pem4.oem4 (.const:ti_ipc_transports_TransportRpmsgSetup_Module__id__C)
                  00017ea8    00000028     fault_pem4.oem4 (.const:ti_ipc_namesrv_NameServerRemoteRpmsg_Module__FXNS__C)
                  00017ed0    00000028     fault_pem4.oem4 (.const:ti_ipc_transports_TransportRpmsg_Module__FXNS__C)
                  00017ef8    00000028     fault_pem4.oem4 (.const:ti_sysbios_heaps_HeapBuf_Module__FXNS__C)
                  00017f20    00000028     fault_pem4.oem4 (.const:ti_sysbios_heaps_HeapMem_Module__FXNS__C)
                  00017f48    00000028     fault_pem4.oem4 (.const:ti_sysbios_knl_Swi_Object__PARAMS__C)
                  00017f70    00000024     fault_pem4.oem4 (.const:ti_sysbios_family_arm_ducati_GateDualCore_Module__FXNS__C)
                  00017f94    00000024     fault_pem4.oem4 (.const:ti_sysbios_gates_GateHwi_Module__FXNS__C)
                  00017fb8    00000024     fault_pem4.oem4 (.const:ti_sysbios_gates_GateMutexPri_Module__FXNS__C)
                  00017fdc    00000024     fault_pem4.oem4 (.const:ti_sysbios_gates_GateMutex_Module__FXNS__C)
                  00018000    00000024     fault_pem4.oem4 (.const:ti_sysbios_gates_GateSwi_Module__FXNS__C)
                  00018024    00000024     fault_pem4.oem4 (.const:ti_sysbios_heaps_HeapMem_Object__PARAMS__C)
                  00018048    00000024     fault_pem4.oem4 (.const:ti_sysbios_knl_Semaphore_Object__PARAMS__C)
                  0001806c    00000024     fault_pem4.oem4 (.const:ti_sysbios_syncs_SyncSem_Module__FXNS__C)
                  00018090    00000024     fault_pem4.oem4 (.const:xdc_runtime_knl_GateThread_Module__FXNS__C)
                  000180b4    00000020     fault_pem4.oem4 (.const:ti_ipc_namesrv_NameServerRemoteRpmsg_Object__DESC__C)
                  000180d4    00000020     fault_pem4.oem4 (.const:ti_ipc_transports_TransportRpmsg_Object__DESC__C)
                  000180f4    00000020     fault_pem4.oem4 (.const:ti_ipc_transports_TransportRpmsg_Object__PARAMS__C)
                  00018114    00000020     fault_pem4.oem4 (.const:ti_sdo_ipc_MessageQ_Object__DESC__C)
                  00018134    00000020     fault_pem4.oem4 (.const:ti_sdo_ipc_MessageQ_Object__PARAMS__C)
                  00018154    00000020     fault_pem4.oem4 (.const:ti_sdo_utils_List_Object__DESC__C)
                  00018174    00000020     fault_pem4.oem4 (.const:ti_sysbios_family_arm_ducati_GateDualCore_Object__DESC__C)
                  00018194    00000020     fault_pem4.oem4 (.const:ti_sysbios_family_arm_m3_Hwi_Object__DESC__C)
                  000181b4    00000020     fault_pem4.oem4 (.const:ti_sysbios_gates_GateHwi_Object__DESC__C)
                  000181d4    00000020     fault_pem4.oem4 (.const:ti_sysbios_gates_GateMutexPri_Object__DESC__C)
                  000181f4    00000020     fault_pem4.oem4 (.const:ti_sysbios_gates_GateMutex_Object__DESC__C)
                  00018214    00000020     fault_pem4.oem4 (.const:ti_sysbios_gates_GateSwi_Object__DESC__C)
                  00018234    00000020     fault_pem4.oem4 (.const:ti_sysbios_heaps_HeapBuf_Object__DESC__C)
                  00018254    00000020     fault_pem4.oem4 (.const:ti_sysbios_heaps_HeapMem_Object__DESC__C)
                  00018274    00000020     fault_pem4.oem4 (.const:ti_sysbios_knl_Queue_Object__DESC__C)
                  00018294    00000020     fault_pem4.oem4 (.const:ti_sysbios_knl_Semaphore_Object__DESC__C)
                  000182b4    00000020     fault_pem4.oem4 (.const:ti_sysbios_knl_Swi_Object__DESC__C)
                  000182d4    00000020     fault_pem4.oem4 (.const:ti_sysbios_knl_Task_Object__DESC__C)
                  000182f4    00000020     fault_pem4.oem4 (.const:ti_sysbios_syncs_SyncSem_Object__DESC__C)
                  00018314    00000020     fault_pem4.oem4 (.const:ti_sysbios_xdcruntime_GateThreadSupport_Object__DESC__C)
                  00018334    00000020     fault_pem4.oem4 (.const:xdc_runtime_LoggerSys_Object__DESC__C)
                  00018354    00000020     fault_pem4.oem4 (.const:xdc_runtime_knl_GateThread_Object__DESC__C)
                  00018374    0000001c     fault_pem4.oem4 (.const:ti_sysbios_family_arm_ducati_GateDualCore_Object__PARAMS__C)
                  00018390    0000001c     fault_pem4.oem4 (.const:ti_sysbios_syncs_SyncSem_Object__PARAMS__C)
                  000183ac    00000018     fault_pem4.oem4 (.const:ti_ipc_namesrv_NameServerRemoteRpmsg_Object__PARAMS__C)
                  000183c4    00000018     fault_pem4.oem4 (.const:ti_sdo_utils_List_Object__PARAMS__C)
                  000183dc    00000018     fault_pem4.oem4 (.const:ti_sysbios_gates_GateHwi_Object__PARAMS__C)
                  000183f4    00000018     fault_pem4.oem4 (.const:ti_sysbios_gates_GateMutexPri_Object__PARAMS__C)
                  0001840c    00000018     fault_pem4.oem4 (.const:ti_sysbios_gates_GateMutex_Object__PARAMS__C)
                  00018424    00000018     fault_pem4.oem4 (.const:ti_sysbios_gates_GateSwi_Object__PARAMS__C)
                  0001843c    00000018     fault_pem4.oem4 (.const:ti_sysbios_knl_Queue_Object__PARAMS__C)
                  00018454    00000018     fault_pem4.oem4 (.const:ti_sysbios_knl_Swi_hooks__A)
                  0001846c    00000018     fault_pem4.oem4 (.const:ti_sysbios_knl_Task_hooks__A)
                  00018484    00000018     fault_pem4.oem4 (.const:ti_sysbios_xdcruntime_GateThreadSupport_Object__PARAMS__C)
                  0001849c    00000018     fault_pem4.oem4 (.const:xdc_runtime_LoggerSys_Object__PARAMS__C)
                  000184b4    00000018     fault_pem4.oem4 (.const:xdc_runtime_knl_GateThread_Object__PARAMS__C)
                  000184cc    00000014     fault_pem4.oem4 (.const:ti_sdo_utils_MultiProc_nameList__A)
                  000184e0    00000012     ti.trace.aem4 : SysMin.oem4 (.const:.string)
                  000184f2    00000011     ti.targets.arm.rtsarm.aem4 : System.oem4 (.const:.string)
                  00018503    00000001     fault_pem4.oem4 (.const:xdc_runtime_Error_policy__C)
                  00018504    00000010     fault_pem4.oem4 (.const:xdc_runtime_Startup_firstFxns__A)
                  00018514    0000000c     fault_pem4.oem4 (.const:ti_sysbios_knl_Idle_funcList__A)
                  00018520    00000008     fault_pem4.oem4 (.const)
                  00018528    00000008     fault_pem4.oem4 (.const:ti_sysbios_knl_Idle_funcList__C)
                  00018530    00000008     fault_pem4.oem4 (.const:ti_sysbios_knl_Swi_hooks__C)
                  00018538    00000008     fault_pem4.oem4 (.const:ti_sysbios_knl_Task_hooks__C)
                  00018540    00000008     fault_pem4.oem4 (.const:xdc_runtime_Startup_firstFxns__C)
                  00018548    00000008     fault_pem4.oem4 (.const:xdc_runtime_Startup_lastFxns__C)
                  00018550    00000004     fault_pem4.oem4 (.const:ti_sysbios_family_arm_m3_Hwi_LM_begin__C)
                  00018554    00000004     fault_pem4.oem4 (.const:ti_sysbios_family_arm_m3_Hwi_Module__diagsEnabled__C)
                  00018558    00000004     fault_pem4.oem4 (.const:ti_sysbios_family_arm_m3_Hwi_Module__diagsIncluded__C)
                  0001855c    00000004     fault_pem4.oem4 (.const:ti_sysbios_family_arm_m3_Hwi_Module__diagsMask__C)
                  00018560    00000004     fault_pem4.oem4 (.const:ti_sysbios_family_arm_m3_Hwi_Module__loggerFxn1__C)
                  00018564    00000004     fault_pem4.oem4 (.const:ti_sysbios_family_arm_m3_Hwi_Module__loggerFxn8__C)
                  00018568    00000004     fault_pem4.oem4 (.const:ti_sysbios_family_arm_m3_Hwi_Module__loggerObj__C)
                  0001856c    00000004     fault_pem4.oem4 (.const:ti_sysbios_family_arm_m3_Hwi_NUM_INTERRUPTS__C)
                  00018570    00000004     fault_pem4.oem4 (.const:ti_sysbios_family_arm_m3_Hwi_Object__count__C)
                  00018574    00000004     fault_pem4.oem4 (.const:ti_sysbios_family_arm_m3_Hwi_Object__table__C)
                  00018578    00000004     fault_pem4.oem4 (.const:ti_sysbios_family_arm_m3_Hwi_ccr__C)
                  0001857c    00000004     fault_pem4.oem4 (.const:ti_sysbios_family_arm_m3_Hwi_excHandlerFunc__C)
                  00018580    00000004     fault_pem4.oem4 (.const:ti_sysbios_family_arm_m3_Hwi_nullIsrFunc__C)
                  00018584    00000004     fault_pem4.oem4 (.const:ti_sysbios_family_arm_m3_Hwi_priGroup__C)
                  00018588    00000004     fault_pem4.oem4 (.const:ti_sysbios_family_arm_m3_TaskSupport_stackAlignment__C)
                  0001858c    00000004     fault_pem4.oem4 (.const:ti_sysbios_family_shared_vayu_IntXbar_A_badBenelliIpuId__C)
                  00018590    00000004     fault_pem4.oem4 (.const:ti_sysbios_family_shared_vayu_IntXbar_A_badBenelliXbarInstanceNum__C)
                  00018594    00000004     fault_pem4.oem4 (.const:ti_sysbios_family_shared_vayu_IntXbar_A_badIntSourceIdx__C)
                  00018598    00000004     fault_pem4.oem4 (.const:ti_sysbios_family_shared_vayu_IntXbar_Module__diagsEnabled__C)
                  0001859c    00000004     fault_pem4.oem4 (.const:ti_sysbios_family_shared_vayu_IntXbar_Module__diagsIncluded__C)
                  000185a0    00000004     fault_pem4.oem4 (.const:ti_sysbios_family_shared_vayu_IntXbar_Module__diagsMask__C)
                  000185a4    00000004     fault_pem4.oem4 (.const:ti_sysbios_family_shared_vayu_IntXbar_mmrBaseAddr__C)
                  000185a8    00000004     fault_pem4.oem4 (.const:ti_sysbios_gates_GateMutexPri_A_badContext__C)
                  000185ac    00000004     fault_pem4.oem4 (.const:ti_sysbios_gates_GateMutexPri_A_enterTaskDisabled__C)
                  000185b0    00000004     fault_pem4.oem4 (.const:ti_sysbios_gates_GateMutexPri_Instance_State_pendQ__O)
                  000185b4    00000004     fault_pem4.oem4 (.const:ti_sysbios_gates_GateMutexPri_Module__diagsEnabled__C)
                  000185b8    00000004     fault_pem4.oem4 (.const:ti_sysbios_gates_GateMutexPri_Module__diagsIncluded__C)
                  000185bc    00000004     fault_pem4.oem4 (.const:ti_sysbios_gates_GateMutexPri_Module__diagsMask__C)
                  000185c0    00000004     fault_pem4.oem4 (.const:ti_sysbios_gates_GateMutex_A_badContext__C)
                  000185c4    00000004     fault_pem4.oem4 (.const:ti_sysbios_gates_GateMutex_Instance_State_sem__O)
                  000185c8    00000004     fault_pem4.oem4 (.const:ti_sysbios_gates_GateMutex_Module__diagsEnabled__C)
                  000185cc    00000004     fault_pem4.oem4 (.const:ti_sysbios_gates_GateMutex_Module__diagsIncluded__C)
                  000185d0    00000004     fault_pem4.oem4 (.const:ti_sysbios_gates_GateMutex_Module__diagsMask__C)
                  000185d4    00000004     fault_pem4.oem4 (.const:ti_sysbios_gates_GateSwi_A_badContext__C)
                  000185d8    00000004     fault_pem4.oem4 (.const:ti_sysbios_gates_GateSwi_Module__diagsEnabled__C)
                  000185dc    00000004     fault_pem4.oem4 (.const:ti_sysbios_gates_GateSwi_Module__diagsIncluded__C)
                  000185e0    00000004     fault_pem4.oem4 (.const:ti_sysbios_gates_GateSwi_Module__diagsMask__C)
                  000185e4    00000004     fault_pem4.oem4 (.const:ti_sysbios_hal_Hwi_E_stackOverflow__C)
                  000185e8    00000004     fault_pem4.oem4 (.const:ti_sysbios_hal_ammu_AMMU_numLargePages__C)
                  000185ec    00000004     fault_pem4.oem4 (.const:ti_sysbios_hal_ammu_AMMU_numLinePages__C)
                  000185f0    00000004     fault_pem4.oem4 (.const:ti_sysbios_hal_ammu_AMMU_numMediumPages__C)
                  000185f4    00000004     fault_pem4.oem4 (.const:ti_sysbios_hal_ammu_AMMU_numSmallPages__C)
                  000185f8    00000004     fault_pem4.oem4 (.const:ti_sysbios_hal_unicache_Cache_Module__gateObj__C)
                  000185fc    00000004     fault_pem4.oem4 (.const:ti_sysbios_hal_unicache_Cache_l1ocpConfig__C)
                  00018600    00000004     fault_pem4.oem4 (.const:ti_sysbios_hal_unicache_Cache_l1secConfig__C)
                  00018604    00000004     fault_pem4.oem4 (.const:ti_sysbios_hal_unicache_Cache_l2ocpConfig__C)
                  00018608    00000004     fault_pem4.oem4 (.const:ti_sysbios_hal_unicache_Cache_l2secConfig__C)
                  0001860c    00000004     fault_pem4.oem4 (.const:ti_sysbios_hal_unicache_Cache_maxLineModeBufSize__C)
                  00018610    00000004     fault_pem4.oem4 (.const:ti_sysbios_heaps_HeapBuf_A_bufAlign__C)
                  00018614    00000004     fault_pem4.oem4 (.const:ti_sysbios_heaps_HeapBuf_A_invalidAlign__C)
                  00018618    00000004     fault_pem4.oem4 (.const:ti_sysbios_heaps_HeapBuf_A_invalidBufSize__C)
                  0001861c    00000004     fault_pem4.oem4 (.const:ti_sysbios_heaps_HeapBuf_A_invalidFree__C)
                  00018620    00000004     fault_pem4.oem4 (.const:ti_sysbios_heaps_HeapBuf_A_invalidRequestedAlign__C)
                  00018624    00000004     fault_pem4.oem4 (.const:ti_sysbios_heaps_HeapBuf_A_noBlocksToFree__C)
                  00018628    00000004     fault_pem4.oem4 (.const:ti_sysbios_heaps_HeapBuf_A_nullBuf__C)
                  0001862c    00000004     fault_pem4.oem4 (.const:ti_sysbios_heaps_HeapBuf_A_zeroBlockSize__C)
                  00018630    00000004     fault_pem4.oem4 (.const:ti_sysbios_heaps_HeapBuf_A_zeroBlocks__C)
                  00018634    00000004     fault_pem4.oem4 (.const:ti_sysbios_heaps_HeapBuf_A_zeroBufSize__C)
                  00018638    00000004     fault_pem4.oem4 (.const:ti_sysbios_heaps_HeapBuf_E_size__C)
                  0001863c    00000004     fault_pem4.oem4 (.const:ti_sysbios_heaps_HeapBuf_Instance_State_freeList__O)
                  00018640    00000004     fault_pem4.oem4 (.const:ti_sysbios_heaps_HeapBuf_Module__diagsEnabled__C)
                  00018644    00000004     fault_pem4.oem4 (.const:ti_sysbios_heaps_HeapBuf_Module__diagsIncluded__C)
                  00018648    00000004     fault_pem4.oem4 (.const:ti_sysbios_heaps_HeapBuf_Module__diagsMask__C)
                  0001864c    00000004     fault_pem4.oem4 (.const:ti_sysbios_heaps_HeapBuf_Object__count__C)
                  00018650    00000004     fault_pem4.oem4 (.const:ti_sysbios_heaps_HeapBuf_Object__table__C)
                  00018654    00000004     fault_pem4.oem4 (.const:ti_sysbios_heaps_HeapBuf_numConstructedHeaps__C)
                  00018658    00000004     fault_pem4.oem4 (.const:ti_sysbios_heaps_HeapMem_A_align__C)
                  0001865c    00000004     fault_pem4.oem4 (.const:ti_sysbios_heaps_HeapMem_A_heapSize__C)
                  00018660    00000004     fault_pem4.oem4 (.const:ti_sysbios_heaps_HeapMem_A_invalidFree__C)
                  00018664    00000004     fault_pem4.oem4 (.const:ti_sysbios_heaps_HeapMem_A_zeroBlock__C)
                  00018668    00000004     fault_pem4.oem4 (.const:ti_sysbios_heaps_HeapMem_E_memory__C)
                  0001866c    00000004     fault_pem4.oem4 (.const:ti_sysbios_heaps_HeapMem_Module__diagsEnabled__C)
                  00018670    00000004     fault_pem4.oem4 (.const:ti_sysbios_heaps_HeapMem_Module__diagsIncluded__C)
                  00018674    00000004     fault_pem4.oem4 (.const:ti_sysbios_heaps_HeapMem_Module__diagsMask__C)
                  00018678    00000004     fault_pem4.oem4 (.const:ti_sysbios_heaps_HeapMem_Module__gateObj__C)
                  0001867c    00000004     fault_pem4.oem4 (.const:ti_sysbios_heaps_HeapMem_Object__count__C)
                  00018680    00000004     fault_pem4.oem4 (.const:ti_sysbios_heaps_HeapMem_Object__table__C)
                  00018684    00000004     fault_pem4.oem4 (.const:ti_sysbios_heaps_HeapMem_reqAlign__C)
                  00018688    00000004     fault_pem4.oem4 (.const:ti_sysbios_knl_Clock_LM_begin__C)
                  0001868c    00000004     fault_pem4.oem4 (.const:ti_sysbios_knl_Clock_LM_tick__C)
                  00018690    00000004     fault_pem4.oem4 (.const:ti_sysbios_knl_Clock_LW_delayed__C)
                  00018694    00000004     fault_pem4.oem4 (.const:ti_sysbios_knl_Clock_Module_State_clockQ__O)
                  00018698    00000004     fault_pem4.oem4 (.const:ti_sysbios_knl_Clock_Module__diagsEnabled__C)
                  0001869c    00000004     fault_pem4.oem4 (.const:ti_sysbios_knl_Clock_Module__diagsIncluded__C)
                  000186a0    00000004     fault_pem4.oem4 (.const:ti_sysbios_knl_Clock_Module__diagsMask__C)
                  000186a4    00000004     fault_pem4.oem4 (.const:ti_sysbios_knl_Clock_Module__loggerFxn1__C)
                  000186a8    00000004     fault_pem4.oem4 (.const:ti_sysbios_knl_Clock_Module__loggerFxn2__C)
                  000186ac    00000004     fault_pem4.oem4 (.const:ti_sysbios_knl_Clock_Module__loggerObj__C)
                  000186b0    00000004     fault_pem4.oem4 (.const:ti_sysbios_knl_Clock_tickPeriod__C)
                  000186b4    00000004     fault_pem4.oem4 (.const:ti_sysbios_knl_Queue_Object__count__C)
                  000186b8    00000004     fault_pem4.oem4 (.const:ti_sysbios_knl_Queue_Object__table__C)
                  000186bc    00000004     fault_pem4.oem4 (.const:ti_sysbios_knl_Semaphore_A_badContext__C)
                  000186c0    00000004     fault_pem4.oem4 (.const:ti_sysbios_knl_Semaphore_A_noEvents__C)
                  000186c4    00000004     fault_pem4.oem4 (.const:ti_sysbios_knl_Semaphore_A_overflow__C)
                  000186c8    00000004     fault_pem4.oem4 (.const:ti_sysbios_knl_Semaphore_A_pendTaskDisabled__C)
                  000186cc    00000004     fault_pem4.oem4 (.const:ti_sysbios_knl_Semaphore_Instance_State_pendQ__O)
                  000186d0    00000004     fault_pem4.oem4 (.const:ti_sysbios_knl_Semaphore_LM_pend__C)
                  000186d4    00000004     fault_pem4.oem4 (.const:ti_sysbios_knl_Semaphore_LM_post__C)
                  000186d8    00000004     fault_pem4.oem4 (.const:ti_sysbios_knl_Semaphore_Module__diagsEnabled__C)
                  000186dc    00000004     fault_pem4.oem4 (.const:ti_sysbios_knl_Semaphore_Module__diagsIncluded__C)
                  000186e0    00000004     fault_pem4.oem4 (.const:ti_sysbios_knl_Semaphore_Module__diagsMask__C)
                  000186e4    00000004     fault_pem4.oem4 (.const:ti_sysbios_knl_Semaphore_Module__loggerFxn2__C)
                  000186e8    00000004     fault_pem4.oem4 (.const:ti_sysbios_knl_Semaphore_Module__loggerFxn4__C)
                  000186ec    00000004     fault_pem4.oem4 (.const:ti_sysbios_knl_Semaphore_Module__loggerObj__C)
                  000186f0    00000004     fault_pem4.oem4 (.const:ti_sysbios_knl_Swi_A_badPriority__C)
                  000186f4    00000004     fault_pem4.oem4 (.const:ti_sysbios_knl_Swi_LD_end__C)
                  000186f8    00000004     fault_pem4.oem4 (.const:ti_sysbios_knl_Swi_LM_begin__C)
                  000186fc    00000004     fault_pem4.oem4 (.const:ti_sysbios_knl_Swi_LM_post__C)
                  00018700    00000004     fault_pem4.oem4 (.const:ti_sysbios_knl_Swi_Module__diagsEnabled__C)
                  00018704    00000004     fault_pem4.oem4 (.const:ti_sysbios_knl_Swi_Module__diagsIncluded__C)
                  00018708    00000004     fault_pem4.oem4 (.const:ti_sysbios_knl_Swi_Module__diagsMask__C)
                  0001870c    00000004     fault_pem4.oem4 (.const:ti_sysbios_knl_Swi_Module__loggerFxn1__C)
                  00018710    00000004     fault_pem4.oem4 (.const:ti_sysbios_knl_Swi_Module__loggerFxn4__C)
                  00018714    00000004     fault_pem4.oem4 (.const:ti_sysbios_knl_Swi_Module__loggerObj__C)
                  00018718    00000004     fault_pem4.oem4 (.const:ti_sysbios_knl_Swi_Object__count__C)
                  0001871c    00000004     fault_pem4.oem4 (.const:ti_sysbios_knl_Swi_Object__heap__C)
                  00018720    00000004     fault_pem4.oem4 (.const:ti_sysbios_knl_Swi_Object__table__C)
                  00018724    00000004     fault_pem4.oem4 (.const:ti_sysbios_knl_Swi_numConstructedSwis__C)
                  00018728    00000004     fault_pem4.oem4 (.const:ti_sysbios_knl_Task_A_badPriority__C)
                  0001872c    00000004     fault_pem4.oem4 (.const:ti_sysbios_knl_Task_A_badTaskState__C)
                  00018730    00000004     fault_pem4.oem4 (.const:ti_sysbios_knl_Task_A_badThreadType__C)
                  00018734    00000004     fault_pem4.oem4 (.const:ti_sysbios_knl_Task_A_noPendElem__C)
                  00018738    00000004     fault_pem4.oem4 (.const:ti_sysbios_knl_Task_E_spOutOfBounds__C)
                  0001873c    00000004     fault_pem4.oem4 (.const:ti_sysbios_knl_Task_E_stackOverflow__C)
                  00018740    00000004     fault_pem4.oem4 (.const:ti_sysbios_knl_Task_LD_block__C)
                  00018744    00000004     fault_pem4.oem4 (.const:ti_sysbios_knl_Task_LD_exit__C)
                  00018748    00000004     fault_pem4.oem4 (.const:ti_sysbios_knl_Task_LD_ready__C)
                  0001874c    00000004     fault_pem4.oem4 (.const:ti_sysbios_knl_Task_LM_setPri__C)
                  00018750    00000004     fault_pem4.oem4 (.const:ti_sysbios_knl_Task_LM_switch__C)
                  00018754    00000004     fault_pem4.oem4 (.const:ti_sysbios_knl_Task_Module_State_inactiveQ__O)
                  00018758    00000004     fault_pem4.oem4 (.const:ti_sysbios_knl_Task_Module__diagsEnabled__C)
                  0001875c    00000004     fault_pem4.oem4 (.const:ti_sysbios_knl_Task_Module__diagsIncluded__C)
                  00018760    00000004     fault_pem4.oem4 (.const:ti_sysbios_knl_Task_Module__diagsMask__C)
                  00018764    00000004     fault_pem4.oem4 (.const:ti_sysbios_knl_Task_Module__loggerFxn2__C)
                  00018768    00000004     fault_pem4.oem4 (.const:ti_sysbios_knl_Task_Module__loggerFxn4__C)
                  0001876c    00000004     fault_pem4.oem4 (.const:ti_sysbios_knl_Task_Module__loggerObj__C)
                  00018770    00000004     fault_pem4.oem4 (.const:ti_sysbios_knl_Task_Object__count__C)
                  00018774    00000004     fault_pem4.oem4 (.const:ti_sysbios_knl_Task_Object__heap__C)
                  00018778    00000004     fault_pem4.oem4 (.const:ti_sysbios_knl_Task_Object__table__C)
                  0001877c    00000004     fault_pem4.oem4 (.const:ti_sysbios_knl_Task_allBlockedFunc__C)
                  00018780    00000004     fault_pem4.oem4 (.const:ti_sysbios_knl_Task_defaultStackHeap__C)
                  00018784    00000004     fault_pem4.oem4 (.const:ti_sysbios_knl_Task_defaultStackSize__C)
                  00018788    00000004     fault_pem4.oem4 (.const:ti_sysbios_knl_Task_numConstructedTasks__C)
                  0001878c    00000004     fault_pem4.oem4 (.const:ti_sysbios_syncs_SyncSem_Module__diagsEnabled__C)
                  00018790    00000004     fault_pem4.oem4 (.const:ti_sysbios_syncs_SyncSem_Module__diagsIncluded__C)
                  00018794    00000004     fault_pem4.oem4 (.const:ti_sysbios_syncs_SyncSem_Module__diagsMask__C)
                  00018798    00000004     fault_pem4.oem4 (.const:ti_sysbios_timers_dmtimer_Timer_E_cannotSupport__C)
                  0001879c    00000004     fault_pem4.oem4 (.const:ti_sysbios_timers_dmtimer_Timer_E_freqMismatch__C)
                  000187a0    00000004     fault_pem4.oem4 (.const:ti_sysbios_timers_dmtimer_Timer_Module__diagsEnabled__C)
                  000187a4    00000004     fault_pem4.oem4 (.const:ti_sysbios_timers_dmtimer_Timer_Module__diagsIncluded__C)
                  000187a8    00000004     fault_pem4.oem4 (.const:ti_sysbios_timers_dmtimer_Timer_Module__diagsMask__C)
                  000187ac    00000004     fault_pem4.oem4 (.const:ti_sysbios_timers_dmtimer_Timer_Object__count__C)
                  000187b0    00000004     fault_pem4.oem4 (.const:ti_sysbios_timers_dmtimer_Timer_Object__table__C)
                  000187b4    00000004     fault_pem4.oem4 (.const:ti_sysbios_timers_dmtimer_Timer_numTimerDevices__C)
                  000187b8    00000004     fault_pem4.oem4 (.const:ti_sysbios_xdcruntime_GateThreadSupport_Instance_State_gate__O)
                  000187bc    00000004     fault_pem4.oem4 (.const:ti_trace_SysMin_bufSize__C)
                  000187c0    00000004     fault_pem4.oem4 (.const:xdc_runtime_Assert_E_assertFailed__C)
                  000187c4    00000004     fault_pem4.oem4 (.const:xdc_runtime_Core_A_initializedParams__C)
                  000187c8    00000004     fault_pem4.oem4 (.const:xdc_runtime_Core_Module__diagsEnabled__C)
                  000187cc    00000004     fault_pem4.oem4 (.const:xdc_runtime_Core_Module__diagsIncluded__C)
                  000187d0    00000004     fault_pem4.oem4 (.const:xdc_runtime_Core_Module__diagsMask__C)
                  000187d4    00000004     fault_pem4.oem4 (.const:xdc_runtime_Error_E_generic__C)
                  000187d8    00000004     fault_pem4.oem4 (.const:xdc_runtime_Error_E_memory__C)
                  000187dc    00000004     fault_pem4.oem4 (.const:xdc_runtime_Error_Module__diagsEnabled__C)
                  000187e0    00000004     fault_pem4.oem4 (.const:xdc_runtime_Error_Module__diagsIncluded__C)
                  000187e4    00000004     fault_pem4.oem4 (.const:xdc_runtime_Error_Module__diagsMask__C)
                  000187e8    00000004     fault_pem4.oem4 (.const:xdc_runtime_Error_Module__loggerFxn8__C)
                  000187ec    00000004     fault_pem4.oem4 (.const:xdc_runtime_Error_Module__loggerObj__C)
                  000187f0    00000004     fault_pem4.oem4 (.const:xdc_runtime_Error_policyFxn__C)
                  000187f4    00000004     fault_pem4.oem4 (.const:xdc_runtime_Error_raiseHook__C)
                  000187f8    00000004     fault_pem4.oem4 (.const:xdc_runtime_IGateProvider_Interface__BASE__C)
                  000187fc    00000004     fault_pem4.oem4 (.const:xdc_runtime_IHeap_Interface__BASE__C)
                  00018800    00000004     fault_pem4.oem4 (.const:xdc_runtime_ILogger_Interface__BASE__C)
                  00018804    00000004     fault_pem4.oem4 (.const:xdc_runtime_IModule_Interface__BASE__C)
                  00018808    00000004     fault_pem4.oem4 (.const:xdc_runtime_Log_L_error__C)
                  0001880c    00000004     fault_pem4.oem4 (.const:xdc_runtime_Main_Module__diagsEnabled__C)
                  00018810    00000004     fault_pem4.oem4 (.const:xdc_runtime_Main_Module__diagsIncluded__C)
                  00018814    00000004     fault_pem4.oem4 (.const:xdc_runtime_Main_Module__diagsMask__C)
                  00018818    00000004     fault_pem4.oem4 (.const:xdc_runtime_Main_Module__loggerFxn2__C)
                  0001881c    00000004     fault_pem4.oem4 (.const:xdc_runtime_Main_Module__loggerObj__C)
                  00018820    00000004     fault_pem4.oem4 (.const:xdc_runtime_Memory_defaultHeapInstance__C)
                  00018824    00000004     fault_pem4.oem4 (.const:xdc_runtime_Registry_Module__diagsEnabled__C)
                  00018828    00000004     fault_pem4.oem4 (.const:xdc_runtime_Registry_Module__diagsIncluded__C)
                  0001882c    00000004     fault_pem4.oem4 (.const:xdc_runtime_Registry_Module__diagsMask__C)
                  00018830    00000004     fault_pem4.oem4 (.const:xdc_runtime_Registry_Module__loggerFxn1__C)
                  00018834    00000004     fault_pem4.oem4 (.const:xdc_runtime_Registry_Module__loggerFxn2__C)
                  00018838    00000004     fault_pem4.oem4 (.const:xdc_runtime_Registry_Module__loggerFxn4__C)
                  0001883c    00000004     fault_pem4.oem4 (.const:xdc_runtime_Registry_Module__loggerFxn8__C)
                  00018840    00000004     fault_pem4.oem4 (.const:xdc_runtime_Registry_Module__loggerObj__C)
                  00018844    00000004     fault_pem4.oem4 (.const:xdc_runtime_Startup_execImpl__C)
                  00018848    00000004     fault_pem4.oem4 (.const:xdc_runtime_Startup_lastFxns__A)
                  0001884c    00000004     fault_pem4.oem4 (.const:xdc_runtime_Startup_maxPasses__C)
                  00018850    00000004     fault_pem4.oem4 (.const:xdc_runtime_Startup_sfxnRts__C)
                  00018854    00000004     fault_pem4.oem4 (.const:xdc_runtime_Startup_sfxnTab__C)
                  00018858    00000004     fault_pem4.oem4 (.const:xdc_runtime_Startup_startModsFxn__C)
                  0001885c    00000004     fault_pem4.oem4 (.const:xdc_runtime_System_Module__gateObj__C)
                  00018860    00000004     fault_pem4.oem4 (.const:xdc_runtime_System_abortFxn__C)
                  00018864    00000004     fault_pem4.oem4 (.const:xdc_runtime_System_exitFxn__C)
                  00018868    00000004     fault_pem4.oem4 (.const:xdc_runtime_System_extendFxn__C)
                  0001886c    00000004     fault_pem4.oem4 (.const:xdc_runtime_System_maxAtexitHandlers__C)
                  00018870    00000004     fault_pem4.oem4 (.const:xdc_runtime_Text_charTab__C)
                  00018874    00000004     fault_pem4.oem4 (.const:xdc_runtime_Text_nameEmpty__C)
                  00018878    00000004     fault_pem4.oem4 (.const:xdc_runtime_Text_nameStatic__C)
                  0001887c    00000004     fault_pem4.oem4 (.const:xdc_runtime_Text_nameUnknown__C)
                  00018880    00000004     fault_pem4.oem4 (.const:xdc_runtime_Text_nodeTab__C)
                  00018884    00000004     fault_pem4.oem4 (.const:xdc_runtime_Text_visitRopeFxn__C)
                  00018888    00000004     fault_pem4.oem4 (.const:xdc_runtime_knl_ISync_Interface__BASE__C)
                  0001888c    00000002     fault_pem4.oem4 (.const:ti_ipc_transports_TransportRpmsgSetup_Module__loggerDefined__C)
                  0001888e    00000002     fault_pem4.oem4 (.const:ti_ipc_transports_TransportRpmsg_Module__id__C)
                  00018890    00000002     fault_pem4.oem4 (.const:ti_ipc_transports_TransportRpmsg_Module__loggerDefined__C)
                  00018892    00000002     fault_pem4.oem4 (.const:ti_sdo_ipc_MessageQ_Module__id__C)
                  00018894    00000002     fault_pem4.oem4 (.const:ti_sdo_ipc_MessageQ_Module__loggerDefined__C)
                  00018896    00000002     fault_pem4.oem4 (.const:ti_sdo_ipc_family_vayu_InterruptIpu_Module__id__C)
                  00018898    00000002     fault_pem4.oem4 (.const:ti_sdo_utils_MultiProc_Module__id__C)
                  0001889a    00000002     fault_pem4.oem4 (.const:ti_sdo_utils_MultiProc_numProcessors__C)
                  0001889c    00000002     fault_pem4.oem4 (.const:ti_sdo_utils_MultiProc_numProcsInCluster__C)
                  0001889e    00000002     fault_pem4.oem4 (.const:ti_sdo_utils_NameServer_Module__id__C)
                  000188a0    00000002     fault_pem4.oem4 (.const:ti_sysbios_BIOS_smpEnabled__C)
                  000188a2    00000002     fault_pem4.oem4 (.const:ti_sysbios_BIOS_swiEnabled__C)
                  000188a4    00000002     fault_pem4.oem4 (.const:ti_sysbios_BIOS_taskEnabled__C)
                  000188a6    00000002     fault_pem4.oem4 (.const:ti_sysbios_family_arm_ducati_Core_Module__id__C)
                  000188a8    00000002     fault_pem4.oem4 (.const:ti_sysbios_family_arm_ducati_GateDualCore_Module__id__C)
                  000188aa    00000002     fault_pem4.oem4 (.const:ti_sysbios_family_arm_ducati_GateDualCore_initGates__C)
                  000188ac    00000002     fault_pem4.oem4 (.const:ti_sysbios_family_arm_ducati_Timer_Module__id__C)
                  000188ae    00000002     fault_pem4.oem4 (.const:ti_sysbios_family_arm_m3_Hwi_Module__id__C)
                  000188b0    00000002     fault_pem4.oem4 (.const:ti_sysbios_family_arm_m3_Hwi_Module__loggerDefined__C)
                  000188b2    00000002     fault_pem4.oem4 (.const:ti_sysbios_family_shared_vayu_IntXbar_Module__id__C)
                  000188b4    00000002     fault_pem4.oem4 (.const:ti_sysbios_gates_GateMutexPri_Module__id__C)
                  000188b6    00000002     fault_pem4.oem4 (.const:ti_sysbios_gates_GateMutex_Module__id__C)
                  000188b8    00000002     fault_pem4.oem4 (.const:ti_sysbios_gates_GateSwi_Module__id__C)
                  000188ba    00000002     fault_pem4.oem4 (.const:ti_sysbios_hal_Hwi_Module__id__C)
                  000188bc    00000002     fault_pem4.oem4 (.const:ti_sysbios_hal_ammu_AMMU_configureAmmu__C)
                  000188be    00000002     fault_pem4.oem4 (.const:ti_sysbios_hal_unicache_Cache_configureCache__C)
                  000188c0    00000002     fault_pem4.oem4 (.const:ti_sysbios_hal_unicache_Cache_enableCache__C)
                  000188c2    00000002     fault_pem4.oem4 (.const:ti_sysbios_hal_unicache_Cache_l2CacheSupported__C)
                  000188c4    00000002     fault_pem4.oem4 (.const:ti_sysbios_heaps_HeapBuf_Module__id__C)
                  000188c6    00000002     fault_pem4.oem4 (.const:ti_sysbios_heaps_HeapBuf_trackMaxAllocs__C)
                  000188c8    00000002     fault_pem4.oem4 (.const:ti_sysbios_heaps_HeapMem_Module__id__C)
                  000188ca    00000002     fault_pem4.oem4 (.const:ti_sysbios_knl_Clock_Module__id__C)
                  000188cc    00000002     fault_pem4.oem4 (.const:ti_sysbios_knl_Clock_Module__loggerDefined__C)
                  000188ce    00000002     fault_pem4.oem4 (.const:ti_sysbios_knl_Semaphore_Module__id__C)
                  000188d0    00000002     fault_pem4.oem4 (.const:ti_sysbios_knl_Semaphore_Module__loggerDefined__C)
                  000188d2    00000002     fault_pem4.oem4 (.const:ti_sysbios_knl_Swi_Module__id__C)
                  000188d4    00000002     fault_pem4.oem4 (.const:ti_sysbios_knl_Swi_Module__loggerDefined__C)
                  000188d6    00000002     fault_pem4.oem4 (.const:ti_sysbios_knl_Task_Module__id__C)
                  000188d8    00000002     fault_pem4.oem4 (.const:ti_sysbios_knl_Task_Module__loggerDefined__C)
                  000188da    00000002     fault_pem4.oem4 (.const:ti_sysbios_knl_Task_initStackFlag__C)
                  000188dc    00000002     fault_pem4.oem4 (.const:ti_sysbios_syncs_SyncSem_Module__id__C)
                  000188de    00000002     fault_pem4.oem4 (.const:ti_sysbios_timers_dmtimer_Timer_Module__id__C)
                  000188e0    00000002     fault_pem4.oem4 (.const:ti_sysbios_timers_dmtimer_Timer_checkFrequency__C)
                  000188e2    00000002     fault_pem4.oem4 (.const:ti_sysbios_timers_dmtimer_Timer_startupNeeded__C)
                  000188e4    00000002     fault_pem4.oem4 (.const:ti_trace_SysMin_flushAtExit__C)
                  000188e6    00000002     fault_pem4.oem4 (.const:xdc_runtime_Core_Module__id__C)
                  000188e8    00000002     fault_pem4.oem4 (.const:xdc_runtime_Error_Module__loggerDefined__C)
                  000188ea    00000002     fault_pem4.oem4 (.const:xdc_runtime_Error_maxDepth__C)
                  000188ec    00000002     fault_pem4.oem4 (.const:xdc_runtime_Main_Module__id__C)
                  000188ee    00000002     fault_pem4.oem4 (.const:xdc_runtime_Main_Module__loggerDefined__C)
                  000188f0    00000002     fault_pem4.oem4 (.const:xdc_runtime_Memory_Module__id__C)
                  000188f2    00000002     fault_pem4.oem4 (.const:xdc_runtime_Registry_Module__loggerDefined__C)
                  000188f4    00000002     fault_pem4.oem4 (.const:xdc_runtime_Text_charCnt__C)
                  000188f6    00000002     fault_pem4.oem4 (.const:xdc_runtime_Text_isLoaded__C)
                  000188f8    00000002     fault_pem4.oem4 (.const:xdc_runtime_Text_registryModsLastId__C)
                  000188fa    00000002     fault_pem4.oem4 (.const:xdc_runtime_Text_unnamedModsLastId__C)

.data      0    80080958    00001390     UNINITIALIZED
                  80080958    0000063c     ipc.aem4 : Ipc.obj (.data)
                  80080f94    00000314     fault_pem4.oem4 (.data)
                  800812a8    00000208     fault_pem4.oem4 (.data:ti_trace_SysMin_Module_State_0_lineBuffers__A)
                  800814b0    000000c0     fault_pem4.oem4 (.data:ti_sysbios_timers_dmtimer_Timer_Module_State_0_device__A)
                  80081570    000000b0     rtsv7M4_T_le_eabi.lib : signal.obj (.data:sigtable)
                  80081620    00000080                           : xvalues.obj (.data)
                  800816a0    00000080     fault_pem4.oem4 (.data:ti_sysbios_knl_Swi_Module_State_0_readyQ__A)
                  80081720    00000080     fault_pem4.oem4 (.data:ti_sysbios_knl_Task_Module_State_0_readyQ__A)
                  800817a0    00000080     fault_pem4.oem4 (.data:ti_sysbios_timers_dmtimer_Timer_Module_State_0_intFreqs__A)
                  80081820    00000072     fault_pem4.oem4 (.data:ti_sysbios_family_shared_vayu_IntXbar_Module_State_0_intXbar__A)
                  80081892    00000002     ti.deh_vayu_smp.aem4 : Watchdog.oem4 (.data)
                  80081894    00000068     fault_pem4.oem4 (.data:ti_sdo_ipc_MessageQ_Module__state__V)
                  800818fc    0000005c     fault_pem4.oem4 (.data:ti_sysbios_timers_dmtimer_Timer_Object__table__V)
                  80081958    00000058     fault_pem4.oem4 (.data:ti_sdo_ipc_family_vayu_InterruptIpu_Module__state__V)
                  800819b0    00000054     fault_pem4.oem4 (.data:ti_sysbios_gates_GateMutex_Object__table__V)
                  80081a04    00000050     fault_pem4.oem4 (.data:ti_sdo_ipc_family_vayu_NotifySetup_Module__state__V)
                  80081a54    00000050     fault_pem4.oem4 (.data:ti_sysbios_heaps_HeapBuf_Object__table__V)
                  80081aa4    00000050     fault_pem4.oem4 (.data:ti_sysbios_knl_Task_Object__table__V)
                  80081af4    00000044     fault_pem4.oem4 (.data:ti_sysbios_knl_Task_Module__state__V)
                  80081b38    00000040     fault_pem4.oem4 (.data:ti_sysbios_timers_dmtimer_Timer_Module_State_0_handles__A)
                  80081b78    0000003c     fault_pem4.oem4 (.data:ti_sdo_utils_NameServer_Object__table__V)
                  80081bb4    00000034     fault_pem4.oem4 (.data:ti_sysbios_family_arm_m3_Hwi_Module__state__V)
                  80081be8    00000030     fault_pem4.oem4 (.data:ti_sysbios_family_arm_m3_Hwi_Object__table__V)
                  80081c18    00000030     fault_pem4.oem4 (.data:ti_sysbios_knl_Swi_Object__table__V)
                  80081c48    0000002c     fault_pem4.oem4 (.data:ti_sysbios_knl_Clock_Module__state__V)
                  80081c74    00000028     fault_pem4.oem4 (.data:ti_sdo_ipc_MessageQ_Module_State_0_transports__A)
                  80081c9c    00000024     fault_pem4.oem4 (.data:ti_sysbios_BIOS_Module__state__V)
                  80081cc0    00000008     rtsv7M4_T_le_eabi.lib : _lock.obj (.data)
                  80081cc8    00000008                           : exit.obj (.data)
                  80081cd0    00000008                           : feraiseexcept.obj (.data)
                  80081cd8    00000006     ti.trace.aem4 : SysMin.oem4 (.data)
                  80081cde    00000002     --HOLE--
                  80081ce0    00000004     rtsv7M4_T_le_eabi.lib : errno.obj (.data)
                  80081ce4    00000004                           : stkdepth_vars.obj (.data)


LINKER GENERATED COPY TABLES

__TI_cinit_table @ 00019cb8 records: 4, size/record: 8, table size: 32
	.data: load addr=00018900, load size=00001398 bytes, run addr=80080958, run size=00001390 bytes, compression=copy
	.bss: load addr=00019c98, load size=00000008 bytes, run addr=80000000, run size=00080954 bytes, compression=zero_init
	.errorbuf: load addr=00019ca0, load size=00000008 bytes, run addr=9f060000, run size=00000200 bytes, compression=zero_init
	.tracebuf: load addr=00019ca8, load size=00000008 bytes, run addr=9f000000, run size=00008000 bytes, compression=zero_init


LINKER GENERATED HANDLER TABLE

__TI_handler_table @ 00019cb0 records: 2, size/record: 4, table size: 8
	index: 0, handler: __TI_zero_init
	index: 1, handler: __TI_decompress_none


GLOBAL SYMBOLS: SORTED ALPHABETICALLY BY Name 

address   name                                                                    
-------   ----                                                                    
00011f99  C$$EXIT                                                                 
0000aaa1  IpcMgr_ipcStartup                                                       
UNDEFED   IpcPower_registerCallback                                               
0000c469  MessageQ_alloc                                                          
00010129  MessageQ_create                                                         
00009a31  MessageQ_free                                                           
0000d371  MessageQ_get                                                            
00014641  MessageQ_getQueueId                                                     
00006689  MessageQ_put                                                            
0000ed31  MultiProc_getId                                                         
0000fe19  MultiProc_getName                                                       
00014279  MultiProc_self                                                          
00006e11  NameServerRemote_processMessage                                         
000086b9  NameServer_add                                                          
00010871  NameServer_getHandle                                                    
0000d499  NameServer_getLocal                                                     
00008951  RPMessage_create                                                        
00008149  RPMessage_init                                                          
000057e1  RPMessage_send                                                          
UNDEFED   SHT$$INIT_ARRAY$$Base                                                   
UNDEFED   SHT$$INIT_ARRAY$$Limit                                                  
80081aa4  TSK_idle                                                                
00007181  VirtQueue_create                                                        
0000b319  VirtQueue_isr                                                           
0000d5b9  VirtQueue_kick                                                          
00014511  VirtQueue_postCrashToMailbox                                            
00008421  VirtQueue_startup                                                       
00013195  _Dclass                                                                 
80081620  _Denorm                                                                 
0000f1bf  _Dnorm                                                                  
0000db39  _Dscale                                                                 
000110c9  _Dunscale                                                               
80081630  _Eps                                                                    
80081ce0  _Errno                                                                  
80081cd0  _Fenv                                                                   
00012d75  _Feraise                                                                
80081640  _Hugeval                                                                
80081650  _Inf                                                                    
80081660  _Nan                                                                    
80081680  _Rteps                                                                  
80081670  _Snan                                                                   
80081cd4  _Tls_setup__Fenv                                                        
80081690  _Xbig                                                                   
80081698  _Zero                                                                   
00004000  __ASM__                                                                 
0000408d  __ISA__                                                                 
000040a0  __PLAT__                                                                
80082ce8  __STACK_END                                                             
00001000  __STACK_SIZE                                                            
000040c6  __TARG__                                                                
00019cb8  __TI_CINIT_Base                                                         
00019cd8  __TI_CINIT_Limit                                                        
00019cb0  __TI_Handler_Table_Base                                                 
00019cb8  __TI_Handler_Table_Limit                                                
0000faf9  __TI_auto_init                                                          
80081cc8  __TI_cleanup_ptr                                                        
00014249  __TI_decompress_none                                                    
80081ccc  __TI_dtors_ptr                                                          
00004da1  __TI_printfi                                                            
00018900  __TI_static_base__                                                      
00014285  __TI_zero_init                                                          
000040eb  __TRDR__                                                                
000106e1  __aeabi_cdcmpeq                                                         
000106e1  __aeabi_cdcmple                                                         
00010767  __aeabi_cdrcmple                                                        
00011c87  __aeabi_d2iz                                                            
0000ac87  __aeabi_dadd                                                            
0000cea1  __aeabi_ddiv                                                            
0000e16d  __aeabi_dmul                                                            
0000ac7d  __aeabi_dsub                                                            
00012ef5  __aeabi_i2d                                                             
000050a7  __aeabi_idiv0                                                           
000109ed  __aeabi_memclr                                                          
000109ed  __aeabi_memclr4                                                         
000109ed  __aeabi_memclr8                                                         
0000feb5  __aeabi_memcpy                                                          
0000feb5  __aeabi_memcpy4                                                         
0000feb5  __aeabi_memcpy8                                                         
000109ef  __aeabi_memset                                                          
000109ef  __aeabi_memset4                                                         
000109ef  __aeabi_memset8                                                         
00012205  __aeabi_uidiv                                                           
00012205  __aeabi_uidivmod                                                        
0000a4c1  __aeabi_uldivmod                                                        
ffffffff  __binit__                                                               
ffffffff  __c_args__                                                              
80081ce8  __stack                                                                 
0000ae33  __xdc__init                                                             
800812a4  __xdc__init__addr                                                       
00013dd5  _args_main                                                              
00000000  _argsize                                                                
00011f55  _c_int00                                                                
00017b04  _ctypes_                                                                
80081cc0  _lock                                                                   
00013f43  _nop                                                                    
00013f3b  _register_lock                                                          
00013f35  _register_unlock                                                        
80081cc4  _unlock                                                                 
00011f9d  abort                                                                   
00011985  atoi                                                                    
ffffffff  binit                                                                   
000119d1  copy_in                                                                 
00011fa5  exit                                                                    
00012b99  feraiseexcept                                                           
000136b9  frexp                                                                   
0000bbe9  fxnFault                                                                
80080980  intInfo                                                                 
00011ec9  ldexp                                                                   
000117e9  ltoa                                                                    
00011895  main                                                                    
80081ce4  main_func_sp                                                            
00013bb7  memccpy                                                                 
0000feb5  memcpy                                                                  
000109f5  memset                                                                  
00012f23  raise                                                                   
000121c5  signal                                                                  
00011389  sprintf                                                                 
00013e99  strchr                                                                  
00013ded  strcmp                                                                  
00013f49  strlen                                                                  
00012d43  strncpy                                                                 
9f060000  ti_deh_Deh_Module_State_0_outbuf__A                                     
80080fa4  ti_deh_Deh_Module__state__V                                             
0001391d  ti_deh_Deh_Module_startup__E                                            
00014045  ti_deh_Deh_excHandler__E                                                
000050a9  ti_deh_Deh_excHandler__F                                                
0001453f  ti_deh_Deh_idleBegin__E                                                 
00014547  ti_deh_Deh_idleBegin__F                                                 
80080fb0  ti_deh_StackDbg_Module__state__V                                        
000136db  ti_deh_StackDbg_walkStack__E                                            
0000e835  ti_deh_StackDbg_walkStack__F                                            
80080fb8  ti_deh_Watchdog_Module_State_0_device__A                                
80080fd8  ti_deh_Watchdog_Module_State_0_status__A                                
80080fdc  ti_deh_Watchdog_Module__state__V                                        
0001454f  ti_deh_Watchdog_idleBegin__E                                            
0001393d  ti_deh_Watchdog_idleBegin__F                                            
00014291  ti_deh_Watchdog_init__E                                                 
00008e65  ti_deh_Watchdog_init__F                                                 
0001429d  ti_deh_Watchdog_isException__E                                          
00011cd1  ti_deh_Watchdog_isException__F                                          
000129a1  ti_deh_Watchdog_kick__I                                                 
00011569  ti_deh_Watchdog_restore__I                                              
00011a1d  ti_deh_Watchdog_start__I                                                
00012649  ti_deh_Watchdog_stop__I                                                 
000142a9  ti_deh_Watchdog_swiPrehook__E                                           
000136fd  ti_deh_Watchdog_swiPrehook__F                                           
00014055  ti_deh_Watchdog_taskSwitch__E                                           
000134bd  ti_deh_Watchdog_taskSwitch__F                                           
80080974  ti_ipc_family_vayu__Desc                                                
0001371f  ti_ipc_namesrv_NameServerRemoteRpmsg_Handle__label__S                   
00014601  ti_ipc_namesrv_NameServerRemoteRpmsg_Instance_finalize__E               
0000f9a9  ti_ipc_namesrv_NameServerRemoteRpmsg_Instance_init__E                   
00017ea8  ti_ipc_namesrv_NameServerRemoteRpmsg_Module__FXNS__C                    
00008bdc  ti_ipc_namesrv_NameServerRemoteRpmsg_Module__diagsEnabled__C            
0000934c  ti_ipc_namesrv_NameServerRemoteRpmsg_Module__diagsIncluded__C           
000095a4  ti_ipc_namesrv_NameServerRemoteRpmsg_Module__diagsMask__C               
000170fa  ti_ipc_namesrv_NameServerRemoteRpmsg_Module__id__C                      
00017c06  ti_ipc_namesrv_NameServerRemoteRpmsg_Module__loggerDefined__C           
000097ec  ti_ipc_namesrv_NameServerRemoteRpmsg_Module__loggerFxn1__C              
00009c6c  ti_ipc_namesrv_NameServerRemoteRpmsg_Module__loggerFxn2__C              
0000a2c4  ti_ipc_namesrv_NameServerRemoteRpmsg_Module__loggerFxn4__C              
0000a6b4  ti_ipc_namesrv_NameServerRemoteRpmsg_Module__loggerFxn8__C              
0000a8ac  ti_ipc_namesrv_NameServerRemoteRpmsg_Module__loggerObj__C               
80080fe8  ti_ipc_namesrv_NameServerRemoteRpmsg_Module__root__V                    
80080ff0  ti_ipc_namesrv_NameServerRemoteRpmsg_Module__state__V                   
000180b4  ti_ipc_namesrv_NameServerRemoteRpmsg_Object__DESC__C                    
000183ac  ti_ipc_namesrv_NameServerRemoteRpmsg_Object__PARAMS__C                  
00011d19  ti_ipc_namesrv_NameServerRemoteRpmsg_Object__create__S                  
00013215  ti_ipc_namesrv_NameServerRemoteRpmsg_Object__delete__S                  
000134e1  ti_ipc_namesrv_NameServerRemoteRpmsg_Object__first__S                   
0001323d  ti_ipc_namesrv_NameServerRemoteRpmsg_Object__next__S                    
0000fb99  ti_ipc_namesrv_NameServerRemoteRpmsg_attach__E                          
00011fdd  ti_ipc_namesrv_NameServerRemoteRpmsg_create                             
000142b5  ti_ipc_namesrv_NameServerRemoteRpmsg_delete                             
0000eec1  ti_ipc_namesrv_NameServerRemoteRpmsg_detach__E                          
000131bf  ti_ipc_namesrv_NameServerRemoteRpmsg_get__E                             
00005d99  ti_ipc_namesrv_NameServerRemoteRpmsg_get__F                             
00014649  ti_ipc_namesrv_NameServerRemoteRpmsg_sharedMemReq__E                    
0000b18c  ti_ipc_namesrv_NameServerRemoteRpmsg_timeout__C                         
00003000  ti_ipc_remoteproc_ResourceTable                                         
80081000  ti_ipc_remoteproc_Resource_Module__state__V                             
000142c1  ti_ipc_remoteproc_Resource_Module_startup__E                            
000129d9  ti_ipc_remoteproc_Resource_init__I                                      
8008098c  ti_ipc_rpmsg_RPMessage__Desc                                            
00018524  ti_ipc_rpmsg_RPMessage_heap                                             
00018520  ti_ipc_rpmsg_RPMessage_messageBufferSize                                
8008100c  ti_ipc_transports_TransportRpmsgSetup_Module_State_0_handles__A         
0000b494  ti_ipc_transports_TransportRpmsgSetup_Module__diagsEnabled__C           
0000b8fc  ti_ipc_transports_TransportRpmsgSetup_Module__diagsIncluded__C          
0000ba74  ti_ipc_transports_TransportRpmsgSetup_Module__diagsMask__C              
00017ea6  ti_ipc_transports_TransportRpmsgSetup_Module__id__C                     
0001888c  ti_ipc_transports_TransportRpmsgSetup_Module__loggerDefined__C          
0000bec4  ti_ipc_transports_TransportRpmsgSetup_Module__loggerFxn2__C             
0000c02c  ti_ipc_transports_TransportRpmsgSetup_Module__loggerObj__C              
80081020  ti_ipc_transports_TransportRpmsgSetup_Module__state__V                  
0000ec69  ti_ipc_transports_TransportRpmsgSetup_attach__E                         
00013741  ti_ipc_transports_TransportRpmsg_Handle__label__S                       
0000afe9  ti_ipc_transports_TransportRpmsg_Instance_finalize__E                   
000095a9  ti_ipc_transports_TransportRpmsg_Instance_init__E                       
00017ed0  ti_ipc_transports_TransportRpmsg_Module__FXNS__C                        
0000c194  ti_ipc_transports_TransportRpmsg_Module__diagsEnabled__C                
0000c2fc  ti_ipc_transports_TransportRpmsg_Module__diagsIncluded__C               
0000c464  ti_ipc_transports_TransportRpmsg_Module__diagsMask__C                   
0001888e  ti_ipc_transports_TransportRpmsg_Module__id__C                          
00018890  ti_ipc_transports_TransportRpmsg_Module__loggerDefined__C               
0000c5b4  ti_ipc_transports_TransportRpmsg_Module__loggerFxn1__C                  
0000c704  ti_ipc_transports_TransportRpmsg_Module__loggerFxn2__C                  
0000c854  ti_ipc_transports_TransportRpmsg_Module__loggerFxn4__C                  
0000cae4  ti_ipc_transports_TransportRpmsg_Module__loggerFxn8__C                  
0000cd64  ti_ipc_transports_TransportRpmsg_Module__loggerObj__C                   
80081004  ti_ipc_transports_TransportRpmsg_Module__root__V                        
000180d4  ti_ipc_transports_TransportRpmsg_Object__DESC__C                        
000180f4  ti_ipc_transports_TransportRpmsg_Object__PARAMS__C                      
00010b55  ti_ipc_transports_TransportRpmsg_Object__create__S                      
00013265  ti_ipc_transports_TransportRpmsg_Object__delete__S                      
00012fd9  ti_ipc_transports_TransportRpmsg_Params__init__S                        
00014651  ti_ipc_transports_TransportRpmsg_control__E                             
00010ded  ti_ipc_transports_TransportRpmsg_create                                 
00014659  ti_ipc_transports_TransportRpmsg_getStatus__E                           
0000d911  ti_ipc_transports_TransportRpmsg_put__E                                 
00014691  ti_ipc_transports_TransportRpmsg_setErrFxn__E                           
0000d10c  ti_sdo_ipc_MessageQ_A_cannotFreeStaticMsg__C                            
0000d244  ti_sdo_ipc_MessageQ_A_heapIdInvalid__C                                  
0000d494  ti_sdo_ipc_MessageQ_A_invalidMsg__C                                     
0000d6d4  ti_sdo_ipc_MessageQ_A_invalidObj__C                                     
0000d90c  ti_sdo_ipc_MessageQ_A_invalidQueueId__C                                 
0000da24  ti_sdo_ipc_MessageQ_A_procIdInvalid__C                                  
0000df64  ti_sdo_ipc_MessageQ_A_unregisteredTransport__C                          
0000e364  ti_sdo_ipc_MessageQ_E_indexNotAvailable__C                              
0000e654  ti_sdo_ipc_MessageQ_E_maxReached__C                                     
0000e91c  ti_sdo_ipc_MessageQ_E_nameFailed__C                                     
0000ec64  ti_sdo_ipc_MessageQ_Instance_State_highList__O                          
0000edf4  ti_sdo_ipc_MessageQ_Instance_State_normalList__O                        
0000c5b9  ti_sdo_ipc_MessageQ_Instance_finalize__E                                
00009c71  ti_sdo_ipc_MessageQ_Instance_init__E                                    
0000eebc  ti_sdo_ipc_MessageQ_LM_free__C                                          
0000f27c  ti_sdo_ipc_MessageQ_LM_get__C                                           
0000f33c  ti_sdo_ipc_MessageQ_LM_putLocal__C                                      
8008102c  ti_sdo_ipc_MessageQ_Module_State_0_heaps__A                             
80081c74  ti_sdo_ipc_MessageQ_Module_State_0_transports__A                        
0000f4b4  ti_sdo_ipc_MessageQ_Module__diagsEnabled__C                             
0000f624  ti_sdo_ipc_MessageQ_Module__diagsIncluded__C                            
0000f6dc  ti_sdo_ipc_MessageQ_Module__diagsMask__C                                
00018892  ti_sdo_ipc_MessageQ_Module__id__C                                       
00018894  ti_sdo_ipc_MessageQ_Module__loggerDefined__C                            
0000f794  ti_sdo_ipc_MessageQ_Module__loggerFxn4__C                               
0000f84c  ti_sdo_ipc_MessageQ_Module__loggerObj__C                                
80081024  ti_sdo_ipc_MessageQ_Module__root__V                                     
80081894  ti_sdo_ipc_MessageQ_Module__state__V                                    
000108f1  ti_sdo_ipc_MessageQ_Module_startup__E                                   
00018114  ti_sdo_ipc_MessageQ_Object__DESC__C                                     
00018134  ti_sdo_ipc_MessageQ_Object__PARAMS__C                                   
0000f9a4  ti_sdo_ipc_MessageQ_Object__count__C                                    
00012245  ti_sdo_ipc_MessageQ_Object__get__S                                      
0000ffec  ti_sdo_ipc_MessageQ_Object__heap__C                                     
00010384  ti_sdo_ipc_MessageQ_Object__table__C                                    
00013005  ti_sdo_ipc_MessageQ_Params__init__S                                     
00011195  ti_sdo_ipc_MessageQ_create                                              
0001041c  ti_sdo_ipc_MessageQ_maxRuntimeEntries__C                                
000105cc  ti_sdo_ipc_MessageQ_numReservedEntries__C                               
00013e05  ti_sdo_ipc_MessageQ_registerTransport__E                                
0000b499  ti_sdo_ipc_MessageQ_registerTransport__F                                
00013f5d  ti_sdo_ipc_MessageQ_unregisterTransport__E                              
0000bd59  ti_sdo_ipc_MessageQ_unregisterTransport__F                              
000107ec  ti_sdo_ipc_family_vayu_InterruptIpu_Module__diagsEnabled__C             
000108ec  ti_sdo_ipc_family_vayu_InterruptIpu_Module__diagsIncluded__C            
0001096c  ti_sdo_ipc_family_vayu_InterruptIpu_Module__diagsMask__C                
00018896  ti_sdo_ipc_family_vayu_InterruptIpu_Module__id__C                       
80081958  ti_sdo_ipc_family_vayu_InterruptIpu_Module__state__V                    
00010ca4  ti_sdo_ipc_family_vayu_InterruptIpu_ducatiCtrlBaseAddr__C               
0000dd59  ti_sdo_ipc_family_vayu_InterruptIpu_intClear__E                         
000101c1  ti_sdo_ipc_family_vayu_InterruptIpu_intEnable__E                        
0000c9a1  ti_sdo_ipc_family_vayu_InterruptIpu_intRegister__E                      
0000cfd9  ti_sdo_ipc_family_vayu_InterruptIpu_intSend__E                          
00011a69  ti_sdo_ipc_family_vayu_InterruptIpu_intShmDucatiStub__I                 
00013bd9  ti_sdo_ipc_family_vayu_InterruptIpu_intShmMbxStub__I                    
00010e54  ti_sdo_ipc_family_vayu_InterruptIpu_ipu1_0ProcId__C                     
000115c4  ti_sdo_ipc_family_vayu_InterruptIpu_ipu1_1ProcId__C                     
000116dc  ti_sdo_ipc_family_vayu_InterruptIpu_ipu2_0ProcId__C                     
00011b4c  ti_sdo_ipc_family_vayu_InterruptIpu_ipu2_1ProcId__C                     
00017cd8  ti_sdo_ipc_family_vayu_InterruptIpu_mailboxBaseAddr__C                  
000175b4  ti_sdo_ipc_family_vayu_InterruptIpu_mailboxTable__C                     
00017df8  ti_sdo_ipc_family_vayu_InterruptIpu_procIdTable__C                      
8008104c  ti_sdo_ipc_family_vayu_NotifySetup_Module_State_0_numPlugged__A         
80081a04  ti_sdo_ipc_family_vayu_NotifySetup_Module__state__V                     
00007e51  ti_sdo_ipc_family_vayu_NotifySetup_Module_startup__E                    
0000fc39  ti_sdo_ipc_family_vayu_NotifySetup_dispatchIsr__I                       
000142cd  ti_sdo_ipc_family_vayu_NotifySetup_interruptTable__E                    
00014069  ti_sdo_ipc_family_vayu_NotifySetup_interruptTable__F                    
00017d18  ti_sdo_ipc_family_vayu_NotifySetup_mailboxBaseAddr__C                   
00017798  ti_sdo_ipc_family_vayu_NotifySetup_mailboxTable__C                      
00013e1d  ti_sdo_ipc_family_vayu_NotifySetup_plugHwi__E                           
0000ff51  ti_sdo_ipc_family_vayu_NotifySetup_plugHwi__F                           
00017e24  ti_sdo_ipc_family_vayu_NotifySetup_procIdTable__C                       
00011b9c  ti_sdo_ipc_interfaces_IMessageQTransport_Interface__BASE__C             
00011bec  ti_sdo_ipc_interfaces_INetworkTransport_Interface__BASE__C              
00012064  ti_sdo_ipc_interfaces_ITransport_Interface__BASE__C                     
8008106c  ti_sdo_ipc_transports_TransportNetworkDummy_Module__root__V             
000120ac  ti_sdo_utils_INameServerRemote_Interface__BASE__C                       
00014609  ti_sdo_utils_List_Instance_init__E                                      
80081074  ti_sdo_utils_List_Module__root__V                                       
00018154  ti_sdo_utils_List_Object__DESC__C                                       
000183c4  ti_sdo_utils_List_Object__PARAMS__C                                     
00013bf5  ti_sdo_utils_List_Object__destruct__S                                   
00012da5  ti_sdo_utils_List_construct                                             
00012685  ti_sdo_utils_List_create                                                
000142d9  ti_sdo_utils_List_destruct                                              
000120f4  ti_sdo_utils_MultiProc_A_invalidMultiProcId__C                          
00012404  ti_sdo_utils_MultiProc_A_invalidProcName__C                             
8008107c  ti_sdo_utils_MultiProc_Module_State_0_clusterProcList__A                
000126fc  ti_sdo_utils_MultiProc_Module__diagsEnabled__C                          
0001273c  ti_sdo_utils_MultiProc_Module__diagsIncluded__C                         
000127f4  ti_sdo_utils_MultiProc_Module__diagsMask__C                             
00018898  ti_sdo_utils_MultiProc_Module__id__C                                    
80081088  ti_sdo_utils_MultiProc_Module__state__V                                 
00014079  ti_sdo_utils_MultiProc_getClusterId__E                                  
00014089  ti_sdo_utils_MultiProc_getClusterId__F                                  
000184cc  ti_sdo_utils_MultiProc_nameList__A                                      
00012834  ti_sdo_utils_MultiProc_nameList__C                                      
0001889a  ti_sdo_utils_MultiProc_numProcessors__C                                 
0001889c  ti_sdo_utils_MultiProc_numProcsInCluster__C                             
000170f9  ti_sdo_utils_MultiProc_procAddrMode__C                                  
800810b8  ti_sdo_utils_NameServerRemoteNull_Module__root__V                       
00012874  ti_sdo_utils_NameServer_A_invArgument__C                                
00012bcc  ti_sdo_utils_NameServer_A_invalidLen__C                                 
00012c04  ti_sdo_utils_NameServer_E_entryExists__C                                
0001305c  ti_sdo_utils_NameServer_E_maxReached__C                                 
000132b4  ti_sdo_utils_NameServer_Instance_State_freeList__O                      
00013624  ti_sdo_utils_NameServer_Instance_State_nameList__O                      
80081098  ti_sdo_utils_NameServer_Module_State_0_nsRemoteHandle__A                
0001397c  ti_sdo_utils_NameServer_Module__diagsEnabled__C                         
00013c9c  ti_sdo_utils_NameServer_Module__diagsIncluded__C                        
00013cbc  ti_sdo_utils_NameServer_Module__diagsMask__C                            
0001889e  ti_sdo_utils_NameServer_Module__id__C                                   
80081090  ti_sdo_utils_NameServer_Module__root__V                                 
00013c11  ti_sdo_utils_NameServer_Module__startupDone__F                          
00014557  ti_sdo_utils_NameServer_Module__startupDone__S                          
800810ac  ti_sdo_utils_NameServer_Module__state__V                                
0000f851  ti_sdo_utils_NameServer_Module_startup__E                               
00013e34  ti_sdo_utils_NameServer_Object__count__C                                
00013505  ti_sdo_utils_NameServer_Object__first__S                                
00012285  ti_sdo_utils_NameServer_Object__get__S                                  
0001328d  ti_sdo_utils_NameServer_Object__next__S                                 
00013fac  ti_sdo_utils_NameServer_Object__table__C                                
80081b78  ti_sdo_utils_NameServer_Object__table__V                                
0000b789  ti_sdo_utils_NameServer_registerRemoteDriver__E                         
0000c031  ti_sdo_utils_NameServer_unregisterRemoteDriver__E                       
80081c9c  ti_sysbios_BIOS_Module__state__V                                        
000142e5  ti_sysbios_BIOS_RtsGateProxy_enter__E                                   
00014099  ti_sysbios_BIOS_RtsGateProxy_leave__E                                   
00012dd5  ti_sysbios_BIOS_atExitFunc__I                                           
00012e05  ti_sysbios_BIOS_errorRaiseHook__I                                       
00013eaf  ti_sysbios_BIOS_exitFunc__I                                             
000142f1  ti_sysbios_BIOS_getThreadType__E                                        
00014004  ti_sysbios_BIOS_installedErrorHook__C                                   
0000894d  ti_sysbios_BIOS_nullFunc__I                                             
00013529  ti_sysbios_BIOS_registerRTSLock__I                                      
0001395d  ti_sysbios_BIOS_removeRTSLock__I                                        
00012e35  ti_sysbios_BIOS_rtsLock__I                                              
0000ef81  ti_sysbios_BIOS_rtsUnlock__I                                            
000140a9  ti_sysbios_BIOS_setThreadType__E                                        
000188a0  ti_sysbios_BIOS_smpEnabled__C                                           
00013031  ti_sysbios_BIOS_startFunc__I                                            
000140b9  ti_sysbios_BIOS_start__E                                                
000188a2  ti_sysbios_BIOS_swiEnabled__C                                           
000188a4  ti_sysbios_BIOS_taskEnabled__C                                          
40000400  ti_sysbios_family_arm_ducati_CTM_ctm                                    
0001401c  ti_sysbios_family_arm_ducati_Core_E_mismatchedIds__C                    
000188a6  ti_sysbios_family_arm_ducati_Core_Module__id__C                         
800810c0  ti_sysbios_family_arm_ducati_Core_Module__state__V                      
000126c1  ti_sysbios_family_arm_ducati_Core_Module_startup__E                     
00000040  ti_sysbios_family_arm_ducati_Core_core1WaitFlag                         
00014301  ti_sysbios_family_arm_ducati_Core_getId__E                              
00014064  ti_sysbios_family_arm_ducati_Core_id__C                                 
000142fc  ti_sysbios_family_arm_ducati_Core_ipuId__C                              
00000009  ti_sysbios_family_arm_ducati_Core_reset                                 
00014311  ti_sysbios_family_arm_ducati_Core_startCore1__I                         
0001430c  ti_sysbios_family_arm_ducati_GateDualCore_A_nestedEnter__C              
0001431c  ti_sysbios_family_arm_ducati_GateDualCore_E_gateInUse__C                
0001432c  ti_sysbios_family_arm_ducati_GateDualCore_E_invalidIndex__C             
00013763  ti_sysbios_family_arm_ducati_GateDualCore_Handle__label__S              
00010421  ti_sysbios_family_arm_ducati_GateDualCore_Instance_init__E              
00017f70  ti_sysbios_family_arm_ducati_GateDualCore_Module__FXNS__C               
0001433c  ti_sysbios_family_arm_ducati_GateDualCore_Module__diagsEnabled__C       
0001434c  ti_sysbios_family_arm_ducati_GateDualCore_Module__diagsIncluded__C      
000143d4  ti_sysbios_family_arm_ducati_GateDualCore_Module__diagsMask__C          
000188a8  ti_sysbios_family_arm_ducati_GateDualCore_Module__id__C                 
800810d4  ti_sysbios_family_arm_ducati_GateDualCore_Module__root__V               
800810fc  ti_sysbios_family_arm_ducati_GateDualCore_Module__state__V              
00010971  ti_sysbios_family_arm_ducati_GateDualCore_Module_startup__E             
00018174  ti_sysbios_family_arm_ducati_GateDualCore_Object__DESC__C               
00018374  ti_sysbios_family_arm_ducati_GateDualCore_Object__PARAMS__C             
00014414  ti_sysbios_family_arm_ducati_GateDualCore_Object__count__C              
000111f9  ti_sysbios_family_arm_ducati_GateDualCore_Object__create__S             
0001354d  ti_sysbios_family_arm_ducati_GateDualCore_Object__delete__S             
00012a11  ti_sysbios_family_arm_ducati_GateDualCore_Object__get__S                
00014424  ti_sysbios_family_arm_ducati_GateDualCore_Object__table__C              
800810dc  ti_sysbios_family_arm_ducati_GateDualCore_Object__table__V              
0000e9f9  ti_sysbios_family_arm_ducati_GateDualCore_enter__E                      
000007f0  ti_sysbios_family_arm_ducati_GateDualCore_gateArray                     
000188aa  ti_sysbios_family_arm_ducati_GateDualCore_initGates__C                  
00014321  ti_sysbios_family_arm_ducati_GateDualCore_leave__E                      
00014434  ti_sysbios_family_arm_ducati_GateDualCore_numGates__C                   
00014661  ti_sysbios_family_arm_ducati_GateDualCore_query__E                      
0001451c  ti_sysbios_family_arm_ducati_Timer_E_cannotSupport__C                   
000188ac  ti_sysbios_family_arm_ducati_Timer_Module__id__C                        
80081100  ti_sysbios_family_arm_ducati_Timer_Module__root__V                      
00013c2d  ti_sysbios_family_arm_ducati_Timer_Module__startupDone__F               
0001455f  ti_sysbios_family_arm_ducati_Timer_Module__startupDone__S               
80081108  ti_sysbios_family_arm_ducati_Timer_Module__state__V                     
00010e59  ti_sysbios_family_arm_ducati_Timer_Module_startup__E                    
000113e9  ti_sysbios_family_arm_ducati_Timer_initDevice__I                        
00010541  ti_sysbios_family_arm_ducati_Timer_setPeriod__E                         
00014644  ti_sysbios_family_arm_ducati_Timer_startupNeeded__C                     
0000f571  ti_sysbios_family_arm_ducati_Timer_startup__E                           
000116e1  ti_sysbios_family_arm_ducati_TimestampProvider_Module_startup__E        
00012021  ti_sysbios_family_arm_ducati_TimestampProvider_get32__E                 
00012a49  ti_sysbios_family_arm_ducati_TimestampProvider_get64__E                 
000132b9  ti_sysbios_family_arm_ducati_TimestampProvider_getFreq__E               
00017c05  ti_sysbios_family_arm_ducati_TimestampProvider_inpsel__C                
00013c49  ti_sysbios_family_arm_ducati_Wugen_Module__startupDone__F               
00014567  ti_sysbios_family_arm_ducati_Wugen_Module__startupDone__S               
00014611  ti_sysbios_family_arm_ducati_Wugen_Module_startup__E                    
0001464c  ti_sysbios_family_arm_m3_Hwi_E_NMI__C                                   
00014654  ti_sysbios_family_arm_m3_Hwi_E_alreadyDefined__C                        
0001465c  ti_sysbios_family_arm_m3_Hwi_E_busFault__C                              
00014664  ti_sysbios_family_arm_m3_Hwi_E_debugMon__C                              
0001466c  ti_sysbios_family_arm_m3_Hwi_E_hardFault__C                             
00014674  ti_sysbios_family_arm_m3_Hwi_E_memFault__C                              
0001467c  ti_sysbios_family_arm_m3_Hwi_E_noIsr__C                                 
00014684  ti_sysbios_family_arm_m3_Hwi_E_reserved__C                              
0001468c  ti_sysbios_family_arm_m3_Hwi_E_svCall__C                                
00014694  ti_sysbios_family_arm_m3_Hwi_E_usageFault__C                            
00013061  ti_sysbios_family_arm_m3_Hwi_Instance_finalize__E                       
000102f1  ti_sysbios_family_arm_m3_Hwi_Instance_init__E                           
0001469c  ti_sysbios_family_arm_m3_Hwi_LD_end__C                                  
00018550  ti_sysbios_family_arm_m3_Hwi_LM_begin__C                                
8008111c  ti_sysbios_family_arm_m3_Hwi_Module_State_0_excActive__A                
80081120  ti_sysbios_family_arm_m3_Hwi_Module_State_0_excContext__A               
80081124  ti_sysbios_family_arm_m3_Hwi_Module_State_0_excStack__A                 
00018554  ti_sysbios_family_arm_m3_Hwi_Module__diagsEnabled__C                    
00018558  ti_sysbios_family_arm_m3_Hwi_Module__diagsIncluded__C                   
0001855c  ti_sysbios_family_arm_m3_Hwi_Module__diagsMask__C                       
000188ae  ti_sysbios_family_arm_m3_Hwi_Module__id__C                              
000188b0  ti_sysbios_family_arm_m3_Hwi_Module__loggerDefined__C                   
00018560  ti_sysbios_family_arm_m3_Hwi_Module__loggerFxn1__C                      
00018564  ti_sysbios_family_arm_m3_Hwi_Module__loggerFxn8__C                      
00018568  ti_sysbios_family_arm_m3_Hwi_Module__loggerObj__C                       
80081114  ti_sysbios_family_arm_m3_Hwi_Module__root__V                            
00013c65  ti_sysbios_family_arm_m3_Hwi_Module__startupDone__F                     
0001456f  ti_sysbios_family_arm_m3_Hwi_Module__startupDone__S                     
80081bb4  ti_sysbios_family_arm_m3_Hwi_Module__state__V                           
0000edf9  ti_sysbios_family_arm_m3_Hwi_Module_startup__E                          
0001856c  ti_sysbios_family_arm_m3_Hwi_NUM_INTERRUPTS__C                          
00018194  ti_sysbios_family_arm_m3_Hwi_Object__DESC__C                            
00017dc8  ti_sysbios_family_arm_m3_Hwi_Object__PARAMS__C                          
00018570  ti_sysbios_family_arm_m3_Hwi_Object__count__C                           
000122c5  ti_sysbios_family_arm_m3_Hwi_Object__get__S                             
00018574  ti_sysbios_family_arm_m3_Hwi_Object__table__C                           
80081be8  ti_sysbios_family_arm_m3_Hwi_Object__table__V                           
0001308d  ti_sysbios_family_arm_m3_Hwi_Params__init__S                            
00018578  ti_sysbios_family_arm_m3_Hwi_ccr__C                                     
00013981  ti_sysbios_family_arm_m3_Hwi_clearInterrupt__E                          
00010ec1  ti_sysbios_family_arm_m3_Hwi_create                                     
00014331  ti_sysbios_family_arm_m3_Hwi_disableFxn__E                              
00011d61  ti_sysbios_family_arm_m3_Hwi_disableInterrupt__E                        
0000cd69  ti_sysbios_family_arm_m3_Hwi_dispatchC__I                               
80080800  ti_sysbios_family_arm_m3_Hwi_dispatchTable                              
0000eac9  ti_sysbios_family_arm_m3_Hwi_dispatch__I                                
00014579  ti_sysbios_family_arm_m3_Hwi_doSwiRestore__I                            
00013571  ti_sysbios_family_arm_m3_Hwi_doTaskRestore__I                           
00011da9  ti_sysbios_family_arm_m3_Hwi_enableInterrupt__E                         
0000b901  ti_sysbios_family_arm_m3_Hwi_excBusFault__I                             
0000f281  ti_sysbios_family_arm_m3_Hwi_excDebugMon__I                             
000139a1  ti_sysbios_family_arm_m3_Hwi_excHandlerAsm__I                           
0001857c  ti_sysbios_family_arm_m3_Hwi_excHandlerFunc__C                          
000139c1  ti_sysbios_family_arm_m3_Hwi_excHandler__I                              
0000f341  ti_sysbios_family_arm_m3_Hwi_excHardFault__I                            
0000c859  ti_sysbios_family_arm_m3_Hwi_excMemFault__I                             
00012bd1  ti_sysbios_family_arm_m3_Hwi_excNmi__I                                  
00012a81  ti_sysbios_family_arm_m3_Hwi_excNoIsr__I                                
00011df1  ti_sysbios_family_arm_m3_Hwi_excReserved__I                             
00012701  ti_sysbios_family_arm_m3_Hwi_excSvCall__I                               
0000c199  ti_sysbios_family_arm_m3_Hwi_excUsageFault__I                           
00012069  ti_sysbios_family_arm_m3_Hwi_getStackInfo__E                            
000105d1  ti_sysbios_family_arm_m3_Hwi_initNVIC__E                                
00011e39  ti_sysbios_family_arm_m3_Hwi_initStacks__E                              
00018580  ti_sysbios_family_arm_m3_Hwi_nullIsrFunc__C                             
e000e000  ti_sysbios_family_arm_m3_Hwi_nvic                                       
00013da1  ti_sysbios_family_arm_m3_Hwi_pendSV__I                                  
00010ae1  ti_sysbios_family_arm_m3_Hwi_postInit__I                                
00018584  ti_sysbios_family_arm_m3_Hwi_priGroup__C                                
00000400  ti_sysbios_family_arm_m3_Hwi_resetVectors                               
00014619  ti_sysbios_family_arm_m3_Hwi_restoreFxn__E                              
00013db9  ti_sysbios_family_arm_m3_Hwi_return                                     
00014581  ti_sysbios_family_arm_m3_Hwi_startup__E                                 
00013f71  ti_sysbios_family_arm_m3_Hwi_switchFromBootStack__E                     
000057dd  ti_sysbios_family_arm_m3_TaskSupport_Module__startupDone__S             
00011ab5  ti_sysbios_family_arm_m3_TaskSupport_buildTaskStack                     
00014341  ti_sysbios_family_arm_m3_TaskSupport_checkStack__E                      
00014351  ti_sysbios_family_arm_m3_TaskSupport_getStackAlignment__E               
000140c9  ti_sysbios_family_arm_m3_TaskSupport_glue                               
00018588  ti_sysbios_family_arm_m3_TaskSupport_stackAlignment__C                  
00012741  ti_sysbios_family_arm_m3_TaskSupport_start__E                           
000140d9  ti_sysbios_family_arm_m3_TaskSupport_swap__E                            
0001858c  ti_sysbios_family_shared_vayu_IntXbar_A_badBenelliIpuId__C              
00018590  ti_sysbios_family_shared_vayu_IntXbar_A_badBenelliXbarInstanceNum__C    
00018594  ti_sysbios_family_shared_vayu_IntXbar_A_badIntSourceIdx__C              
80081820  ti_sysbios_family_shared_vayu_IntXbar_Module_State_0_intXbar__A         
00018598  ti_sysbios_family_shared_vayu_IntXbar_Module__diagsEnabled__C           
0001859c  ti_sysbios_family_shared_vayu_IntXbar_Module__diagsIncluded__C          
000185a0  ti_sysbios_family_shared_vayu_IntXbar_Module__diagsMask__C              
000188b2  ti_sysbios_family_shared_vayu_IntXbar_Module__id__C                     
00005d95  ti_sysbios_family_shared_vayu_IntXbar_Module__startupDone__S            
80081128  ti_sysbios_family_shared_vayu_IntXbar_Module__state__V                  
0000c709  ti_sysbios_family_shared_vayu_IntXbar_connect__E                        
000107f1  ti_sysbios_family_shared_vayu_IntXbar_initIntXbar__I                    
0000f629  ti_sysbios_family_shared_vayu_IntXbar_initXbarRegs__I                   
000185a4  ti_sysbios_family_shared_vayu_IntXbar_mmrBaseAddr__C                    
00013c81  ti_sysbios_family_shared_vayu_TimerSupport_Module__startupDone__F       
00014589  ti_sysbios_family_shared_vayu_TimerSupport_Module__startupDone__S       
00013fd9  ti_sysbios_family_shared_vayu_TimerSupport_Module_startup__E            
00011e81  ti_sysbios_family_shared_vayu_TimerSupport_enable__E                    
00013b21  ti_sysbios_family_xxx_Hwi_switchAndRunFunc                              
00013785  ti_sysbios_gates_GateHwi_Handle__label__S                               
00014699  ti_sysbios_gates_GateHwi_Instance_init__E                               
00017f94  ti_sysbios_gates_GateHwi_Module__FXNS__C                                
8008112c  ti_sysbios_gates_GateHwi_Module__root__V                                
000181b4  ti_sysbios_gates_GateHwi_Object__DESC__C                                
000183dc  ti_sysbios_gates_GateHwi_Object__PARAMS__C                              
00012305  ti_sysbios_gates_GateHwi_Object__create__S                              
00013595  ti_sysbios_gates_GateHwi_Object__delete__S                              
80081134  ti_sysbios_gates_GateHwi_Object__table__V                               
000130b9  ti_sysbios_gates_GateHwi_Params__init__S                                
0001277d  ti_sysbios_gates_GateHwi_create                                         
0001435d  ti_sysbios_gates_GateHwi_delete                                         
00014369  ti_sysbios_gates_GateHwi_enter__E                                       
00014621  ti_sysbios_gates_GateHwi_leave__E                                       
00014669  ti_sysbios_gates_GateHwi_query__E                                       
000185a8  ti_sysbios_gates_GateMutexPri_A_badContext__C                           
000185ac  ti_sysbios_gates_GateMutexPri_A_enterTaskDisabled__C                    
000137a7  ti_sysbios_gates_GateMutexPri_Handle__label__S                          
000185b0  ti_sysbios_gates_GateMutexPri_Instance_State_pendQ__O                   
000140e9  ti_sysbios_gates_GateMutexPri_Instance_finalize__E                      
00013ca1  ti_sysbios_gates_GateMutexPri_Instance_init__E                          
00017fb8  ti_sysbios_gates_GateMutexPri_Module__FXNS__C                           
000185b4  ti_sysbios_gates_GateMutexPri_Module__diagsEnabled__C                   
000185b8  ti_sysbios_gates_GateMutexPri_Module__diagsIncluded__C                  
000185bc  ti_sysbios_gates_GateMutexPri_Module__diagsMask__C                      
000188b4  ti_sysbios_gates_GateMutexPri_Module__id__C                             
80081140  ti_sysbios_gates_GateMutexPri_Module__root__V                           
000181d4  ti_sysbios_gates_GateMutexPri_Object__DESC__C                           
000183f4  ti_sysbios_gates_GateMutexPri_Object__PARAMS__C                         
00012345  ti_sysbios_gates_GateMutexPri_Object__create__S                         
000132e1  ti_sysbios_gates_GateMutexPri_Object__delete__S                         
000139e1  ti_sysbios_gates_GateMutexPri_Object__destruct__S                       
00012e65  ti_sysbios_gates_GateMutexPri_construct                                 
00014375  ti_sysbios_gates_GateMutexPri_destruct                                  
0000ae39  ti_sysbios_gates_GateMutexPri_enter__E                                  
00010c39  ti_sysbios_gates_GateMutexPri_leave__E                                  
00014671  ti_sysbios_gates_GateMutexPri_query__E                                  
000185c0  ti_sysbios_gates_GateMutex_A_badContext__C                              
000137c9  ti_sysbios_gates_GateMutex_Handle__label__S                             
000185c4  ti_sysbios_gates_GateMutex_Instance_State_sem__O                        
000140f9  ti_sysbios_gates_GateMutex_Instance_finalize__E                         
00013cc1  ti_sysbios_gates_GateMutex_Instance_init__E                             
00017fdc  ti_sysbios_gates_GateMutex_Module__FXNS__C                              
000185c8  ti_sysbios_gates_GateMutex_Module__diagsEnabled__C                      
000185cc  ti_sysbios_gates_GateMutex_Module__diagsIncluded__C                     
000185d0  ti_sysbios_gates_GateMutex_Module__diagsMask__C                         
000188b6  ti_sysbios_gates_GateMutex_Module__id__C                                
80081138  ti_sysbios_gates_GateMutex_Module__root__V                              
000181f4  ti_sysbios_gates_GateMutex_Object__DESC__C                              
0001840c  ti_sysbios_gates_GateMutex_Object__PARAMS__C                            
00012385  ti_sysbios_gates_GateMutex_Object__create__S                            
00013309  ti_sysbios_gates_GateMutex_Object__delete__S                            
800819b0  ti_sysbios_gates_GateMutex_Object__table__V                             
0000f6e1  ti_sysbios_gates_GateMutex_enter__E                                     
00013e39  ti_sysbios_gates_GateMutex_leave__E                                     
00014679  ti_sysbios_gates_GateMutex_query__E                                     
000185d4  ti_sysbios_gates_GateSwi_A_badContext__C                                
000137eb  ti_sysbios_gates_GateSwi_Handle__label__S                               
000146a1  ti_sysbios_gates_GateSwi_Instance_init__E                               
00018000  ti_sysbios_gates_GateSwi_Module__FXNS__C                                
000185d8  ti_sysbios_gates_GateSwi_Module__diagsEnabled__C                        
000185dc  ti_sysbios_gates_GateSwi_Module__diagsIncluded__C                       
000185e0  ti_sysbios_gates_GateSwi_Module__diagsMask__C                           
000188b8  ti_sysbios_gates_GateSwi_Module__id__C                                  
80081148  ti_sysbios_gates_GateSwi_Module__root__V                                
00018214  ti_sysbios_gates_GateSwi_Object__DESC__C                                
00018424  ti_sysbios_gates_GateSwi_Object__PARAMS__C                              
000123c5  ti_sysbios_gates_GateSwi_Object__create__S                              
000135b9  ti_sysbios_gates_GateSwi_Object__delete__S                              
80081150  ti_sysbios_gates_GateSwi_Object__table__V                               
00010259  ti_sysbios_gates_GateSwi_enter__E                                       
000127b9  ti_sysbios_gates_GateSwi_leave__E                                       
00014381  ti_sysbios_gates_GateSwi_query__E                                       
00013a01  ti_sysbios_hal_Cache_CacheProxy_inv__E                                  
00014591  ti_sysbios_hal_Cache_CacheProxy_wbAll__E                                
00013a01  ti_sysbios_hal_Cache_inv__E                                             
00014591  ti_sysbios_hal_Cache_wbAll__E                                           
00014599  ti_sysbios_hal_Core_CoreProxy_getId__E                                  
000185e4  ti_sysbios_hal_Hwi_E_stackOverflow__C                                   
000145a1  ti_sysbios_hal_Hwi_HwiProxy_Module__startupDone__S                      
0001438d  ti_sysbios_hal_Hwi_HwiProxy_clearInterrupt__E                           
00014399  ti_sysbios_hal_Hwi_HwiProxy_disableInterrupt__E                         
000143a5  ti_sysbios_hal_Hwi_HwiProxy_enableInterrupt__E                          
00013f85  ti_sysbios_hal_Hwi_HwiProxy_getStackInfo__E                             
000145a9  ti_sysbios_hal_Hwi_HwiProxy_startup__E                                  
000145b1  ti_sysbios_hal_Hwi_HwiProxy_switchFromBootStack__E                      
000188ba  ti_sysbios_hal_Hwi_Module__id__C                                        
80081154  ti_sysbios_hal_Hwi_Module__root__V                                      
00013ff1  ti_sysbios_hal_Hwi_Module_startup__E                                    
8008115c  ti_sysbios_hal_Hwi_Object__table__V                                     
00012c09  ti_sysbios_hal_Hwi_checkStack                                           
0001438d  ti_sysbios_hal_Hwi_clearInterrupt__E                                    
00014399  ti_sysbios_hal_Hwi_disableInterrupt__E                                  
000143a5  ti_sysbios_hal_Hwi_enableInterrupt__E                                   
00013f85  ti_sysbios_hal_Hwi_getStackInfo__E                                      
00012cd9  ti_sysbios_hal_Hwi_initStack                                            
000145a9  ti_sysbios_hal_Hwi_startup__E                                           
000145b1  ti_sysbios_hal_Hwi_switchFromBootStack__E                               
8008116c  ti_sysbios_hal_Timer_Module__root__V                                    
00014009  ti_sysbios_hal_Timer_Module_startup__E                                  
000145b9  ti_sysbios_hal_Timer_TimerProxy_Module__startupDone__S                  
00006e0d  ti_sysbios_hal_ammu_AMMU_Module__startupDone__S                         
000188bc  ti_sysbios_hal_ammu_AMMU_configureAmmu__C                               
40000800  ti_sysbios_hal_ammu_AMMU_mmu                                            
000170fc  ti_sysbios_hal_ammu_AMMU_mmuInitConfig__C                               
000185e8  ti_sysbios_hal_ammu_AMMU_numLargePages__C                               
000185ec  ti_sysbios_hal_ammu_AMMU_numLinePages__C                                
000185f0  ti_sysbios_hal_ammu_AMMU_numMediumPages__C                              
000185f4  ti_sysbios_hal_ammu_AMMU_numSmallPages__C                               
000143b1  ti_sysbios_hal_unicache_Cache_Module_GateProxy_enter__E                 
00014109  ti_sysbios_hal_unicache_Cache_Module_GateProxy_leave__E                 
000185f8  ti_sysbios_hal_unicache_Cache_Module__gateObj__C                        
40000000  ti_sysbios_hal_unicache_Cache_cache                                     
000188be  ti_sysbios_hal_unicache_Cache_configureCache__C                         
000188c0  ti_sysbios_hal_unicache_Cache_enableCache__C                            
0000d249  ti_sysbios_hal_unicache_Cache_inv__E                                    
000185fc  ti_sysbios_hal_unicache_Cache_l1ocpConfig__C                            
00018600  ti_sysbios_hal_unicache_Cache_l1secConfig__C                            
000188c2  ti_sysbios_hal_unicache_Cache_l2CacheSupported__C                       
00018604  ti_sysbios_hal_unicache_Cache_l2ocpConfig__C                            
00018608  ti_sysbios_hal_unicache_Cache_l2secConfig__C                            
0001860c  ti_sysbios_hal_unicache_Cache_maxLineModeBufSize__C                     
00012409  ti_sysbios_hal_unicache_Cache_seizeRegs__I                              
0000a8b1  ti_sysbios_hal_unicache_Cache_startup__I                                
000120b1  ti_sysbios_hal_unicache_Cache_wbAll__E                                  
00018610  ti_sysbios_heaps_HeapBuf_A_bufAlign__C                                  
00018614  ti_sysbios_heaps_HeapBuf_A_invalidAlign__C                              
00018618  ti_sysbios_heaps_HeapBuf_A_invalidBufSize__C                            
0001861c  ti_sysbios_heaps_HeapBuf_A_invalidFree__C                               
00018620  ti_sysbios_heaps_HeapBuf_A_invalidRequestedAlign__C                     
00018624  ti_sysbios_heaps_HeapBuf_A_noBlocksToFree__C                            
00018628  ti_sysbios_heaps_HeapBuf_A_nullBuf__C                                   
0001862c  ti_sysbios_heaps_HeapBuf_A_zeroBlockSize__C                             
00018630  ti_sysbios_heaps_HeapBuf_A_zeroBlocks__C                                
00018634  ti_sysbios_heaps_HeapBuf_A_zeroBufSize__C                               
00018638  ti_sysbios_heaps_HeapBuf_E_size__C                                      
0001380d  ti_sysbios_heaps_HeapBuf_Handle__label__S                               
80040000  ti_sysbios_heaps_HeapBuf_Instance_State_0_buf__A                        
80000000  ti_sysbios_heaps_HeapBuf_Instance_State_1_buf__A                        
0001863c  ti_sysbios_heaps_HeapBuf_Instance_State_freeList__O                     
00014119  ti_sysbios_heaps_HeapBuf_Instance_finalize__E                           
00006a79  ti_sysbios_heaps_HeapBuf_Instance_init__E                               
00017ef8  ti_sysbios_heaps_HeapBuf_Module__FXNS__C                                
00018640  ti_sysbios_heaps_HeapBuf_Module__diagsEnabled__C                        
00018644  ti_sysbios_heaps_HeapBuf_Module__diagsIncluded__C                       
00018648  ti_sysbios_heaps_HeapBuf_Module__diagsMask__C                           
000188c4  ti_sysbios_heaps_HeapBuf_Module__id__C                                  
80081174  ti_sysbios_heaps_HeapBuf_Module__root__V                                
8008117c  ti_sysbios_heaps_HeapBuf_Module__state__V                               
0000e749  ti_sysbios_heaps_HeapBuf_Module_startup__E                              
00018234  ti_sysbios_heaps_HeapBuf_Object__DESC__C                                
00017e50  ti_sysbios_heaps_HeapBuf_Object__PARAMS__C                              
0001864c  ti_sysbios_heaps_HeapBuf_Object__count__C                               
00010f29  ti_sysbios_heaps_HeapBuf_Object__create__S                              
00013331  ti_sysbios_heaps_HeapBuf_Object__delete__S                              
00012449  ti_sysbios_heaps_HeapBuf_Object__get__S                                 
00018650  ti_sysbios_heaps_HeapBuf_Object__table__C                               
80081a54  ti_sysbios_heaps_HeapBuf_Object__table__V                               
0000c301  ti_sysbios_heaps_HeapBuf_alloc__E                                       
0000a2c9  ti_sysbios_heaps_HeapBuf_free__E                                        
00012f51  ti_sysbios_heaps_HeapBuf_getStats__E                                    
00014681  ti_sysbios_heaps_HeapBuf_isBlocking__E                                  
00018654  ti_sysbios_heaps_HeapBuf_numConstructedHeaps__C                         
00011b01  ti_sysbios_heaps_HeapBuf_postInit__I                                    
000188c6  ti_sysbios_heaps_HeapBuf_trackMaxAllocs__C                              
00018658  ti_sysbios_heaps_HeapMem_A_align__C                                     
0001865c  ti_sysbios_heaps_HeapMem_A_heapSize__C                                  
00018660  ti_sysbios_heaps_HeapMem_A_invalidFree__C                               
00018664  ti_sysbios_heaps_HeapMem_A_zeroBlock__C                                 
00018668  ti_sysbios_heaps_HeapMem_E_memory__C                                    
0001382f  ti_sysbios_heaps_HeapMem_Handle__label__S                               
80060000  ti_sysbios_heaps_HeapMem_Instance_State_0_buf__A                        
0000cc29  ti_sysbios_heaps_HeapMem_Instance_init__E                               
000143bd  ti_sysbios_heaps_HeapMem_Module_GateProxy_enter__E                      
00014129  ti_sysbios_heaps_HeapMem_Module_GateProxy_leave__E                      
000143c9  ti_sysbios_heaps_HeapMem_Module_GateProxy_query__E                      
00017f20  ti_sysbios_heaps_HeapMem_Module__FXNS__C                                
0001866c  ti_sysbios_heaps_HeapMem_Module__diagsEnabled__C                        
00018670  ti_sysbios_heaps_HeapMem_Module__diagsIncluded__C                       
00018674  ti_sysbios_heaps_HeapMem_Module__diagsMask__C                           
00018678  ti_sysbios_heaps_HeapMem_Module__gateObj__C                             
000188c8  ti_sysbios_heaps_HeapMem_Module__id__C                                  
80081180  ti_sysbios_heaps_HeapMem_Module__root__V                                
00018254  ti_sysbios_heaps_HeapMem_Object__DESC__C                                
00018024  ti_sysbios_heaps_HeapMem_Object__PARAMS__C                              
0001867c  ti_sysbios_heaps_HeapMem_Object__count__C                               
00012489  ti_sysbios_heaps_HeapMem_Object__create__S                              
000135dd  ti_sysbios_heaps_HeapMem_Object__delete__S                              
000124c9  ti_sysbios_heaps_HeapMem_Object__get__S                                 
00018680  ti_sysbios_heaps_HeapMem_Object__table__C                               
80081188  ti_sysbios_heaps_HeapMem_Object__table__V                               
000097f1  ti_sysbios_heaps_HeapMem_alloc__E                                       
00009351  ti_sysbios_heaps_HeapMem_free__E                                        
00011b51  ti_sysbios_heaps_HeapMem_getStats__E                                    
000127f9  ti_sysbios_heaps_HeapMem_init__I                                        
00014629  ti_sysbios_heaps_HeapMem_isBlocking__E                                  
00018684  ti_sysbios_heaps_HeapMem_reqAlign__C                                    
00018688  ti_sysbios_knl_Clock_LM_begin__C                                        
0001868c  ti_sysbios_knl_Clock_LM_tick__C                                         
00018690  ti_sysbios_knl_Clock_LW_delayed__C                                      
00018694  ti_sysbios_knl_Clock_Module_State_clockQ__O                             
00018698  ti_sysbios_knl_Clock_Module__diagsEnabled__C                            
0001869c  ti_sysbios_knl_Clock_Module__diagsIncluded__C                           
000186a0  ti_sysbios_knl_Clock_Module__diagsMask__C                               
000188ca  ti_sysbios_knl_Clock_Module__id__C                                      
000188cc  ti_sysbios_knl_Clock_Module__loggerDefined__C                           
000186a4  ti_sysbios_knl_Clock_Module__loggerFxn1__C                              
000186a8  ti_sysbios_knl_Clock_Module__loggerFxn2__C                              
000186ac  ti_sysbios_knl_Clock_Module__loggerObj__C                               
800811a0  ti_sysbios_knl_Clock_Module__root__V                                    
80081c48  ti_sysbios_knl_Clock_Module__state__V                                   
00014021  ti_sysbios_knl_Clock_Module_startup__E                                  
000145c1  ti_sysbios_knl_Clock_TimerProxy_Module__startupDone__S                  
00012ab9  ti_sysbios_knl_Clock_doTick__I                                          
000143d9  ti_sysbios_knl_Clock_getTicks__E                                        
00011449  ti_sysbios_knl_Clock_logTick__E                                         
000186b0  ti_sysbios_knl_Clock_tickPeriod__C                                      
0000d111  ti_sysbios_knl_Clock_workFunc__E                                        
00018514  ti_sysbios_knl_Idle_funcList__A                                         
00018528  ti_sysbios_knl_Idle_funcList__C                                         
00014259  ti_sysbios_knl_Idle_loop__E                                             
00013a21  ti_sysbios_knl_Idle_run__E                                              
00014631  ti_sysbios_knl_Queue_Instance_init__E                                   
800811a8  ti_sysbios_knl_Queue_Module__root__V                                    
00018274  ti_sysbios_knl_Queue_Object__DESC__C                                    
0001843c  ti_sysbios_knl_Queue_Object__PARAMS__C                                  
000186b4  ti_sysbios_knl_Queue_Object__count__C                                   
00013cdd  ti_sysbios_knl_Queue_Object__destruct__S                                
00012af1  ti_sysbios_knl_Queue_Object__get__S                                     
000186b8  ti_sysbios_knl_Queue_Object__table__C                                   
00012e95  ti_sysbios_knl_Queue_construct                                          
000143e5  ti_sysbios_knl_Queue_destruct                                           
00014269  ti_sysbios_knl_Queue_empty__E                                           
000186bc  ti_sysbios_knl_Semaphore_A_badContext__C                                
000186c0  ti_sysbios_knl_Semaphore_A_noEvents__C                                  
000186c4  ti_sysbios_knl_Semaphore_A_overflow__C                                  
000186c8  ti_sysbios_knl_Semaphore_A_pendTaskDisabled__C                          
000186cc  ti_sysbios_knl_Semaphore_Instance_State_pendQ__O                        
00014139  ti_sysbios_knl_Semaphore_Instance_finalize__E                           
0000fff1  ti_sysbios_knl_Semaphore_Instance_init__E                               
000186d0  ti_sysbios_knl_Semaphore_LM_pend__C                                     
000186d4  ti_sysbios_knl_Semaphore_LM_post__C                                     
000186d8  ti_sysbios_knl_Semaphore_Module__diagsEnabled__C                        
000186dc  ti_sysbios_knl_Semaphore_Module__diagsIncluded__C                       
000186e0  ti_sysbios_knl_Semaphore_Module__diagsMask__C                           
000188ce  ti_sysbios_knl_Semaphore_Module__id__C                                  
000188d0  ti_sysbios_knl_Semaphore_Module__loggerDefined__C                       
000186e4  ti_sysbios_knl_Semaphore_Module__loggerFxn2__C                          
000186e8  ti_sysbios_knl_Semaphore_Module__loggerFxn4__C                          
000186ec  ti_sysbios_knl_Semaphore_Module__loggerObj__C                           
800811b0  ti_sysbios_knl_Semaphore_Module__root__V                                
00018294  ti_sysbios_knl_Semaphore_Object__DESC__C                                
00018048  ti_sysbios_knl_Semaphore_Object__PARAMS__C                              
00013359  ti_sysbios_knl_Semaphore_Object__delete__S                              
00013a41  ti_sysbios_knl_Semaphore_Object__destruct__S                            
800811b8  ti_sysbios_knl_Semaphore_Object__table__V                               
000130e5  ti_sysbios_knl_Semaphore_Params__init__S                                
00012c3d  ti_sysbios_knl_Semaphore_construct                                      
00012509  ti_sysbios_knl_Semaphore_create                                         
000143f1  ti_sysbios_knl_Semaphore_delete                                         
000143fd  ti_sysbios_knl_Semaphore_destruct                                       
00012d11  ti_sysbios_knl_Semaphore_pendTimeout__I                                 
00007829  ti_sysbios_knl_Semaphore_pend__E                                        
0000cae9  ti_sysbios_knl_Semaphore_post__E                                        
000186f0  ti_sysbios_knl_Swi_A_badPriority__C                                     
00013851  ti_sysbios_knl_Swi_Handle__label__S                                     
80080948  ti_sysbios_knl_Swi_Instance_State_0_hookEnv__A                          
0000fcd9  ti_sysbios_knl_Swi_Instance_finalize__E                                 
0000de61  ti_sysbios_knl_Swi_Instance_init__E                                     
000186f4  ti_sysbios_knl_Swi_LD_end__C                                            
000186f8  ti_sysbios_knl_Swi_LM_begin__C                                          
000186fc  ti_sysbios_knl_Swi_LM_post__C                                           
800816a0  ti_sysbios_knl_Swi_Module_State_0_readyQ__A                             
00018700  ti_sysbios_knl_Swi_Module__diagsEnabled__C                              
00018704  ti_sysbios_knl_Swi_Module__diagsIncluded__C                             
00018708  ti_sysbios_knl_Swi_Module__diagsMask__C                                 
000188d2  ti_sysbios_knl_Swi_Module__id__C                                        
000188d4  ti_sysbios_knl_Swi_Module__loggerDefined__C                             
0001870c  ti_sysbios_knl_Swi_Module__loggerFxn1__C                                
00018710  ti_sysbios_knl_Swi_Module__loggerFxn4__C                                
00018714  ti_sysbios_knl_Swi_Module__loggerObj__C                                 
800811cc  ti_sysbios_knl_Swi_Module__root__V                                      
800811d4  ti_sysbios_knl_Swi_Module__state__V                                     
0000df69  ti_sysbios_knl_Swi_Module_startup__E                                    
000182b4  ti_sysbios_knl_Swi_Object__DESC__C                                      
00017f48  ti_sysbios_knl_Swi_Object__PARAMS__C                                    
00018718  ti_sysbios_knl_Swi_Object__count__C                                     
00013381  ti_sysbios_knl_Swi_Object__delete__S                                    
00012549  ti_sysbios_knl_Swi_Object__get__S                                       
0001871c  ti_sysbios_knl_Swi_Object__heap__C                                      
00018720  ti_sysbios_knl_Swi_Object__table__C                                     
80081c18  ti_sysbios_knl_Swi_Object__table__V                                     
0001125d  ti_sysbios_knl_Swi_create                                               
00014409  ti_sysbios_knl_Swi_delete                                               
00014149  ti_sysbios_knl_Swi_disable__E                                           
00018454  ti_sysbios_knl_Swi_hooks__A                                             
00018530  ti_sysbios_knl_Swi_hooks__C                                             
00018724  ti_sysbios_knl_Swi_numConstructedSwis__C                                
00011739  ti_sysbios_knl_Swi_postInit__I                                          
0000e921  ti_sysbios_knl_Swi_post__E                                              
00010ca9  ti_sysbios_knl_Swi_restoreHwi__E                                        
00011ba1  ti_sysbios_knl_Swi_runLoop__I                                           
0000b611  ti_sysbios_knl_Swi_run__I                                               
000115c9  ti_sysbios_knl_Swi_schedule__I                                          
00014419  ti_sysbios_knl_Swi_self__E                                              
00012839  ti_sysbios_knl_Swi_startup__E                                           
00018728  ti_sysbios_knl_Task_A_badPriority__C                                    
0001872c  ti_sysbios_knl_Task_A_badTaskState__C                                   
00018730  ti_sysbios_knl_Task_A_badThreadType__C                                  
00018734  ti_sysbios_knl_Task_A_noPendElem__C                                     
00018738  ti_sysbios_knl_Task_E_spOutOfBounds__C                                  
0001873c  ti_sysbios_knl_Task_E_stackOverflow__C                                  
00013601  ti_sysbios_knl_Task_Handle__label__S                                    
8008094c  ti_sysbios_knl_Task_Instance_State_0_hookEnv__A                         
80080000  ti_sysbios_knl_Task_Instance_State_0_stack__A                           
000090d9  ti_sysbios_knl_Task_Instance_finalize__E                                
0000a6b9  ti_sysbios_knl_Task_Instance_init__E                                    
00018740  ti_sysbios_knl_Task_LD_block__C                                         
00018744  ti_sysbios_knl_Task_LD_exit__C                                          
00018748  ti_sysbios_knl_Task_LD_ready__C                                         
0001874c  ti_sysbios_knl_Task_LM_setPri__C                                        
00018750  ti_sysbios_knl_Task_LM_switch__C                                        
800811f8  ti_sysbios_knl_Task_Module_State_0_idleTask__A                          
80081720  ti_sysbios_knl_Task_Module_State_0_readyQ__A                            
00018754  ti_sysbios_knl_Task_Module_State_inactiveQ__O                           
00018758  ti_sysbios_knl_Task_Module__diagsEnabled__C                             
0001875c  ti_sysbios_knl_Task_Module__diagsIncluded__C                            
00018760  ti_sysbios_knl_Task_Module__diagsMask__C                                
000188d6  ti_sysbios_knl_Task_Module__id__C                                       
000188d8  ti_sysbios_knl_Task_Module__loggerDefined__C                            
00018764  ti_sysbios_knl_Task_Module__loggerFxn2__C                               
00018768  ti_sysbios_knl_Task_Module__loggerFxn4__C                               
0001876c  ti_sysbios_knl_Task_Module__loggerObj__C                                
800811f0  ti_sysbios_knl_Task_Module__root__V                                     
80081af4  ti_sysbios_knl_Task_Module__state__V                                    
000104b1  ti_sysbios_knl_Task_Module_startup__E                                   
000182d4  ti_sysbios_knl_Task_Object__DESC__C                                     
00017d58  ti_sysbios_knl_Task_Object__PARAMS__C                                   
00018770  ti_sysbios_knl_Task_Object__count__C                                    
00012589  ti_sysbios_knl_Task_Object__get__S                                      
00018774  ti_sysbios_knl_Task_Object__heap__C                                     
00018778  ti_sysbios_knl_Task_Object__table__C                                    
80081aa4  ti_sysbios_knl_Task_Object__table__V                                    
000145c9  ti_sysbios_knl_Task_SupportProxy_Module__startupDone__S                 
00014159  ti_sysbios_knl_Task_SupportProxy_checkStack__E                          
000145d1  ti_sysbios_knl_Task_SupportProxy_getStackAlignment__E                   
00013b3f  ti_sysbios_knl_Task_SupportProxy_start__E                               
00014169  ti_sysbios_knl_Task_SupportProxy_swap__E                                
0001877c  ti_sysbios_knl_Task_allBlockedFunc__C                                   
00011bf1  ti_sysbios_knl_Task_allBlockedFunction__I                               
0000fa51  ti_sysbios_knl_Task_blockI__E                                           
0000f799  ti_sysbios_knl_Task_checkStacks__E                                      
000112c1  ti_sysbios_knl_Task_create                                              
00018780  ti_sysbios_knl_Task_defaultStackHeap__C                                 
00018784  ti_sysbios_knl_Task_defaultStackSize__C                                 
00014179  ti_sysbios_knl_Task_disable__E                                          
00013cf9  ti_sysbios_knl_Task_enter__I                                            
0000e659  ti_sysbios_knl_Task_exit__E                                             
0001846c  ti_sysbios_knl_Task_hooks__A                                            
00018538  ti_sysbios_knl_Task_hooks__C                                            
000188da  ti_sysbios_knl_Task_initStackFlag__C                                    
00018788  ti_sysbios_knl_Task_numConstructedTasks__C                              
0000e269  ti_sysbios_knl_Task_postInit__I                                         
00012b29  ti_sysbios_knl_Task_processVitalTaskFlag__I                             
00013111  ti_sysbios_knl_Task_restore__E                                          
0000dc49  ti_sysbios_knl_Task_schedule__I                                         
00014429  ti_sysbios_knl_Task_self__E                                             
0000b191  ti_sysbios_knl_Task_setPri__E                                           
0000e369  ti_sysbios_knl_Task_startCore__E                                        
00014689  ti_sysbios_knl_Task_startup__E                                          
000140e1  ti_sysbios_knl_Task_swapReturn                                          
0000f4b9  ti_sysbios_knl_Task_unblockI__E                                         
00013873  ti_sysbios_syncs_SyncSem_Handle__label__S                               
00014439  ti_sysbios_syncs_SyncSem_Instance_finalize__E                           
00010389  ti_sysbios_syncs_SyncSem_Instance_init__E                               
0001806c  ti_sysbios_syncs_SyncSem_Module__FXNS__C                                
0001878c  ti_sysbios_syncs_SyncSem_Module__diagsEnabled__C                        
00018790  ti_sysbios_syncs_SyncSem_Module__diagsIncluded__C                       
00018794  ti_sysbios_syncs_SyncSem_Module__diagsMask__C                           
000188dc  ti_sysbios_syncs_SyncSem_Module__id__C                                  
800811fc  ti_sysbios_syncs_SyncSem_Module__root__V                                
000182f4  ti_sysbios_syncs_SyncSem_Object__DESC__C                                
00018390  ti_sysbios_syncs_SyncSem_Object__PARAMS__C                              
00010f91  ti_sysbios_syncs_SyncSem_Object__create__S                              
000133a9  ti_sysbios_syncs_SyncSem_Object__delete__S                              
000114a9  ti_sysbios_syncs_SyncSem_create                                         
00014445  ti_sysbios_syncs_SyncSem_delete                                         
00014521  ti_sysbios_syncs_SyncSem_query__E                                       
00014639  ti_sysbios_syncs_SyncSem_signal__E                                      
00012879  ti_sysbios_syncs_SyncSem_wait__E                                        
00018798  ti_sysbios_timers_dmtimer_Timer_E_cannotSupport__C                      
0001879c  ti_sysbios_timers_dmtimer_Timer_E_freqMismatch__C                       
800814b0  ti_sysbios_timers_dmtimer_Timer_Module_State_0_device__A                
80081b38  ti_sysbios_timers_dmtimer_Timer_Module_State_0_handles__A               
800817a0  ti_sysbios_timers_dmtimer_Timer_Module_State_0_intFreqs__A              
000187a0  ti_sysbios_timers_dmtimer_Timer_Module__diagsEnabled__C                 
000187a4  ti_sysbios_timers_dmtimer_Timer_Module__diagsIncluded__C                
000187a8  ti_sysbios_timers_dmtimer_Timer_Module__diagsMask__C                    
000188de  ti_sysbios_timers_dmtimer_Timer_Module__id__C                           
80081204  ti_sysbios_timers_dmtimer_Timer_Module__root__V                         
00013d15  ti_sysbios_timers_dmtimer_Timer_Module__startupDone__F                  
000145d9  ti_sysbios_timers_dmtimer_Timer_Module__startupDone__S                  
8008120c  ti_sysbios_timers_dmtimer_Timer_Module__state__V                        
00010a69  ti_sysbios_timers_dmtimer_Timer_Module_startup__E                       
000187ac  ti_sysbios_timers_dmtimer_Timer_Object__count__C                        
000128b5  ti_sysbios_timers_dmtimer_Timer_Object__get__S                          
000187b0  ti_sysbios_timers_dmtimer_Timer_Object__table__C                        
800818fc  ti_sysbios_timers_dmtimer_Timer_Object__table__V                        
000145e1  ti_sysbios_timers_dmtimer_Timer_TimerSupportProxy_Module__startupDone__S
00014199  ti_sysbios_timers_dmtimer_Timer_TimerSupportProxy_enable__E             
0000ba79  ti_sysbios_timers_dmtimer_Timer_checkFreq__I                            
000188e0  ti_sysbios_timers_dmtimer_Timer_checkFrequency__C                       
0000d6d9  ti_sysbios_timers_dmtimer_Timer_deviceConfig__I                         
00013a61  ti_sysbios_timers_dmtimer_Timer_getFreq__E                              
00010ff9  ti_sysbios_timers_dmtimer_Timer_getHandle__E                            
00011791  ti_sysbios_timers_dmtimer_Timer_initDevice__I                           
000187b4  ti_sysbios_timers_dmtimer_Timer_numTimerDevices__C                      
0000f041  ti_sysbios_timers_dmtimer_Timer_setPeriodMicroSecs__E                   
00010659  ti_sysbios_timers_dmtimer_Timer_start__E                                
000188e2  ti_sysbios_timers_dmtimer_Timer_startupNeeded__C                        
000120f9  ti_sysbios_timers_dmtimer_Timer_startup__E                              
000128f1  ti_sysbios_timers_dmtimer_Timer_stop__E                                 
00013629  ti_sysbios_timers_dmtimer_Timer_stub__E                                 
000187b8  ti_sysbios_xdcruntime_GateThreadSupport_Instance_State_gate__O          
000141a9  ti_sysbios_xdcruntime_GateThreadSupport_Instance_finalize__E            
00013fb1  ti_sysbios_xdcruntime_GateThreadSupport_Instance_init__E                
80081220  ti_sysbios_xdcruntime_GateThreadSupport_Module__root__V                 
00018314  ti_sysbios_xdcruntime_GateThreadSupport_Object__DESC__C                 
00018484  ti_sysbios_xdcruntime_GateThreadSupport_Object__PARAMS__C               
000125c9  ti_sysbios_xdcruntime_GateThreadSupport_Object__create__S               
000133d1  ti_sysbios_xdcruntime_GateThreadSupport_Object__delete__S               
000141b9  ti_sysbios_xdcruntime_GateThreadSupport_enter__E                        
000141c9  ti_sysbios_xdcruntime_GateThreadSupport_leave__E                        
00014671  ti_sysbios_xdcruntime_GateThreadSupport_query__E                        
800812a8  ti_trace_SysMin_Module_State_0_lineBuffers__A                           
9f000000  ti_trace_SysMin_Module_State_0_outbuf__A                                
9f007ffc  ti_trace_SysMin_Module_State_0_readidx__A                               
9f007ff8  ti_trace_SysMin_Module_State_0_writeidx__A                              
80081228  ti_trace_SysMin_Module__state__V                                        
0001313d  ti_trace_SysMin_Module_startup__E                                       
0001292d  ti_trace_SysMin_abort__E                                                
000187bc  ti_trace_SysMin_bufSize__C                                              
00013a81  ti_trace_SysMin_exit__E                                                 
000188e4  ti_trace_SysMin_flushAtExit__C                                          
0000894f  ti_trace_SysMin_flush__E                                                
0000a0b1  ti_trace_SysMin_putch__E                                                
000141d9  ti_trace_SysMin_ready__E                                                
00006259  tsk1Fxn                                                                 
000187c0  xdc_runtime_Assert_E_assertFailed__C                                    
00011841  xdc_runtime_Assert_raise__I                                             
000187c4  xdc_runtime_Core_A_initializedParams__C                                 
000187c8  xdc_runtime_Core_Module__diagsEnabled__C                                
000187cc  xdc_runtime_Core_Module__diagsIncluded__C                               
000187d0  xdc_runtime_Core_Module__diagsMask__C                                   
000188e6  xdc_runtime_Core_Module__id__C                                          
00012c71  xdc_runtime_Core_assignLabel__I                                         
00011f0f  xdc_runtime_Core_assignParams__I                                        
0000eb99  xdc_runtime_Core_constructObject__I                                     
0000e06d  xdc_runtime_Core_createObject__I                                        
0001112f  xdc_runtime_Core_deleteObject__I                                        
80080f94  xdc_runtime_Diags_dictElems                                             
000187d4  xdc_runtime_Error_E_generic__C                                          
000187d8  xdc_runtime_Error_E_memory__C                                           
000187dc  xdc_runtime_Error_Module__diagsEnabled__C                               
000187e0  xdc_runtime_Error_Module__diagsIncluded__C                              
000187e4  xdc_runtime_Error_Module__diagsMask__C                                  
000188e8  xdc_runtime_Error_Module__loggerDefined__C                              
000187e8  xdc_runtime_Error_Module__loggerFxn8__C                                 
000187ec  xdc_runtime_Error_Module__loggerObj__C                                  
80081240  xdc_runtime_Error_Module__state__V                                      
00013e51  xdc_runtime_Error_check__E                                              
00007825  xdc_runtime_Error_getSite__E                                            
0001445d  xdc_runtime_Error_init__E                                               
000188ea  xdc_runtime_Error_maxDepth__C                                           
0000d7f5  xdc_runtime_Error_policyDefault__E                                      
000187f0  xdc_runtime_Error_policyFxn__C                                          
00018503  xdc_runtime_Error_policy__C                                             
00010d15  xdc_runtime_Error_print__E                                              
000187f4  xdc_runtime_Error_raiseHook__C                                          
00013d31  xdc_runtime_Error_raiseX__E                                             
0001213d  xdc_runtime_Error_setX__E                                               
00014469  xdc_runtime_Gate_enterSystem__E                                         
000141e9  xdc_runtime_Gate_leaveSystem__E                                         
000187f8  xdc_runtime_IGateProvider_Interface__BASE__C                            
000187fc  xdc_runtime_IHeap_Interface__BASE__C                                    
00018800  xdc_runtime_ILogger_Interface__BASE__C                                  
00018804  xdc_runtime_IModule_Interface__BASE__C                                  
00018808  xdc_runtime_Log_L_error__C                                              
0000e465  xdc_runtime_Log_doPrint__E                                              
00013895  xdc_runtime_LoggerSys_Handle__label__S                                  
00010c33  xdc_runtime_LoggerSys_Instance_init__E                                  
00017d94  xdc_runtime_LoggerSys_Module__FXNS__C                                   
80081244  xdc_runtime_LoggerSys_Module__root__V                                   
00018334  xdc_runtime_LoggerSys_Object__DESC__C                                   
0001849c  xdc_runtime_LoggerSys_Object__PARAMS__C                                 
00012609  xdc_runtime_LoggerSys_Object__create__S                                 
0001364d  xdc_runtime_LoggerSys_Object__delete__S                                 
8008124c  xdc_runtime_LoggerSys_Object__table__V                                  
00014475  xdc_runtime_LoggerSys_TimestampProxy_get64__E                           
0001452b  xdc_runtime_LoggerSys_disable__E                                        
00014535  xdc_runtime_LoggerSys_enable__E                                         
00013b5d  xdc_runtime_LoggerSys_write0__E                                         
00013b7b  xdc_runtime_LoggerSys_write1__E                                         
00013ac1  xdc_runtime_LoggerSys_write2__E                                         
00013671  xdc_runtime_LoggerSys_write4__E                                         
00011c3d  xdc_runtime_LoggerSys_write8__E                                         
0001880c  xdc_runtime_Main_Module__diagsEnabled__C                                
00018810  xdc_runtime_Main_Module__diagsIncluded__C                               
00018814  xdc_runtime_Main_Module__diagsMask__C                                   
000188ec  xdc_runtime_Main_Module__id__C                                          
000188ee  xdc_runtime_Main_Module__loggerDefined__C                               
00018818  xdc_runtime_Main_Module__loggerFxn2__C                                  
0001881c  xdc_runtime_Main_Module__loggerObj__C                                   
00013b99  xdc_runtime_Memory_HeapProxy_alloc__E                                   
00013fc5  xdc_runtime_Memory_HeapProxy_free__E                                    
000188f0  xdc_runtime_Memory_Module__id__C                                        
80081254  xdc_runtime_Memory_Module__state__V                                     
00010d81  xdc_runtime_Memory_alloc__E                                             
00014481  xdc_runtime_Memory_calloc__E                                            
00018820  xdc_runtime_Memory_defaultHeapInstance__C                               
000141f9  xdc_runtime_Memory_free__E                                              
0001448d  xdc_runtime_Memory_getMaxDefaultTypeAlign__E                            
00013d4d  xdc_runtime_Memory_valloc__E                                            
00018824  xdc_runtime_Registry_Module__diagsEnabled__C                            
00018828  xdc_runtime_Registry_Module__diagsIncluded__C                           
0001882c  xdc_runtime_Registry_Module__diagsMask__C                               
000188f2  xdc_runtime_Registry_Module__loggerDefined__C                           
00018830  xdc_runtime_Registry_Module__loggerFxn1__C                              
00018834  xdc_runtime_Registry_Module__loggerFxn2__C                              
00018838  xdc_runtime_Registry_Module__loggerFxn4__C                              
0001883c  xdc_runtime_Registry_Module__loggerFxn8__C                              
00018840  xdc_runtime_Registry_Module__loggerObj__C                               
80081258  xdc_runtime_Registry_Module__root__V                                    
8008125c  xdc_runtime_Registry_Module__state__V                                   
00011625  xdc_runtime_Registry_addModule__E                                       
00013ae1  xdc_runtime_Registry_findById__E                                        
000138b7  xdc_runtime_Registry_findByNameInList__I                                
00014499  xdc_runtime_Registry_findByName__E                                      
80081264  xdc_runtime_Startup_Module__state__V                                    
00000001  xdc_runtime_Startup__EXECFXN__C                                         
00000001  xdc_runtime_Startup__RESETFXN__C                                        
00018844  xdc_runtime_Startup_execImpl__C                                         
000118e5  xdc_runtime_Startup_exec__E                                             
00013d69  xdc_runtime_Startup_exec__I                                             
00018504  xdc_runtime_Startup_firstFxns__A                                        
00018540  xdc_runtime_Startup_firstFxns__C                                        
00018848  xdc_runtime_Startup_lastFxns__A                                         
00018548  xdc_runtime_Startup_lastFxns__C                                         
0001884c  xdc_runtime_Startup_maxPasses__C                                        
000145e9  xdc_runtime_Startup_reset__I                                            
00017e7c  xdc_runtime_Startup_sfxnRts__A                                          
00018850  xdc_runtime_Startup_sfxnRts__C                                          
00017c84  xdc_runtime_Startup_sfxnTab__A                                          
00018854  xdc_runtime_Startup_sfxnTab__C                                          
00018858  xdc_runtime_Startup_startModsFxn__C                                     
0000e55d  xdc_runtime_Startup_startMods__I                                        
000144a5  xdc_runtime_System_Module_GateProxy_enter__E                            
00014209  xdc_runtime_System_Module_GateProxy_leave__E                            
8008126c  xdc_runtime_System_Module_State_0_atexitHandlers__A                     
0001885c  xdc_runtime_System_Module__gateObj__C                                   
8008128c  xdc_runtime_System_Module__state__V                                     
00012d0b  xdc_runtime_System_Module_startup__E                                    
000144b1  xdc_runtime_System_SupportProxy_abort__E                                
000144bd  xdc_runtime_System_SupportProxy_exit__E                                 
00014219  xdc_runtime_System_SupportProxy_putch__E                                
000145f1  xdc_runtime_System_SupportProxy_ready__E                                
00018860  xdc_runtime_System_abortFxn__C                                          
00011f9d  xdc_runtime_System_abortStd__E                                          
00013d85  xdc_runtime_System_abort__E                                             
000133f9  xdc_runtime_System_aprintf__E                                           
00007b3d  xdc_runtime_System_aprintf_va__F                                        
00012b61  xdc_runtime_System_atexit__E                                            
00013471  xdc_runtime_System_avprintf__E                                          
000074d9  xdc_runtime_System_doPrint__I                                           
00018864  xdc_runtime_System_exitFxn__C                                           
00011fa5  xdc_runtime_System_exitStd__E                                           
00013e69  xdc_runtime_System_exit__E                                              
00018868  xdc_runtime_System_extendFxn__C                                         
00011325  xdc_runtime_System_formatNum__I                                         
0001886c  xdc_runtime_System_maxAtexitHandlers__C                                 
00009e95  xdc_runtime_System_printfExtend__I                                      
00013421  xdc_runtime_System_printf__E                                            
00007e4d  xdc_runtime_System_printf_va__F                                         
00012ec5  xdc_runtime_System_processAtExit__E                                     
00014033  xdc_runtime_System_putch__E                                             
000131e9  xdc_runtime_System_putchar__I                                           
00012f7f  xdc_runtime_System_sprintf__E                                           
00008145  xdc_runtime_System_sprintf_va__F                                        
00013695  xdc_runtime_System_vprintf__E                                           
00014229  xdc_runtime_System_vsnprintf__E                                         
00013f07  xdc_runtime_System_vsprintf__E                                          
80081294  xdc_runtime_Text_Module__state__V                                       
000188f4  xdc_runtime_Text_charCnt__C                                             
000146a4  xdc_runtime_Text_charTab__A                                             
00018870  xdc_runtime_Text_charTab__C                                             
00013169  xdc_runtime_Text_cordText__E                                            
000188f6  xdc_runtime_Text_isLoaded__C                                            
00018874  xdc_runtime_Text_nameEmpty__C                                           
00018878  xdc_runtime_Text_nameStatic__C                                          
0001887c  xdc_runtime_Text_nameUnknown__C                                         
0001797c  xdc_runtime_Text_nodeTab__A                                             
00018880  xdc_runtime_Text_nodeTab__C                                             
00012ca5  xdc_runtime_Text_printVisFxn__I                                         
00011681  xdc_runtime_Text_putLab__E                                              
0000fd79  xdc_runtime_Text_putMod__E                                              
0001008d  xdc_runtime_Text_putSite__E                                             
000188f8  xdc_runtime_Text_registryModsLastId__C                                  
00013e81  xdc_runtime_Text_ropeText__E                                            
000188fa  xdc_runtime_Text_unnamedModsLastId__C                                   
00011935  xdc_runtime_Text_visitRope2__I                                          
00018884  xdc_runtime_Text_visitRopeFxn__C                                        
00013b01  xdc_runtime_Text_visitRope__I                                           
00012181  xdc_runtime_Text_xprintf__I                                             
000145f9  xdc_runtime_Timestamp_SupportProxy_get32__E                             
000144c9  xdc_runtime_Timestamp_SupportProxy_getFreq__E                           
000145f9  xdc_runtime_Timestamp_get32__E                                          
000144c9  xdc_runtime_Timestamp_getFreq__E                                        
000138d9  xdc_runtime_knl_GateThread_Handle__label__S                             
000144d5  xdc_runtime_knl_GateThread_Instance_finalize__E                         
00013f1d  xdc_runtime_knl_GateThread_Instance_init__E                             
00018090  xdc_runtime_knl_GateThread_Module__FXNS__C                              
8008129c  xdc_runtime_knl_GateThread_Module__root__V                              
0000841d  xdc_runtime_knl_GateThread_Module__startupDone__S                       
00018354  xdc_runtime_knl_GateThread_Object__DESC__C                              
000184b4  xdc_runtime_knl_GateThread_Object__PARAMS__C                            
00011061  xdc_runtime_knl_GateThread_Object__create__S                            
00013449  xdc_runtime_knl_GateThread_Object__delete__S                            
00013497  xdc_runtime_knl_GateThread_Proxy_Object__create__S                      
000144e1  xdc_runtime_knl_GateThread_Proxy_Object__delete__S                      
000138fb  xdc_runtime_knl_GateThread_Proxy_create                                 
000144ed  xdc_runtime_knl_GateThread_Proxy_delete                                 
000144f9  xdc_runtime_knl_GateThread_Proxy_enter__E                               
00014239  xdc_runtime_knl_GateThread_Proxy_leave__E                               
00014505  xdc_runtime_knl_GateThread_Proxy_query__E                               
00011509  xdc_runtime_knl_GateThread_create                                       
00013bd3  xdc_runtime_knl_GateThread_enter__E                                     
00013feb  xdc_runtime_knl_GateThread_leave__E                                     
00014505  xdc_runtime_knl_GateThread_query__E                                     
00018888  xdc_runtime_knl_ISync_Interface__BASE__C                                


GLOBAL SYMBOLS: SORTED BY Symbol Address 

address   name                                                                    
-------   ----                                                                    
00000000  _argsize                                                                
00000001  xdc_runtime_Startup__EXECFXN__C                                         
00000001  xdc_runtime_Startup__RESETFXN__C                                        
00000009  ti_sysbios_family_arm_ducati_Core_reset                                 
00000040  ti_sysbios_family_arm_ducati_Core_core1WaitFlag                         
00000400  ti_sysbios_family_arm_m3_Hwi_resetVectors                               
000007f0  ti_sysbios_family_arm_ducati_GateDualCore_gateArray                     
00001000  __STACK_SIZE                                                            
00003000  ti_ipc_remoteproc_ResourceTable                                         
00004000  __ASM__                                                                 
0000408d  __ISA__                                                                 
000040a0  __PLAT__                                                                
000040c6  __TARG__                                                                
000040eb  __TRDR__                                                                
00004da1  __TI_printfi                                                            
000050a7  __aeabi_idiv0                                                           
000050a9  ti_deh_Deh_excHandler__F                                                
000057dd  ti_sysbios_family_arm_m3_TaskSupport_Module__startupDone__S             
000057e1  RPMessage_send                                                          
00005d95  ti_sysbios_family_shared_vayu_IntXbar_Module__startupDone__S            
00005d99  ti_ipc_namesrv_NameServerRemoteRpmsg_get__F                             
00006259  tsk1Fxn                                                                 
00006689  MessageQ_put                                                            
00006a79  ti_sysbios_heaps_HeapBuf_Instance_init__E                               
00006e0d  ti_sysbios_hal_ammu_AMMU_Module__startupDone__S                         
00006e11  NameServerRemote_processMessage                                         
00007181  VirtQueue_create                                                        
000074d9  xdc_runtime_System_doPrint__I                                           
00007825  xdc_runtime_Error_getSite__E                                            
00007829  ti_sysbios_knl_Semaphore_pend__E                                        
00007b3d  xdc_runtime_System_aprintf_va__F                                        
00007e4d  xdc_runtime_System_printf_va__F                                         
00007e51  ti_sdo_ipc_family_vayu_NotifySetup_Module_startup__E                    
00008145  xdc_runtime_System_sprintf_va__F                                        
00008149  RPMessage_init                                                          
0000841d  xdc_runtime_knl_GateThread_Module__startupDone__S                       
00008421  VirtQueue_startup                                                       
000086b9  NameServer_add                                                          
0000894d  ti_sysbios_BIOS_nullFunc__I                                             
0000894f  ti_trace_SysMin_flush__E                                                
00008951  RPMessage_create                                                        
00008bdc  ti_ipc_namesrv_NameServerRemoteRpmsg_Module__diagsEnabled__C            
00008e65  ti_deh_Watchdog_init__F                                                 
000090d9  ti_sysbios_knl_Task_Instance_finalize__E                                
0000934c  ti_ipc_namesrv_NameServerRemoteRpmsg_Module__diagsIncluded__C           
00009351  ti_sysbios_heaps_HeapMem_free__E                                        
000095a4  ti_ipc_namesrv_NameServerRemoteRpmsg_Module__diagsMask__C               
000095a9  ti_ipc_transports_TransportRpmsg_Instance_init__E                       
000097ec  ti_ipc_namesrv_NameServerRemoteRpmsg_Module__loggerFxn1__C              
000097f1  ti_sysbios_heaps_HeapMem_alloc__E                                       
00009a31  MessageQ_free                                                           
00009c6c  ti_ipc_namesrv_NameServerRemoteRpmsg_Module__loggerFxn2__C              
00009c71  ti_sdo_ipc_MessageQ_Instance_init__E                                    
00009e95  xdc_runtime_System_printfExtend__I                                      
0000a0b1  ti_trace_SysMin_putch__E                                                
0000a2c4  ti_ipc_namesrv_NameServerRemoteRpmsg_Module__loggerFxn4__C              
0000a2c9  ti_sysbios_heaps_HeapBuf_free__E                                        
0000a4c1  __aeabi_uldivmod                                                        
0000a6b4  ti_ipc_namesrv_NameServerRemoteRpmsg_Module__loggerFxn8__C              
0000a6b9  ti_sysbios_knl_Task_Instance_init__E                                    
0000a8ac  ti_ipc_namesrv_NameServerRemoteRpmsg_Module__loggerObj__C               
0000a8b1  ti_sysbios_hal_unicache_Cache_startup__I                                
0000aaa1  IpcMgr_ipcStartup                                                       
0000ac7d  __aeabi_dsub                                                            
0000ac87  __aeabi_dadd                                                            
0000ae33  __xdc__init                                                             
0000ae39  ti_sysbios_gates_GateMutexPri_enter__E                                  
0000afe9  ti_ipc_transports_TransportRpmsg_Instance_finalize__E                   
0000b18c  ti_ipc_namesrv_NameServerRemoteRpmsg_timeout__C                         
0000b191  ti_sysbios_knl_Task_setPri__E                                           
0000b319  VirtQueue_isr                                                           
0000b494  ti_ipc_transports_TransportRpmsgSetup_Module__diagsEnabled__C           
0000b499  ti_sdo_ipc_MessageQ_registerTransport__F                                
0000b611  ti_sysbios_knl_Swi_run__I                                               
0000b789  ti_sdo_utils_NameServer_registerRemoteDriver__E                         
0000b8fc  ti_ipc_transports_TransportRpmsgSetup_Module__diagsIncluded__C          
0000b901  ti_sysbios_family_arm_m3_Hwi_excBusFault__I                             
0000ba74  ti_ipc_transports_TransportRpmsgSetup_Module__diagsMask__C              
0000ba79  ti_sysbios_timers_dmtimer_Timer_checkFreq__I                            
0000bbe9  fxnFault                                                                
0000bd59  ti_sdo_ipc_MessageQ_unregisterTransport__F                              
0000bec4  ti_ipc_transports_TransportRpmsgSetup_Module__loggerFxn2__C             
0000c02c  ti_ipc_transports_TransportRpmsgSetup_Module__loggerObj__C              
0000c031  ti_sdo_utils_NameServer_unregisterRemoteDriver__E                       
0000c194  ti_ipc_transports_TransportRpmsg_Module__diagsEnabled__C                
0000c199  ti_sysbios_family_arm_m3_Hwi_excUsageFault__I                           
0000c2fc  ti_ipc_transports_TransportRpmsg_Module__diagsIncluded__C               
0000c301  ti_sysbios_heaps_HeapBuf_alloc__E                                       
0000c464  ti_ipc_transports_TransportRpmsg_Module__diagsMask__C                   
0000c469  MessageQ_alloc                                                          
0000c5b4  ti_ipc_transports_TransportRpmsg_Module__loggerFxn1__C                  
0000c5b9  ti_sdo_ipc_MessageQ_Instance_finalize__E                                
0000c704  ti_ipc_transports_TransportRpmsg_Module__loggerFxn2__C                  
0000c709  ti_sysbios_family_shared_vayu_IntXbar_connect__E                        
0000c854  ti_ipc_transports_TransportRpmsg_Module__loggerFxn4__C                  
0000c859  ti_sysbios_family_arm_m3_Hwi_excMemFault__I                             
0000c9a1  ti_sdo_ipc_family_vayu_InterruptIpu_intRegister__E                      
0000cae4  ti_ipc_transports_TransportRpmsg_Module__loggerFxn8__C                  
0000cae9  ti_sysbios_knl_Semaphore_post__E                                        
0000cc29  ti_sysbios_heaps_HeapMem_Instance_init__E                               
0000cd64  ti_ipc_transports_TransportRpmsg_Module__loggerObj__C                   
0000cd69  ti_sysbios_family_arm_m3_Hwi_dispatchC__I                               
0000cea1  __aeabi_ddiv                                                            
0000cfd9  ti_sdo_ipc_family_vayu_InterruptIpu_intSend__E                          
0000d10c  ti_sdo_ipc_MessageQ_A_cannotFreeStaticMsg__C                            
0000d111  ti_sysbios_knl_Clock_workFunc__E                                        
0000d244  ti_sdo_ipc_MessageQ_A_heapIdInvalid__C                                  
0000d249  ti_sysbios_hal_unicache_Cache_inv__E                                    
0000d371  MessageQ_get                                                            
0000d494  ti_sdo_ipc_MessageQ_A_invalidMsg__C                                     
0000d499  NameServer_getLocal                                                     
0000d5b9  VirtQueue_kick                                                          
0000d6d4  ti_sdo_ipc_MessageQ_A_invalidObj__C                                     
0000d6d9  ti_sysbios_timers_dmtimer_Timer_deviceConfig__I                         
0000d7f5  xdc_runtime_Error_policyDefault__E                                      
0000d90c  ti_sdo_ipc_MessageQ_A_invalidQueueId__C                                 
0000d911  ti_ipc_transports_TransportRpmsg_put__E                                 
0000da24  ti_sdo_ipc_MessageQ_A_procIdInvalid__C                                  
0000db39  _Dscale                                                                 
0000dc49  ti_sysbios_knl_Task_schedule__I                                         
0000dd59  ti_sdo_ipc_family_vayu_InterruptIpu_intClear__E                         
0000de61  ti_sysbios_knl_Swi_Instance_init__E                                     
0000df64  ti_sdo_ipc_MessageQ_A_unregisteredTransport__C                          
0000df69  ti_sysbios_knl_Swi_Module_startup__E                                    
0000e06d  xdc_runtime_Core_createObject__I                                        
0000e16d  __aeabi_dmul                                                            
0000e269  ti_sysbios_knl_Task_postInit__I                                         
0000e364  ti_sdo_ipc_MessageQ_E_indexNotAvailable__C                              
0000e369  ti_sysbios_knl_Task_startCore__E                                        
0000e465  xdc_runtime_Log_doPrint__E                                              
0000e55d  xdc_runtime_Startup_startMods__I                                        
0000e654  ti_sdo_ipc_MessageQ_E_maxReached__C                                     
0000e659  ti_sysbios_knl_Task_exit__E                                             
0000e749  ti_sysbios_heaps_HeapBuf_Module_startup__E                              
0000e835  ti_deh_StackDbg_walkStack__F                                            
0000e91c  ti_sdo_ipc_MessageQ_E_nameFailed__C                                     
0000e921  ti_sysbios_knl_Swi_post__E                                              
0000e9f9  ti_sysbios_family_arm_ducati_GateDualCore_enter__E                      
0000eac9  ti_sysbios_family_arm_m3_Hwi_dispatch__I                                
0000eb99  xdc_runtime_Core_constructObject__I                                     
0000ec64  ti_sdo_ipc_MessageQ_Instance_State_highList__O                          
0000ec69  ti_ipc_transports_TransportRpmsgSetup_attach__E                         
0000ed31  MultiProc_getId                                                         
0000edf4  ti_sdo_ipc_MessageQ_Instance_State_normalList__O                        
0000edf9  ti_sysbios_family_arm_m3_Hwi_Module_startup__E                          
0000eebc  ti_sdo_ipc_MessageQ_LM_free__C                                          
0000eec1  ti_ipc_namesrv_NameServerRemoteRpmsg_detach__E                          
0000ef81  ti_sysbios_BIOS_rtsUnlock__I                                            
0000f041  ti_sysbios_timers_dmtimer_Timer_setPeriodMicroSecs__E                   
0000f1bf  _Dnorm                                                                  
0000f27c  ti_sdo_ipc_MessageQ_LM_get__C                                           
0000f281  ti_sysbios_family_arm_m3_Hwi_excDebugMon__I                             
0000f33c  ti_sdo_ipc_MessageQ_LM_putLocal__C                                      
0000f341  ti_sysbios_family_arm_m3_Hwi_excHardFault__I                            
0000f4b4  ti_sdo_ipc_MessageQ_Module__diagsEnabled__C                             
0000f4b9  ti_sysbios_knl_Task_unblockI__E                                         
0000f571  ti_sysbios_family_arm_ducati_Timer_startup__E                           
0000f624  ti_sdo_ipc_MessageQ_Module__diagsIncluded__C                            
0000f629  ti_sysbios_family_shared_vayu_IntXbar_initXbarRegs__I                   
0000f6dc  ti_sdo_ipc_MessageQ_Module__diagsMask__C                                
0000f6e1  ti_sysbios_gates_GateMutex_enter__E                                     
0000f794  ti_sdo_ipc_MessageQ_Module__loggerFxn4__C                               
0000f799  ti_sysbios_knl_Task_checkStacks__E                                      
0000f84c  ti_sdo_ipc_MessageQ_Module__loggerObj__C                                
0000f851  ti_sdo_utils_NameServer_Module_startup__E                               
0000f9a4  ti_sdo_ipc_MessageQ_Object__count__C                                    
0000f9a9  ti_ipc_namesrv_NameServerRemoteRpmsg_Instance_init__E                   
0000fa51  ti_sysbios_knl_Task_blockI__E                                           
0000faf9  __TI_auto_init                                                          
0000fb99  ti_ipc_namesrv_NameServerRemoteRpmsg_attach__E                          
0000fc39  ti_sdo_ipc_family_vayu_NotifySetup_dispatchIsr__I                       
0000fcd9  ti_sysbios_knl_Swi_Instance_finalize__E                                 
0000fd79  xdc_runtime_Text_putMod__E                                              
0000fe19  MultiProc_getName                                                       
0000feb5  __aeabi_memcpy                                                          
0000feb5  __aeabi_memcpy4                                                         
0000feb5  __aeabi_memcpy8                                                         
0000feb5  memcpy                                                                  
0000ff51  ti_sdo_ipc_family_vayu_NotifySetup_plugHwi__F                           
0000ffec  ti_sdo_ipc_MessageQ_Object__heap__C                                     
0000fff1  ti_sysbios_knl_Semaphore_Instance_init__E                               
0001008d  xdc_runtime_Text_putSite__E                                             
00010129  MessageQ_create                                                         
000101c1  ti_sdo_ipc_family_vayu_InterruptIpu_intEnable__E                        
00010259  ti_sysbios_gates_GateSwi_enter__E                                       
000102f1  ti_sysbios_family_arm_m3_Hwi_Instance_init__E                           
00010384  ti_sdo_ipc_MessageQ_Object__table__C                                    
00010389  ti_sysbios_syncs_SyncSem_Instance_init__E                               
0001041c  ti_sdo_ipc_MessageQ_maxRuntimeEntries__C                                
00010421  ti_sysbios_family_arm_ducati_GateDualCore_Instance_init__E              
000104b1  ti_sysbios_knl_Task_Module_startup__E                                   
00010541  ti_sysbios_family_arm_ducati_Timer_setPeriod__E                         
000105cc  ti_sdo_ipc_MessageQ_numReservedEntries__C                               
000105d1  ti_sysbios_family_arm_m3_Hwi_initNVIC__E                                
00010659  ti_sysbios_timers_dmtimer_Timer_start__E                                
000106e1  __aeabi_cdcmpeq                                                         
000106e1  __aeabi_cdcmple                                                         
00010767  __aeabi_cdrcmple                                                        
000107ec  ti_sdo_ipc_family_vayu_InterruptIpu_Module__diagsEnabled__C             
000107f1  ti_sysbios_family_shared_vayu_IntXbar_initIntXbar__I                    
00010871  NameServer_getHandle                                                    
000108ec  ti_sdo_ipc_family_vayu_InterruptIpu_Module__diagsIncluded__C            
000108f1  ti_sdo_ipc_MessageQ_Module_startup__E                                   
0001096c  ti_sdo_ipc_family_vayu_InterruptIpu_Module__diagsMask__C                
00010971  ti_sysbios_family_arm_ducati_GateDualCore_Module_startup__E             
000109ed  __aeabi_memclr                                                          
000109ed  __aeabi_memclr4                                                         
000109ed  __aeabi_memclr8                                                         
000109ef  __aeabi_memset                                                          
000109ef  __aeabi_memset4                                                         
000109ef  __aeabi_memset8                                                         
000109f5  memset                                                                  
00010a69  ti_sysbios_timers_dmtimer_Timer_Module_startup__E                       
00010ae1  ti_sysbios_family_arm_m3_Hwi_postInit__I                                
00010b55  ti_ipc_transports_TransportRpmsg_Object__create__S                      
00010c33  xdc_runtime_LoggerSys_Instance_init__E                                  
00010c39  ti_sysbios_gates_GateMutexPri_leave__E                                  
00010ca4  ti_sdo_ipc_family_vayu_InterruptIpu_ducatiCtrlBaseAddr__C               
00010ca9  ti_sysbios_knl_Swi_restoreHwi__E                                        
00010d15  xdc_runtime_Error_print__E                                              
00010d81  xdc_runtime_Memory_alloc__E                                             
00010ded  ti_ipc_transports_TransportRpmsg_create                                 
00010e54  ti_sdo_ipc_family_vayu_InterruptIpu_ipu1_0ProcId__C                     
00010e59  ti_sysbios_family_arm_ducati_Timer_Module_startup__E                    
00010ec1  ti_sysbios_family_arm_m3_Hwi_create                                     
00010f29  ti_sysbios_heaps_HeapBuf_Object__create__S                              
00010f91  ti_sysbios_syncs_SyncSem_Object__create__S                              
00010ff9  ti_sysbios_timers_dmtimer_Timer_getHandle__E                            
00011061  xdc_runtime_knl_GateThread_Object__create__S                            
000110c9  _Dunscale                                                               
0001112f  xdc_runtime_Core_deleteObject__I                                        
00011195  ti_sdo_ipc_MessageQ_create                                              
000111f9  ti_sysbios_family_arm_ducati_GateDualCore_Object__create__S             
0001125d  ti_sysbios_knl_Swi_create                                               
000112c1  ti_sysbios_knl_Task_create                                              
00011325  xdc_runtime_System_formatNum__I                                         
00011389  sprintf                                                                 
000113e9  ti_sysbios_family_arm_ducati_Timer_initDevice__I                        
00011449  ti_sysbios_knl_Clock_logTick__E                                         
000114a9  ti_sysbios_syncs_SyncSem_create                                         
00011509  xdc_runtime_knl_GateThread_create                                       
00011569  ti_deh_Watchdog_restore__I                                              
000115c4  ti_sdo_ipc_family_vayu_InterruptIpu_ipu1_1ProcId__C                     
000115c9  ti_sysbios_knl_Swi_schedule__I                                          
00011625  xdc_runtime_Registry_addModule__E                                       
00011681  xdc_runtime_Text_putLab__E                                              
000116dc  ti_sdo_ipc_family_vayu_InterruptIpu_ipu2_0ProcId__C                     
000116e1  ti_sysbios_family_arm_ducati_TimestampProvider_Module_startup__E        
00011739  ti_sysbios_knl_Swi_postInit__I                                          
00011791  ti_sysbios_timers_dmtimer_Timer_initDevice__I                           
000117e9  ltoa                                                                    
00011841  xdc_runtime_Assert_raise__I                                             
00011895  main                                                                    
000118e5  xdc_runtime_Startup_exec__E                                             
00011935  xdc_runtime_Text_visitRope2__I                                          
00011985  atoi                                                                    
000119d1  copy_in                                                                 
00011a1d  ti_deh_Watchdog_start__I                                                
00011a69  ti_sdo_ipc_family_vayu_InterruptIpu_intShmDucatiStub__I                 
00011ab5  ti_sysbios_family_arm_m3_TaskSupport_buildTaskStack                     
00011b01  ti_sysbios_heaps_HeapBuf_postInit__I                                    
00011b4c  ti_sdo_ipc_family_vayu_InterruptIpu_ipu2_1ProcId__C                     
00011b51  ti_sysbios_heaps_HeapMem_getStats__E                                    
00011b9c  ti_sdo_ipc_interfaces_IMessageQTransport_Interface__BASE__C             
00011ba1  ti_sysbios_knl_Swi_runLoop__I                                           
00011bec  ti_sdo_ipc_interfaces_INetworkTransport_Interface__BASE__C              
00011bf1  ti_sysbios_knl_Task_allBlockedFunction__I                               
00011c3d  xdc_runtime_LoggerSys_write8__E                                         
00011c87  __aeabi_d2iz                                                            
00011cd1  ti_deh_Watchdog_isException__F                                          
00011d19  ti_ipc_namesrv_NameServerRemoteRpmsg_Object__create__S                  
00011d61  ti_sysbios_family_arm_m3_Hwi_disableInterrupt__E                        
00011da9  ti_sysbios_family_arm_m3_Hwi_enableInterrupt__E                         
00011df1  ti_sysbios_family_arm_m3_Hwi_excReserved__I                             
00011e39  ti_sysbios_family_arm_m3_Hwi_initStacks__E                              
00011e81  ti_sysbios_family_shared_vayu_TimerSupport_enable__E                    
00011ec9  ldexp                                                                   
00011f0f  xdc_runtime_Core_assignParams__I                                        
00011f55  _c_int00                                                                
00011f99  C$$EXIT                                                                 
00011f9d  abort                                                                   
00011f9d  xdc_runtime_System_abortStd__E                                          
00011fa5  exit                                                                    
00011fa5  xdc_runtime_System_exitStd__E                                           
00011fdd  ti_ipc_namesrv_NameServerRemoteRpmsg_create                             
00012021  ti_sysbios_family_arm_ducati_TimestampProvider_get32__E                 
00012064  ti_sdo_ipc_interfaces_ITransport_Interface__BASE__C                     
00012069  ti_sysbios_family_arm_m3_Hwi_getStackInfo__E                            
000120ac  ti_sdo_utils_INameServerRemote_Interface__BASE__C                       
000120b1  ti_sysbios_hal_unicache_Cache_wbAll__E                                  
000120f4  ti_sdo_utils_MultiProc_A_invalidMultiProcId__C                          
000120f9  ti_sysbios_timers_dmtimer_Timer_startup__E                              
0001213d  xdc_runtime_Error_setX__E                                               
00012181  xdc_runtime_Text_xprintf__I                                             
000121c5  signal                                                                  
00012205  __aeabi_uidiv                                                           
00012205  __aeabi_uidivmod                                                        
00012245  ti_sdo_ipc_MessageQ_Object__get__S                                      
00012285  ti_sdo_utils_NameServer_Object__get__S                                  
000122c5  ti_sysbios_family_arm_m3_Hwi_Object__get__S                             
00012305  ti_sysbios_gates_GateHwi_Object__create__S                              
00012345  ti_sysbios_gates_GateMutexPri_Object__create__S                         
00012385  ti_sysbios_gates_GateMutex_Object__create__S                            
000123c5  ti_sysbios_gates_GateSwi_Object__create__S                              
00012404  ti_sdo_utils_MultiProc_A_invalidProcName__C                             
00012409  ti_sysbios_hal_unicache_Cache_seizeRegs__I                              
00012449  ti_sysbios_heaps_HeapBuf_Object__get__S                                 
00012489  ti_sysbios_heaps_HeapMem_Object__create__S                              
000124c9  ti_sysbios_heaps_HeapMem_Object__get__S                                 
00012509  ti_sysbios_knl_Semaphore_create                                         
00012549  ti_sysbios_knl_Swi_Object__get__S                                       
00012589  ti_sysbios_knl_Task_Object__get__S                                      
000125c9  ti_sysbios_xdcruntime_GateThreadSupport_Object__create__S               
00012609  xdc_runtime_LoggerSys_Object__create__S                                 
00012649  ti_deh_Watchdog_stop__I                                                 
00012685  ti_sdo_utils_List_create                                                
000126c1  ti_sysbios_family_arm_ducati_Core_Module_startup__E                     
000126fc  ti_sdo_utils_MultiProc_Module__diagsEnabled__C                          
00012701  ti_sysbios_family_arm_m3_Hwi_excSvCall__I                               
0001273c  ti_sdo_utils_MultiProc_Module__diagsIncluded__C                         
00012741  ti_sysbios_family_arm_m3_TaskSupport_start__E                           
0001277d  ti_sysbios_gates_GateHwi_create                                         
000127b9  ti_sysbios_gates_GateSwi_leave__E                                       
000127f4  ti_sdo_utils_MultiProc_Module__diagsMask__C                             
000127f9  ti_sysbios_heaps_HeapMem_init__I                                        
00012834  ti_sdo_utils_MultiProc_nameList__C                                      
00012839  ti_sysbios_knl_Swi_startup__E                                           
00012874  ti_sdo_utils_NameServer_A_invArgument__C                                
00012879  ti_sysbios_syncs_SyncSem_wait__E                                        
000128b5  ti_sysbios_timers_dmtimer_Timer_Object__get__S                          
000128f1  ti_sysbios_timers_dmtimer_Timer_stop__E                                 
0001292d  ti_trace_SysMin_abort__E                                                
000129a1  ti_deh_Watchdog_kick__I                                                 
000129d9  ti_ipc_remoteproc_Resource_init__I                                      
00012a11  ti_sysbios_family_arm_ducati_GateDualCore_Object__get__S                
00012a49  ti_sysbios_family_arm_ducati_TimestampProvider_get64__E                 
00012a81  ti_sysbios_family_arm_m3_Hwi_excNoIsr__I                                
00012ab9  ti_sysbios_knl_Clock_doTick__I                                          
00012af1  ti_sysbios_knl_Queue_Object__get__S                                     
00012b29  ti_sysbios_knl_Task_processVitalTaskFlag__I                             
00012b61  xdc_runtime_System_atexit__E                                            
00012b99  feraiseexcept                                                           
00012bcc  ti_sdo_utils_NameServer_A_invalidLen__C                                 
00012bd1  ti_sysbios_family_arm_m3_Hwi_excNmi__I                                  
00012c04  ti_sdo_utils_NameServer_E_entryExists__C                                
00012c09  ti_sysbios_hal_Hwi_checkStack                                           
00012c3d  ti_sysbios_knl_Semaphore_construct                                      
00012c71  xdc_runtime_Core_assignLabel__I                                         
00012ca5  xdc_runtime_Text_printVisFxn__I                                         
00012cd9  ti_sysbios_hal_Hwi_initStack                                            
00012d0b  xdc_runtime_System_Module_startup__E                                    
00012d11  ti_sysbios_knl_Semaphore_pendTimeout__I                                 
00012d43  strncpy                                                                 
00012d75  _Feraise                                                                
00012da5  ti_sdo_utils_List_construct                                             
00012dd5  ti_sysbios_BIOS_atExitFunc__I                                           
00012e05  ti_sysbios_BIOS_errorRaiseHook__I                                       
00012e35  ti_sysbios_BIOS_rtsLock__I                                              
00012e65  ti_sysbios_gates_GateMutexPri_construct                                 
00012e95  ti_sysbios_knl_Queue_construct                                          
00012ec5  xdc_runtime_System_processAtExit__E                                     
00012ef5  __aeabi_i2d                                                             
00012f23  raise                                                                   
00012f51  ti_sysbios_heaps_HeapBuf_getStats__E                                    
00012f7f  xdc_runtime_System_sprintf__E                                           
00012fd9  ti_ipc_transports_TransportRpmsg_Params__init__S                        
00013005  ti_sdo_ipc_MessageQ_Params__init__S                                     
00013031  ti_sysbios_BIOS_startFunc__I                                            
0001305c  ti_sdo_utils_NameServer_E_maxReached__C                                 
00013061  ti_sysbios_family_arm_m3_Hwi_Instance_finalize__E                       
0001308d  ti_sysbios_family_arm_m3_Hwi_Params__init__S                            
000130b9  ti_sysbios_gates_GateHwi_Params__init__S                                
000130e5  ti_sysbios_knl_Semaphore_Params__init__S                                
00013111  ti_sysbios_knl_Task_restore__E                                          
0001313d  ti_trace_SysMin_Module_startup__E                                       
00013169  xdc_runtime_Text_cordText__E                                            
00013195  _Dclass                                                                 
000131bf  ti_ipc_namesrv_NameServerRemoteRpmsg_get__E                             
000131e9  xdc_runtime_System_putchar__I                                           
00013215  ti_ipc_namesrv_NameServerRemoteRpmsg_Object__delete__S                  
0001323d  ti_ipc_namesrv_NameServerRemoteRpmsg_Object__next__S                    
00013265  ti_ipc_transports_TransportRpmsg_Object__delete__S                      
0001328d  ti_sdo_utils_NameServer_Object__next__S                                 
000132b4  ti_sdo_utils_NameServer_Instance_State_freeList__O                      
000132b9  ti_sysbios_family_arm_ducati_TimestampProvider_getFreq__E               
000132e1  ti_sysbios_gates_GateMutexPri_Object__delete__S                         
00013309  ti_sysbios_gates_GateMutex_Object__delete__S                            
00013331  ti_sysbios_heaps_HeapBuf_Object__delete__S                              
00013359  ti_sysbios_knl_Semaphore_Object__delete__S                              
00013381  ti_sysbios_knl_Swi_Object__delete__S                                    
000133a9  ti_sysbios_syncs_SyncSem_Object__delete__S                              
000133d1  ti_sysbios_xdcruntime_GateThreadSupport_Object__delete__S               
000133f9  xdc_runtime_System_aprintf__E                                           
00013421  xdc_runtime_System_printf__E                                            
00013449  xdc_runtime_knl_GateThread_Object__delete__S                            
00013471  xdc_runtime_System_avprintf__E                                          
00013497  xdc_runtime_knl_GateThread_Proxy_Object__create__S                      
000134bd  ti_deh_Watchdog_taskSwitch__F                                           
000134e1  ti_ipc_namesrv_NameServerRemoteRpmsg_Object__first__S                   
00013505  ti_sdo_utils_NameServer_Object__first__S                                
00013529  ti_sysbios_BIOS_registerRTSLock__I                                      
0001354d  ti_sysbios_family_arm_ducati_GateDualCore_Object__delete__S             
00013571  ti_sysbios_family_arm_m3_Hwi_doTaskRestore__I                           
00013595  ti_sysbios_gates_GateHwi_Object__delete__S                              
000135b9  ti_sysbios_gates_GateSwi_Object__delete__S                              
000135dd  ti_sysbios_heaps_HeapMem_Object__delete__S                              
00013601  ti_sysbios_knl_Task_Handle__label__S                                    
00013624  ti_sdo_utils_NameServer_Instance_State_nameList__O                      
00013629  ti_sysbios_timers_dmtimer_Timer_stub__E                                 
0001364d  xdc_runtime_LoggerSys_Object__delete__S                                 
00013671  xdc_runtime_LoggerSys_write4__E                                         
00013695  xdc_runtime_System_vprintf__E                                           
000136b9  frexp                                                                   
000136db  ti_deh_StackDbg_walkStack__E                                            
000136fd  ti_deh_Watchdog_swiPrehook__F                                           
0001371f  ti_ipc_namesrv_NameServerRemoteRpmsg_Handle__label__S                   
00013741  ti_ipc_transports_TransportRpmsg_Handle__label__S                       
00013763  ti_sysbios_family_arm_ducati_GateDualCore_Handle__label__S              
00013785  ti_sysbios_gates_GateHwi_Handle__label__S                               
000137a7  ti_sysbios_gates_GateMutexPri_Handle__label__S                          
000137c9  ti_sysbios_gates_GateMutex_Handle__label__S                             
000137eb  ti_sysbios_gates_GateSwi_Handle__label__S                               
0001380d  ti_sysbios_heaps_HeapBuf_Handle__label__S                               
0001382f  ti_sysbios_heaps_HeapMem_Handle__label__S                               
00013851  ti_sysbios_knl_Swi_Handle__label__S                                     
00013873  ti_sysbios_syncs_SyncSem_Handle__label__S                               
00013895  xdc_runtime_LoggerSys_Handle__label__S                                  
000138b7  xdc_runtime_Registry_findByNameInList__I                                
000138d9  xdc_runtime_knl_GateThread_Handle__label__S                             
000138fb  xdc_runtime_knl_GateThread_Proxy_create                                 
0001391d  ti_deh_Deh_Module_startup__E                                            
0001393d  ti_deh_Watchdog_idleBegin__F                                            
0001395d  ti_sysbios_BIOS_removeRTSLock__I                                        
0001397c  ti_sdo_utils_NameServer_Module__diagsEnabled__C                         
00013981  ti_sysbios_family_arm_m3_Hwi_clearInterrupt__E                          
000139a1  ti_sysbios_family_arm_m3_Hwi_excHandlerAsm__I                           
000139c1  ti_sysbios_family_arm_m3_Hwi_excHandler__I                              
000139e1  ti_sysbios_gates_GateMutexPri_Object__destruct__S                       
00013a01  ti_sysbios_hal_Cache_CacheProxy_inv__E                                  
00013a01  ti_sysbios_hal_Cache_inv__E                                             
00013a21  ti_sysbios_knl_Idle_run__E                                              
00013a41  ti_sysbios_knl_Semaphore_Object__destruct__S                            
00013a61  ti_sysbios_timers_dmtimer_Timer_getFreq__E                              
00013a81  ti_trace_SysMin_exit__E                                                 
00013ac1  xdc_runtime_LoggerSys_write2__E                                         
00013ae1  xdc_runtime_Registry_findById__E                                        
00013b01  xdc_runtime_Text_visitRope__I                                           
00013b21  ti_sysbios_family_xxx_Hwi_switchAndRunFunc                              
00013b3f  ti_sysbios_knl_Task_SupportProxy_start__E                               
00013b5d  xdc_runtime_LoggerSys_write0__E                                         
00013b7b  xdc_runtime_LoggerSys_write1__E                                         
00013b99  xdc_runtime_Memory_HeapProxy_alloc__E                                   
00013bb7  memccpy                                                                 
00013bd3  xdc_runtime_knl_GateThread_enter__E                                     
00013bd9  ti_sdo_ipc_family_vayu_InterruptIpu_intShmMbxStub__I                    
00013bf5  ti_sdo_utils_List_Object__destruct__S                                   
00013c11  ti_sdo_utils_NameServer_Module__startupDone__F                          
00013c2d  ti_sysbios_family_arm_ducati_Timer_Module__startupDone__F               
00013c49  ti_sysbios_family_arm_ducati_Wugen_Module__startupDone__F               
00013c65  ti_sysbios_family_arm_m3_Hwi_Module__startupDone__F                     
00013c81  ti_sysbios_family_shared_vayu_TimerSupport_Module__startupDone__F       
00013c9c  ti_sdo_utils_NameServer_Module__diagsIncluded__C                        
00013ca1  ti_sysbios_gates_GateMutexPri_Instance_init__E                          
00013cbc  ti_sdo_utils_NameServer_Module__diagsMask__C                            
00013cc1  ti_sysbios_gates_GateMutex_Instance_init__E                             
00013cdd  ti_sysbios_knl_Queue_Object__destruct__S                                
00013cf9  ti_sysbios_knl_Task_enter__I                                            
00013d15  ti_sysbios_timers_dmtimer_Timer_Module__startupDone__F                  
00013d31  xdc_runtime_Error_raiseX__E                                             
00013d4d  xdc_runtime_Memory_valloc__E                                            
00013d69  xdc_runtime_Startup_exec__I                                             
00013d85  xdc_runtime_System_abort__E                                             
00013da1  ti_sysbios_family_arm_m3_Hwi_pendSV__I                                  
00013db9  ti_sysbios_family_arm_m3_Hwi_return                                     
00013dd5  _args_main                                                              
00013ded  strcmp                                                                  
00013e05  ti_sdo_ipc_MessageQ_registerTransport__E                                
00013e1d  ti_sdo_ipc_family_vayu_NotifySetup_plugHwi__E                           
00013e34  ti_sdo_utils_NameServer_Object__count__C                                
00013e39  ti_sysbios_gates_GateMutex_leave__E                                     
00013e51  xdc_runtime_Error_check__E                                              
00013e69  xdc_runtime_System_exit__E                                              
00013e81  xdc_runtime_Text_ropeText__E                                            
00013e99  strchr                                                                  
00013eaf  ti_sysbios_BIOS_exitFunc__I                                             
00013f07  xdc_runtime_System_vsprintf__E                                          
00013f1d  xdc_runtime_knl_GateThread_Instance_init__E                             
00013f35  _register_unlock                                                        
00013f3b  _register_lock                                                          
00013f43  _nop                                                                    
00013f49  strlen                                                                  
00013f5d  ti_sdo_ipc_MessageQ_unregisterTransport__E                              
00013f71  ti_sysbios_family_arm_m3_Hwi_switchFromBootStack__E                     
00013f85  ti_sysbios_hal_Hwi_HwiProxy_getStackInfo__E                             
00013f85  ti_sysbios_hal_Hwi_getStackInfo__E                                      
00013fac  ti_sdo_utils_NameServer_Object__table__C                                
00013fb1  ti_sysbios_xdcruntime_GateThreadSupport_Instance_init__E                
00013fc5  xdc_runtime_Memory_HeapProxy_free__E                                    
00013fd9  ti_sysbios_family_shared_vayu_TimerSupport_Module_startup__E            
00013feb  xdc_runtime_knl_GateThread_leave__E                                     
00013ff1  ti_sysbios_hal_Hwi_Module_startup__E                                    
00014004  ti_sysbios_BIOS_installedErrorHook__C                                   
00014009  ti_sysbios_hal_Timer_Module_startup__E                                  
0001401c  ti_sysbios_family_arm_ducati_Core_E_mismatchedIds__C                    
00014021  ti_sysbios_knl_Clock_Module_startup__E                                  
00014033  xdc_runtime_System_putch__E                                             
00014045  ti_deh_Deh_excHandler__E                                                
00014055  ti_deh_Watchdog_taskSwitch__E                                           
00014064  ti_sysbios_family_arm_ducati_Core_id__C                                 
00014069  ti_sdo_ipc_family_vayu_NotifySetup_interruptTable__F                    
00014079  ti_sdo_utils_MultiProc_getClusterId__E                                  
00014089  ti_sdo_utils_MultiProc_getClusterId__F                                  
00014099  ti_sysbios_BIOS_RtsGateProxy_leave__E                                   
000140a9  ti_sysbios_BIOS_setThreadType__E                                        
000140b9  ti_sysbios_BIOS_start__E                                                
000140c9  ti_sysbios_family_arm_m3_TaskSupport_glue                               
000140d9  ti_sysbios_family_arm_m3_TaskSupport_swap__E                            
000140e1  ti_sysbios_knl_Task_swapReturn                                          
000140e9  ti_sysbios_gates_GateMutexPri_Instance_finalize__E                      
000140f9  ti_sysbios_gates_GateMutex_Instance_finalize__E                         
00014109  ti_sysbios_hal_unicache_Cache_Module_GateProxy_leave__E                 
00014119  ti_sysbios_heaps_HeapBuf_Instance_finalize__E                           
00014129  ti_sysbios_heaps_HeapMem_Module_GateProxy_leave__E                      
00014139  ti_sysbios_knl_Semaphore_Instance_finalize__E                           
00014149  ti_sysbios_knl_Swi_disable__E                                           
00014159  ti_sysbios_knl_Task_SupportProxy_checkStack__E                          
00014169  ti_sysbios_knl_Task_SupportProxy_swap__E                                
00014179  ti_sysbios_knl_Task_disable__E                                          
00014199  ti_sysbios_timers_dmtimer_Timer_TimerSupportProxy_enable__E             
000141a9  ti_sysbios_xdcruntime_GateThreadSupport_Instance_finalize__E            
000141b9  ti_sysbios_xdcruntime_GateThreadSupport_enter__E                        
000141c9  ti_sysbios_xdcruntime_GateThreadSupport_leave__E                        
000141d9  ti_trace_SysMin_ready__E                                                
000141e9  xdc_runtime_Gate_leaveSystem__E                                         
000141f9  xdc_runtime_Memory_free__E                                              
00014209  xdc_runtime_System_Module_GateProxy_leave__E                            
00014219  xdc_runtime_System_SupportProxy_putch__E                                
00014229  xdc_runtime_System_vsnprintf__E                                         
00014239  xdc_runtime_knl_GateThread_Proxy_leave__E                               
00014249  __TI_decompress_none                                                    
00014259  ti_sysbios_knl_Idle_loop__E                                             
00014269  ti_sysbios_knl_Queue_empty__E                                           
00014279  MultiProc_self                                                          
00014285  __TI_zero_init                                                          
00014291  ti_deh_Watchdog_init__E                                                 
0001429d  ti_deh_Watchdog_isException__E                                          
000142a9  ti_deh_Watchdog_swiPrehook__E                                           
000142b5  ti_ipc_namesrv_NameServerRemoteRpmsg_delete                             
000142c1  ti_ipc_remoteproc_Resource_Module_startup__E                            
000142cd  ti_sdo_ipc_family_vayu_NotifySetup_interruptTable__E                    
000142d9  ti_sdo_utils_List_destruct                                              
000142e5  ti_sysbios_BIOS_RtsGateProxy_enter__E                                   
000142f1  ti_sysbios_BIOS_getThreadType__E                                        
000142fc  ti_sysbios_family_arm_ducati_Core_ipuId__C                              
00014301  ti_sysbios_family_arm_ducati_Core_getId__E                              
0001430c  ti_sysbios_family_arm_ducati_GateDualCore_A_nestedEnter__C              
00014311  ti_sysbios_family_arm_ducati_Core_startCore1__I                         
0001431c  ti_sysbios_family_arm_ducati_GateDualCore_E_gateInUse__C                
00014321  ti_sysbios_family_arm_ducati_GateDualCore_leave__E                      
0001432c  ti_sysbios_family_arm_ducati_GateDualCore_E_invalidIndex__C             
00014331  ti_sysbios_family_arm_m3_Hwi_disableFxn__E                              
0001433c  ti_sysbios_family_arm_ducati_GateDualCore_Module__diagsEnabled__C       
00014341  ti_sysbios_family_arm_m3_TaskSupport_checkStack__E                      
0001434c  ti_sysbios_family_arm_ducati_GateDualCore_Module__diagsIncluded__C      
00014351  ti_sysbios_family_arm_m3_TaskSupport_getStackAlignment__E               
0001435d  ti_sysbios_gates_GateHwi_delete                                         
00014369  ti_sysbios_gates_GateHwi_enter__E                                       
00014375  ti_sysbios_gates_GateMutexPri_destruct                                  
00014381  ti_sysbios_gates_GateSwi_query__E                                       
0001438d  ti_sysbios_hal_Hwi_HwiProxy_clearInterrupt__E                           
0001438d  ti_sysbios_hal_Hwi_clearInterrupt__E                                    
00014399  ti_sysbios_hal_Hwi_HwiProxy_disableInterrupt__E                         
00014399  ti_sysbios_hal_Hwi_disableInterrupt__E                                  
000143a5  ti_sysbios_hal_Hwi_HwiProxy_enableInterrupt__E                          
000143a5  ti_sysbios_hal_Hwi_enableInterrupt__E                                   
000143b1  ti_sysbios_hal_unicache_Cache_Module_GateProxy_enter__E                 
000143bd  ti_sysbios_heaps_HeapMem_Module_GateProxy_enter__E                      
000143c9  ti_sysbios_heaps_HeapMem_Module_GateProxy_query__E                      
000143d4  ti_sysbios_family_arm_ducati_GateDualCore_Module__diagsMask__C          
000143d9  ti_sysbios_knl_Clock_getTicks__E                                        
000143e5  ti_sysbios_knl_Queue_destruct                                           
000143f1  ti_sysbios_knl_Semaphore_delete                                         
000143fd  ti_sysbios_knl_Semaphore_destruct                                       
00014409  ti_sysbios_knl_Swi_delete                                               
00014414  ti_sysbios_family_arm_ducati_GateDualCore_Object__count__C              
00014419  ti_sysbios_knl_Swi_self__E                                              
00014424  ti_sysbios_family_arm_ducati_GateDualCore_Object__table__C              
00014429  ti_sysbios_knl_Task_self__E                                             
00014434  ti_sysbios_family_arm_ducati_GateDualCore_numGates__C                   
00014439  ti_sysbios_syncs_SyncSem_Instance_finalize__E                           
00014445  ti_sysbios_syncs_SyncSem_delete                                         
0001445d  xdc_runtime_Error_init__E                                               
00014469  xdc_runtime_Gate_enterSystem__E                                         
00014475  xdc_runtime_LoggerSys_TimestampProxy_get64__E                           
00014481  xdc_runtime_Memory_calloc__E                                            
0001448d  xdc_runtime_Memory_getMaxDefaultTypeAlign__E                            
00014499  xdc_runtime_Registry_findByName__E                                      
000144a5  xdc_runtime_System_Module_GateProxy_enter__E                            
000144b1  xdc_runtime_System_SupportProxy_abort__E                                
000144bd  xdc_runtime_System_SupportProxy_exit__E                                 
000144c9  xdc_runtime_Timestamp_SupportProxy_getFreq__E                           
000144c9  xdc_runtime_Timestamp_getFreq__E                                        
000144d5  xdc_runtime_knl_GateThread_Instance_finalize__E                         
000144e1  xdc_runtime_knl_GateThread_Proxy_Object__delete__S                      
000144ed  xdc_runtime_knl_GateThread_Proxy_delete                                 
000144f9  xdc_runtime_knl_GateThread_Proxy_enter__E                               
00014505  xdc_runtime_knl_GateThread_Proxy_query__E                               
00014505  xdc_runtime_knl_GateThread_query__E                                     
00014511  VirtQueue_postCrashToMailbox                                            
0001451c  ti_sysbios_family_arm_ducati_Timer_E_cannotSupport__C                   
00014521  ti_sysbios_syncs_SyncSem_query__E                                       
0001452b  xdc_runtime_LoggerSys_disable__E                                        
00014535  xdc_runtime_LoggerSys_enable__E                                         
0001453f  ti_deh_Deh_idleBegin__E                                                 
00014547  ti_deh_Deh_idleBegin__F                                                 
0001454f  ti_deh_Watchdog_idleBegin__E                                            
00014557  ti_sdo_utils_NameServer_Module__startupDone__S                          
0001455f  ti_sysbios_family_arm_ducati_Timer_Module__startupDone__S               
00014567  ti_sysbios_family_arm_ducati_Wugen_Module__startupDone__S               
0001456f  ti_sysbios_family_arm_m3_Hwi_Module__startupDone__S                     
00014579  ti_sysbios_family_arm_m3_Hwi_doSwiRestore__I                            
00014581  ti_sysbios_family_arm_m3_Hwi_startup__E                                 
00014589  ti_sysbios_family_shared_vayu_TimerSupport_Module__startupDone__S       
00014591  ti_sysbios_hal_Cache_CacheProxy_wbAll__E                                
00014591  ti_sysbios_hal_Cache_wbAll__E                                           
00014599  ti_sysbios_hal_Core_CoreProxy_getId__E                                  
000145a1  ti_sysbios_hal_Hwi_HwiProxy_Module__startupDone__S                      
000145a9  ti_sysbios_hal_Hwi_HwiProxy_startup__E                                  
000145a9  ti_sysbios_hal_Hwi_startup__E                                           
000145b1  ti_sysbios_hal_Hwi_HwiProxy_switchFromBootStack__E                      
000145b1  ti_sysbios_hal_Hwi_switchFromBootStack__E                               
000145b9  ti_sysbios_hal_Timer_TimerProxy_Module__startupDone__S                  
000145c1  ti_sysbios_knl_Clock_TimerProxy_Module__startupDone__S                  
000145c9  ti_sysbios_knl_Task_SupportProxy_Module__startupDone__S                 
000145d1  ti_sysbios_knl_Task_SupportProxy_getStackAlignment__E                   
000145d9  ti_sysbios_timers_dmtimer_Timer_Module__startupDone__S                  
000145e1  ti_sysbios_timers_dmtimer_Timer_TimerSupportProxy_Module__startupDone__S
000145e9  xdc_runtime_Startup_reset__I                                            
000145f1  xdc_runtime_System_SupportProxy_ready__E                                
000145f9  xdc_runtime_Timestamp_SupportProxy_get32__E                             
000145f9  xdc_runtime_Timestamp_get32__E                                          
00014601  ti_ipc_namesrv_NameServerRemoteRpmsg_Instance_finalize__E               
00014609  ti_sdo_utils_List_Instance_init__E                                      
00014611  ti_sysbios_family_arm_ducati_Wugen_Module_startup__E                    
00014619  ti_sysbios_family_arm_m3_Hwi_restoreFxn__E                              
00014621  ti_sysbios_gates_GateHwi_leave__E                                       
00014629  ti_sysbios_heaps_HeapMem_isBlocking__E                                  
00014631  ti_sysbios_knl_Queue_Instance_init__E                                   
00014639  ti_sysbios_syncs_SyncSem_signal__E                                      
00014641  MessageQ_getQueueId                                                     
00014644  ti_sysbios_family_arm_ducati_Timer_startupNeeded__C                     
00014649  ti_ipc_namesrv_NameServerRemoteRpmsg_sharedMemReq__E                    
0001464c  ti_sysbios_family_arm_m3_Hwi_E_NMI__C                                   
00014651  ti_ipc_transports_TransportRpmsg_control__E                             
00014654  ti_sysbios_family_arm_m3_Hwi_E_alreadyDefined__C                        
00014659  ti_ipc_transports_TransportRpmsg_getStatus__E                           
0001465c  ti_sysbios_family_arm_m3_Hwi_E_busFault__C                              
00014661  ti_sysbios_family_arm_ducati_GateDualCore_query__E                      
00014664  ti_sysbios_family_arm_m3_Hwi_E_debugMon__C                              
00014669  ti_sysbios_gates_GateHwi_query__E                                       
0001466c  ti_sysbios_family_arm_m3_Hwi_E_hardFault__C                             
00014671  ti_sysbios_gates_GateMutexPri_query__E                                  
00014671  ti_sysbios_xdcruntime_GateThreadSupport_query__E                        
00014674  ti_sysbios_family_arm_m3_Hwi_E_memFault__C                              
00014679  ti_sysbios_gates_GateMutex_query__E                                     
0001467c  ti_sysbios_family_arm_m3_Hwi_E_noIsr__C                                 
00014681  ti_sysbios_heaps_HeapBuf_isBlocking__E                                  
00014684  ti_sysbios_family_arm_m3_Hwi_E_reserved__C                              
00014689  ti_sysbios_knl_Task_startup__E                                          
0001468c  ti_sysbios_family_arm_m3_Hwi_E_svCall__C                                
00014691  ti_ipc_transports_TransportRpmsg_setErrFxn__E                           
00014694  ti_sysbios_family_arm_m3_Hwi_E_usageFault__C                            
00014699  ti_sysbios_gates_GateHwi_Instance_init__E                               
0001469c  ti_sysbios_family_arm_m3_Hwi_LD_end__C                                  
000146a1  ti_sysbios_gates_GateSwi_Instance_init__E                               
000146a4  xdc_runtime_Text_charTab__A                                             
000170f9  ti_sdo_utils_MultiProc_procAddrMode__C                                  
000170fa  ti_ipc_namesrv_NameServerRemoteRpmsg_Module__id__C                      
000170fc  ti_sysbios_hal_ammu_AMMU_mmuInitConfig__C                               
000175b4  ti_sdo_ipc_family_vayu_InterruptIpu_mailboxTable__C                     
00017798  ti_sdo_ipc_family_vayu_NotifySetup_mailboxTable__C                      
0001797c  xdc_runtime_Text_nodeTab__A                                             
00017b04  _ctypes_                                                                
00017c05  ti_sysbios_family_arm_ducati_TimestampProvider_inpsel__C                
00017c06  ti_ipc_namesrv_NameServerRemoteRpmsg_Module__loggerDefined__C           
00017c84  xdc_runtime_Startup_sfxnTab__A                                          
00017cd8  ti_sdo_ipc_family_vayu_InterruptIpu_mailboxBaseAddr__C                  
00017d18  ti_sdo_ipc_family_vayu_NotifySetup_mailboxBaseAddr__C                   
00017d58  ti_sysbios_knl_Task_Object__PARAMS__C                                   
00017d94  xdc_runtime_LoggerSys_Module__FXNS__C                                   
00017dc8  ti_sysbios_family_arm_m3_Hwi_Object__PARAMS__C                          
00017df8  ti_sdo_ipc_family_vayu_InterruptIpu_procIdTable__C                      
00017e24  ti_sdo_ipc_family_vayu_NotifySetup_procIdTable__C                       
00017e50  ti_sysbios_heaps_HeapBuf_Object__PARAMS__C                              
00017e7c  xdc_runtime_Startup_sfxnRts__A                                          
00017ea6  ti_ipc_transports_TransportRpmsgSetup_Module__id__C                     
00017ea8  ti_ipc_namesrv_NameServerRemoteRpmsg_Module__FXNS__C                    
00017ed0  ti_ipc_transports_TransportRpmsg_Module__FXNS__C                        
00017ef8  ti_sysbios_heaps_HeapBuf_Module__FXNS__C                                
00017f20  ti_sysbios_heaps_HeapMem_Module__FXNS__C                                
00017f48  ti_sysbios_knl_Swi_Object__PARAMS__C                                    
00017f70  ti_sysbios_family_arm_ducati_GateDualCore_Module__FXNS__C               
00017f94  ti_sysbios_gates_GateHwi_Module__FXNS__C                                
00017fb8  ti_sysbios_gates_GateMutexPri_Module__FXNS__C                           
00017fdc  ti_sysbios_gates_GateMutex_Module__FXNS__C                              
00018000  ti_sysbios_gates_GateSwi_Module__FXNS__C                                
00018024  ti_sysbios_heaps_HeapMem_Object__PARAMS__C                              
00018048  ti_sysbios_knl_Semaphore_Object__PARAMS__C                              
0001806c  ti_sysbios_syncs_SyncSem_Module__FXNS__C                                
00018090  xdc_runtime_knl_GateThread_Module__FXNS__C                              
000180b4  ti_ipc_namesrv_NameServerRemoteRpmsg_Object__DESC__C                    
000180d4  ti_ipc_transports_TransportRpmsg_Object__DESC__C                        
000180f4  ti_ipc_transports_TransportRpmsg_Object__PARAMS__C                      
00018114  ti_sdo_ipc_MessageQ_Object__DESC__C                                     
00018134  ti_sdo_ipc_MessageQ_Object__PARAMS__C                                   
00018154  ti_sdo_utils_List_Object__DESC__C                                       
00018174  ti_sysbios_family_arm_ducati_GateDualCore_Object__DESC__C               
00018194  ti_sysbios_family_arm_m3_Hwi_Object__DESC__C                            
000181b4  ti_sysbios_gates_GateHwi_Object__DESC__C                                
000181d4  ti_sysbios_gates_GateMutexPri_Object__DESC__C                           
000181f4  ti_sysbios_gates_GateMutex_Object__DESC__C                              
00018214  ti_sysbios_gates_GateSwi_Object__DESC__C                                
00018234  ti_sysbios_heaps_HeapBuf_Object__DESC__C                                
00018254  ti_sysbios_heaps_HeapMem_Object__DESC__C                                
00018274  ti_sysbios_knl_Queue_Object__DESC__C                                    
00018294  ti_sysbios_knl_Semaphore_Object__DESC__C                                
000182b4  ti_sysbios_knl_Swi_Object__DESC__C                                      
000182d4  ti_sysbios_knl_Task_Object__DESC__C                                     
000182f4  ti_sysbios_syncs_SyncSem_Object__DESC__C                                
00018314  ti_sysbios_xdcruntime_GateThreadSupport_Object__DESC__C                 
00018334  xdc_runtime_LoggerSys_Object__DESC__C                                   
00018354  xdc_runtime_knl_GateThread_Object__DESC__C                              
00018374  ti_sysbios_family_arm_ducati_GateDualCore_Object__PARAMS__C             
00018390  ti_sysbios_syncs_SyncSem_Object__PARAMS__C                              
000183ac  ti_ipc_namesrv_NameServerRemoteRpmsg_Object__PARAMS__C                  
000183c4  ti_sdo_utils_List_Object__PARAMS__C                                     
000183dc  ti_sysbios_gates_GateHwi_Object__PARAMS__C                              
000183f4  ti_sysbios_gates_GateMutexPri_Object__PARAMS__C                         
0001840c  ti_sysbios_gates_GateMutex_Object__PARAMS__C                            
00018424  ti_sysbios_gates_GateSwi_Object__PARAMS__C                              
0001843c  ti_sysbios_knl_Queue_Object__PARAMS__C                                  
00018454  ti_sysbios_knl_Swi_hooks__A                                             
0001846c  ti_sysbios_knl_Task_hooks__A                                            
00018484  ti_sysbios_xdcruntime_GateThreadSupport_Object__PARAMS__C               
0001849c  xdc_runtime_LoggerSys_Object__PARAMS__C                                 
000184b4  xdc_runtime_knl_GateThread_Object__PARAMS__C                            
000184cc  ti_sdo_utils_MultiProc_nameList__A                                      
00018503  xdc_runtime_Error_policy__C                                             
00018504  xdc_runtime_Startup_firstFxns__A                                        
00018514  ti_sysbios_knl_Idle_funcList__A                                         
00018520  ti_ipc_rpmsg_RPMessage_messageBufferSize                                
00018524  ti_ipc_rpmsg_RPMessage_heap                                             
00018528  ti_sysbios_knl_Idle_funcList__C                                         
00018530  ti_sysbios_knl_Swi_hooks__C                                             
00018538  ti_sysbios_knl_Task_hooks__C                                            
00018540  xdc_runtime_Startup_firstFxns__C                                        
00018548  xdc_runtime_Startup_lastFxns__C                                         
00018550  ti_sysbios_family_arm_m3_Hwi_LM_begin__C                                
00018554  ti_sysbios_family_arm_m3_Hwi_Module__diagsEnabled__C                    
00018558  ti_sysbios_family_arm_m3_Hwi_Module__diagsIncluded__C                   
0001855c  ti_sysbios_family_arm_m3_Hwi_Module__diagsMask__C                       
00018560  ti_sysbios_family_arm_m3_Hwi_Module__loggerFxn1__C                      
00018564  ti_sysbios_family_arm_m3_Hwi_Module__loggerFxn8__C                      
00018568  ti_sysbios_family_arm_m3_Hwi_Module__loggerObj__C                       
0001856c  ti_sysbios_family_arm_m3_Hwi_NUM_INTERRUPTS__C                          
00018570  ti_sysbios_family_arm_m3_Hwi_Object__count__C                           
00018574  ti_sysbios_family_arm_m3_Hwi_Object__table__C                           
00018578  ti_sysbios_family_arm_m3_Hwi_ccr__C                                     
0001857c  ti_sysbios_family_arm_m3_Hwi_excHandlerFunc__C                          
00018580  ti_sysbios_family_arm_m3_Hwi_nullIsrFunc__C                             
00018584  ti_sysbios_family_arm_m3_Hwi_priGroup__C                                
00018588  ti_sysbios_family_arm_m3_TaskSupport_stackAlignment__C                  
0001858c  ti_sysbios_family_shared_vayu_IntXbar_A_badBenelliIpuId__C              
00018590  ti_sysbios_family_shared_vayu_IntXbar_A_badBenelliXbarInstanceNum__C    
00018594  ti_sysbios_family_shared_vayu_IntXbar_A_badIntSourceIdx__C              
00018598  ti_sysbios_family_shared_vayu_IntXbar_Module__diagsEnabled__C           
0001859c  ti_sysbios_family_shared_vayu_IntXbar_Module__diagsIncluded__C          
000185a0  ti_sysbios_family_shared_vayu_IntXbar_Module__diagsMask__C              
000185a4  ti_sysbios_family_shared_vayu_IntXbar_mmrBaseAddr__C                    
000185a8  ti_sysbios_gates_GateMutexPri_A_badContext__C                           
000185ac  ti_sysbios_gates_GateMutexPri_A_enterTaskDisabled__C                    
000185b0  ti_sysbios_gates_GateMutexPri_Instance_State_pendQ__O                   
000185b4  ti_sysbios_gates_GateMutexPri_Module__diagsEnabled__C                   
000185b8  ti_sysbios_gates_GateMutexPri_Module__diagsIncluded__C                  
000185bc  ti_sysbios_gates_GateMutexPri_Module__diagsMask__C                      
000185c0  ti_sysbios_gates_GateMutex_A_badContext__C                              
000185c4  ti_sysbios_gates_GateMutex_Instance_State_sem__O                        
000185c8  ti_sysbios_gates_GateMutex_Module__diagsEnabled__C                      
000185cc  ti_sysbios_gates_GateMutex_Module__diagsIncluded__C                     
000185d0  ti_sysbios_gates_GateMutex_Module__diagsMask__C                         
000185d4  ti_sysbios_gates_GateSwi_A_badContext__C                                
000185d8  ti_sysbios_gates_GateSwi_Module__diagsEnabled__C                        
000185dc  ti_sysbios_gates_GateSwi_Module__diagsIncluded__C                       
000185e0  ti_sysbios_gates_GateSwi_Module__diagsMask__C                           
000185e4  ti_sysbios_hal_Hwi_E_stackOverflow__C                                   
000185e8  ti_sysbios_hal_ammu_AMMU_numLargePages__C                               
000185ec  ti_sysbios_hal_ammu_AMMU_numLinePages__C                                
000185f0  ti_sysbios_hal_ammu_AMMU_numMediumPages__C                              
000185f4  ti_sysbios_hal_ammu_AMMU_numSmallPages__C                               
000185f8  ti_sysbios_hal_unicache_Cache_Module__gateObj__C                        
000185fc  ti_sysbios_hal_unicache_Cache_l1ocpConfig__C                            
00018600  ti_sysbios_hal_unicache_Cache_l1secConfig__C                            
00018604  ti_sysbios_hal_unicache_Cache_l2ocpConfig__C                            
00018608  ti_sysbios_hal_unicache_Cache_l2secConfig__C                            
0001860c  ti_sysbios_hal_unicache_Cache_maxLineModeBufSize__C                     
00018610  ti_sysbios_heaps_HeapBuf_A_bufAlign__C                                  
00018614  ti_sysbios_heaps_HeapBuf_A_invalidAlign__C                              
00018618  ti_sysbios_heaps_HeapBuf_A_invalidBufSize__C                            
0001861c  ti_sysbios_heaps_HeapBuf_A_invalidFree__C                               
00018620  ti_sysbios_heaps_HeapBuf_A_invalidRequestedAlign__C                     
00018624  ti_sysbios_heaps_HeapBuf_A_noBlocksToFree__C                            
00018628  ti_sysbios_heaps_HeapBuf_A_nullBuf__C                                   
0001862c  ti_sysbios_heaps_HeapBuf_A_zeroBlockSize__C                             
00018630  ti_sysbios_heaps_HeapBuf_A_zeroBlocks__C                                
00018634  ti_sysbios_heaps_HeapBuf_A_zeroBufSize__C                               
00018638  ti_sysbios_heaps_HeapBuf_E_size__C                                      
0001863c  ti_sysbios_heaps_HeapBuf_Instance_State_freeList__O                     
00018640  ti_sysbios_heaps_HeapBuf_Module__diagsEnabled__C                        
00018644  ti_sysbios_heaps_HeapBuf_Module__diagsIncluded__C                       
00018648  ti_sysbios_heaps_HeapBuf_Module__diagsMask__C                           
0001864c  ti_sysbios_heaps_HeapBuf_Object__count__C                               
00018650  ti_sysbios_heaps_HeapBuf_Object__table__C                               
00018654  ti_sysbios_heaps_HeapBuf_numConstructedHeaps__C                         
00018658  ti_sysbios_heaps_HeapMem_A_align__C                                     
0001865c  ti_sysbios_heaps_HeapMem_A_heapSize__C                                  
00018660  ti_sysbios_heaps_HeapMem_A_invalidFree__C                               
00018664  ti_sysbios_heaps_HeapMem_A_zeroBlock__C                                 
00018668  ti_sysbios_heaps_HeapMem_E_memory__C                                    
0001866c  ti_sysbios_heaps_HeapMem_Module__diagsEnabled__C                        
00018670  ti_sysbios_heaps_HeapMem_Module__diagsIncluded__C                       
00018674  ti_sysbios_heaps_HeapMem_Module__diagsMask__C                           
00018678  ti_sysbios_heaps_HeapMem_Module__gateObj__C                             
0001867c  ti_sysbios_heaps_HeapMem_Object__count__C                               
00018680  ti_sysbios_heaps_HeapMem_Object__table__C                               
00018684  ti_sysbios_heaps_HeapMem_reqAlign__C                                    
00018688  ti_sysbios_knl_Clock_LM_begin__C                                        
0001868c  ti_sysbios_knl_Clock_LM_tick__C                                         
00018690  ti_sysbios_knl_Clock_LW_delayed__C                                      
00018694  ti_sysbios_knl_Clock_Module_State_clockQ__O                             
00018698  ti_sysbios_knl_Clock_Module__diagsEnabled__C                            
0001869c  ti_sysbios_knl_Clock_Module__diagsIncluded__C                           
000186a0  ti_sysbios_knl_Clock_Module__diagsMask__C                               
000186a4  ti_sysbios_knl_Clock_Module__loggerFxn1__C                              
000186a8  ti_sysbios_knl_Clock_Module__loggerFxn2__C                              
000186ac  ti_sysbios_knl_Clock_Module__loggerObj__C                               
000186b0  ti_sysbios_knl_Clock_tickPeriod__C                                      
000186b4  ti_sysbios_knl_Queue_Object__count__C                                   
000186b8  ti_sysbios_knl_Queue_Object__table__C                                   
000186bc  ti_sysbios_knl_Semaphore_A_badContext__C                                
000186c0  ti_sysbios_knl_Semaphore_A_noEvents__C                                  
000186c4  ti_sysbios_knl_Semaphore_A_overflow__C                                  
000186c8  ti_sysbios_knl_Semaphore_A_pendTaskDisabled__C                          
000186cc  ti_sysbios_knl_Semaphore_Instance_State_pendQ__O                        
000186d0  ti_sysbios_knl_Semaphore_LM_pend__C                                     
000186d4  ti_sysbios_knl_Semaphore_LM_post__C                                     
000186d8  ti_sysbios_knl_Semaphore_Module__diagsEnabled__C                        
000186dc  ti_sysbios_knl_Semaphore_Module__diagsIncluded__C                       
000186e0  ti_sysbios_knl_Semaphore_Module__diagsMask__C                           
000186e4  ti_sysbios_knl_Semaphore_Module__loggerFxn2__C                          
000186e8  ti_sysbios_knl_Semaphore_Module__loggerFxn4__C                          
000186ec  ti_sysbios_knl_Semaphore_Module__loggerObj__C                           
000186f0  ti_sysbios_knl_Swi_A_badPriority__C                                     
000186f4  ti_sysbios_knl_Swi_LD_end__C                                            
000186f8  ti_sysbios_knl_Swi_LM_begin__C                                          
000186fc  ti_sysbios_knl_Swi_LM_post__C                                           
00018700  ti_sysbios_knl_Swi_Module__diagsEnabled__C                              
00018704  ti_sysbios_knl_Swi_Module__diagsIncluded__C                             
00018708  ti_sysbios_knl_Swi_Module__diagsMask__C                                 
0001870c  ti_sysbios_knl_Swi_Module__loggerFxn1__C                                
00018710  ti_sysbios_knl_Swi_Module__loggerFxn4__C                                
00018714  ti_sysbios_knl_Swi_Module__loggerObj__C                                 
00018718  ti_sysbios_knl_Swi_Object__count__C                                     
0001871c  ti_sysbios_knl_Swi_Object__heap__C                                      
00018720  ti_sysbios_knl_Swi_Object__table__C                                     
00018724  ti_sysbios_knl_Swi_numConstructedSwis__C                                
00018728  ti_sysbios_knl_Task_A_badPriority__C                                    
0001872c  ti_sysbios_knl_Task_A_badTaskState__C                                   
00018730  ti_sysbios_knl_Task_A_badThreadType__C                                  
00018734  ti_sysbios_knl_Task_A_noPendElem__C                                     
00018738  ti_sysbios_knl_Task_E_spOutOfBounds__C                                  
0001873c  ti_sysbios_knl_Task_E_stackOverflow__C                                  
00018740  ti_sysbios_knl_Task_LD_block__C                                         
00018744  ti_sysbios_knl_Task_LD_exit__C                                          
00018748  ti_sysbios_knl_Task_LD_ready__C                                         
0001874c  ti_sysbios_knl_Task_LM_setPri__C                                        
00018750  ti_sysbios_knl_Task_LM_switch__C                                        
00018754  ti_sysbios_knl_Task_Module_State_inactiveQ__O                           
00018758  ti_sysbios_knl_Task_Module__diagsEnabled__C                             
0001875c  ti_sysbios_knl_Task_Module__diagsIncluded__C                            
00018760  ti_sysbios_knl_Task_Module__diagsMask__C                                
00018764  ti_sysbios_knl_Task_Module__loggerFxn2__C                               
00018768  ti_sysbios_knl_Task_Module__loggerFxn4__C                               
0001876c  ti_sysbios_knl_Task_Module__loggerObj__C                                
00018770  ti_sysbios_knl_Task_Object__count__C                                    
00018774  ti_sysbios_knl_Task_Object__heap__C                                     
00018778  ti_sysbios_knl_Task_Object__table__C                                    
0001877c  ti_sysbios_knl_Task_allBlockedFunc__C                                   
00018780  ti_sysbios_knl_Task_defaultStackHeap__C                                 
00018784  ti_sysbios_knl_Task_defaultStackSize__C                                 
00018788  ti_sysbios_knl_Task_numConstructedTasks__C                              
0001878c  ti_sysbios_syncs_SyncSem_Module__diagsEnabled__C                        
00018790  ti_sysbios_syncs_SyncSem_Module__diagsIncluded__C                       
00018794  ti_sysbios_syncs_SyncSem_Module__diagsMask__C                           
00018798  ti_sysbios_timers_dmtimer_Timer_E_cannotSupport__C                      
0001879c  ti_sysbios_timers_dmtimer_Timer_E_freqMismatch__C                       
000187a0  ti_sysbios_timers_dmtimer_Timer_Module__diagsEnabled__C                 
000187a4  ti_sysbios_timers_dmtimer_Timer_Module__diagsIncluded__C                
000187a8  ti_sysbios_timers_dmtimer_Timer_Module__diagsMask__C                    
000187ac  ti_sysbios_timers_dmtimer_Timer_Object__count__C                        
000187b0  ti_sysbios_timers_dmtimer_Timer_Object__table__C                        
000187b4  ti_sysbios_timers_dmtimer_Timer_numTimerDevices__C                      
000187b8  ti_sysbios_xdcruntime_GateThreadSupport_Instance_State_gate__O          
000187bc  ti_trace_SysMin_bufSize__C                                              
000187c0  xdc_runtime_Assert_E_assertFailed__C                                    
000187c4  xdc_runtime_Core_A_initializedParams__C                                 
000187c8  xdc_runtime_Core_Module__diagsEnabled__C                                
000187cc  xdc_runtime_Core_Module__diagsIncluded__C                               
000187d0  xdc_runtime_Core_Module__diagsMask__C                                   
000187d4  xdc_runtime_Error_E_generic__C                                          
000187d8  xdc_runtime_Error_E_memory__C                                           
000187dc  xdc_runtime_Error_Module__diagsEnabled__C                               
000187e0  xdc_runtime_Error_Module__diagsIncluded__C                              
000187e4  xdc_runtime_Error_Module__diagsMask__C                                  
000187e8  xdc_runtime_Error_Module__loggerFxn8__C                                 
000187ec  xdc_runtime_Error_Module__loggerObj__C                                  
000187f0  xdc_runtime_Error_policyFxn__C                                          
000187f4  xdc_runtime_Error_raiseHook__C                                          
000187f8  xdc_runtime_IGateProvider_Interface__BASE__C                            
000187fc  xdc_runtime_IHeap_Interface__BASE__C                                    
00018800  xdc_runtime_ILogger_Interface__BASE__C                                  
00018804  xdc_runtime_IModule_Interface__BASE__C                                  
00018808  xdc_runtime_Log_L_error__C                                              
0001880c  xdc_runtime_Main_Module__diagsEnabled__C                                
00018810  xdc_runtime_Main_Module__diagsIncluded__C                               
00018814  xdc_runtime_Main_Module__diagsMask__C                                   
00018818  xdc_runtime_Main_Module__loggerFxn2__C                                  
0001881c  xdc_runtime_Main_Module__loggerObj__C                                   
00018820  xdc_runtime_Memory_defaultHeapInstance__C                               
00018824  xdc_runtime_Registry_Module__diagsEnabled__C                            
00018828  xdc_runtime_Registry_Module__diagsIncluded__C                           
0001882c  xdc_runtime_Registry_Module__diagsMask__C                               
00018830  xdc_runtime_Registry_Module__loggerFxn1__C                              
00018834  xdc_runtime_Registry_Module__loggerFxn2__C                              
00018838  xdc_runtime_Registry_Module__loggerFxn4__C                              
0001883c  xdc_runtime_Registry_Module__loggerFxn8__C                              
00018840  xdc_runtime_Registry_Module__loggerObj__C                               
00018844  xdc_runtime_Startup_execImpl__C                                         
00018848  xdc_runtime_Startup_lastFxns__A                                         
0001884c  xdc_runtime_Startup_maxPasses__C                                        
00018850  xdc_runtime_Startup_sfxnRts__C                                          
00018854  xdc_runtime_Startup_sfxnTab__C                                          
00018858  xdc_runtime_Startup_startModsFxn__C                                     
0001885c  xdc_runtime_System_Module__gateObj__C                                   
00018860  xdc_runtime_System_abortFxn__C                                          
00018864  xdc_runtime_System_exitFxn__C                                           
00018868  xdc_runtime_System_extendFxn__C                                         
0001886c  xdc_runtime_System_maxAtexitHandlers__C                                 
00018870  xdc_runtime_Text_charTab__C                                             
00018874  xdc_runtime_Text_nameEmpty__C                                           
00018878  xdc_runtime_Text_nameStatic__C                                          
0001887c  xdc_runtime_Text_nameUnknown__C                                         
00018880  xdc_runtime_Text_nodeTab__C                                             
00018884  xdc_runtime_Text_visitRopeFxn__C                                        
00018888  xdc_runtime_knl_ISync_Interface__BASE__C                                
0001888c  ti_ipc_transports_TransportRpmsgSetup_Module__loggerDefined__C          
0001888e  ti_ipc_transports_TransportRpmsg_Module__id__C                          
00018890  ti_ipc_transports_TransportRpmsg_Module__loggerDefined__C               
00018892  ti_sdo_ipc_MessageQ_Module__id__C                                       
00018894  ti_sdo_ipc_MessageQ_Module__loggerDefined__C                            
00018896  ti_sdo_ipc_family_vayu_InterruptIpu_Module__id__C                       
00018898  ti_sdo_utils_MultiProc_Module__id__C                                    
0001889a  ti_sdo_utils_MultiProc_numProcessors__C                                 
0001889c  ti_sdo_utils_MultiProc_numProcsInCluster__C                             
0001889e  ti_sdo_utils_NameServer_Module__id__C                                   
000188a0  ti_sysbios_BIOS_smpEnabled__C                                           
000188a2  ti_sysbios_BIOS_swiEnabled__C                                           
000188a4  ti_sysbios_BIOS_taskEnabled__C                                          
000188a6  ti_sysbios_family_arm_ducati_Core_Module__id__C                         
000188a8  ti_sysbios_family_arm_ducati_GateDualCore_Module__id__C                 
000188aa  ti_sysbios_family_arm_ducati_GateDualCore_initGates__C                  
000188ac  ti_sysbios_family_arm_ducati_Timer_Module__id__C                        
000188ae  ti_sysbios_family_arm_m3_Hwi_Module__id__C                              
000188b0  ti_sysbios_family_arm_m3_Hwi_Module__loggerDefined__C                   
000188b2  ti_sysbios_family_shared_vayu_IntXbar_Module__id__C                     
000188b4  ti_sysbios_gates_GateMutexPri_Module__id__C                             
000188b6  ti_sysbios_gates_GateMutex_Module__id__C                                
000188b8  ti_sysbios_gates_GateSwi_Module__id__C                                  
000188ba  ti_sysbios_hal_Hwi_Module__id__C                                        
000188bc  ti_sysbios_hal_ammu_AMMU_configureAmmu__C                               
000188be  ti_sysbios_hal_unicache_Cache_configureCache__C                         
000188c0  ti_sysbios_hal_unicache_Cache_enableCache__C                            
000188c2  ti_sysbios_hal_unicache_Cache_l2CacheSupported__C                       
000188c4  ti_sysbios_heaps_HeapBuf_Module__id__C                                  
000188c6  ti_sysbios_heaps_HeapBuf_trackMaxAllocs__C                              
000188c8  ti_sysbios_heaps_HeapMem_Module__id__C                                  
000188ca  ti_sysbios_knl_Clock_Module__id__C                                      
000188cc  ti_sysbios_knl_Clock_Module__loggerDefined__C                           
000188ce  ti_sysbios_knl_Semaphore_Module__id__C                                  
000188d0  ti_sysbios_knl_Semaphore_Module__loggerDefined__C                       
000188d2  ti_sysbios_knl_Swi_Module__id__C                                        
000188d4  ti_sysbios_knl_Swi_Module__loggerDefined__C                             
000188d6  ti_sysbios_knl_Task_Module__id__C                                       
000188d8  ti_sysbios_knl_Task_Module__loggerDefined__C                            
000188da  ti_sysbios_knl_Task_initStackFlag__C                                    
000188dc  ti_sysbios_syncs_SyncSem_Module__id__C                                  
000188de  ti_sysbios_timers_dmtimer_Timer_Module__id__C                           
000188e0  ti_sysbios_timers_dmtimer_Timer_checkFrequency__C                       
000188e2  ti_sysbios_timers_dmtimer_Timer_startupNeeded__C                        
000188e4  ti_trace_SysMin_flushAtExit__C                                          
000188e6  xdc_runtime_Core_Module__id__C                                          
000188e8  xdc_runtime_Error_Module__loggerDefined__C                              
000188ea  xdc_runtime_Error_maxDepth__C                                           
000188ec  xdc_runtime_Main_Module__id__C                                          
000188ee  xdc_runtime_Main_Module__loggerDefined__C                               
000188f0  xdc_runtime_Memory_Module__id__C                                        
000188f2  xdc_runtime_Registry_Module__loggerDefined__C                           
000188f4  xdc_runtime_Text_charCnt__C                                             
000188f6  xdc_runtime_Text_isLoaded__C                                            
000188f8  xdc_runtime_Text_registryModsLastId__C                                  
000188fa  xdc_runtime_Text_unnamedModsLastId__C                                   
00018900  __TI_static_base__                                                      
00019cb0  __TI_Handler_Table_Base                                                 
00019cb8  __TI_CINIT_Base                                                         
00019cb8  __TI_Handler_Table_Limit                                                
00019cd8  __TI_CINIT_Limit                                                        
40000000  ti_sysbios_hal_unicache_Cache_cache                                     
40000400  ti_sysbios_family_arm_ducati_CTM_ctm                                    
40000800  ti_sysbios_hal_ammu_AMMU_mmu                                            
80000000  ti_sysbios_heaps_HeapBuf_Instance_State_1_buf__A                        
80040000  ti_sysbios_heaps_HeapBuf_Instance_State_0_buf__A                        
80060000  ti_sysbios_heaps_HeapMem_Instance_State_0_buf__A                        
80080000  ti_sysbios_knl_Task_Instance_State_0_stack__A                           
80080800  ti_sysbios_family_arm_m3_Hwi_dispatchTable                              
80080948  ti_sysbios_knl_Swi_Instance_State_0_hookEnv__A                          
8008094c  ti_sysbios_knl_Task_Instance_State_0_hookEnv__A                         
80080974  ti_ipc_family_vayu__Desc                                                
80080980  intInfo                                                                 
8008098c  ti_ipc_rpmsg_RPMessage__Desc                                            
80080f94  xdc_runtime_Diags_dictElems                                             
80080fa4  ti_deh_Deh_Module__state__V                                             
80080fb0  ti_deh_StackDbg_Module__state__V                                        
80080fb8  ti_deh_Watchdog_Module_State_0_device__A                                
80080fd8  ti_deh_Watchdog_Module_State_0_status__A                                
80080fdc  ti_deh_Watchdog_Module__state__V                                        
80080fe8  ti_ipc_namesrv_NameServerRemoteRpmsg_Module__root__V                    
80080ff0  ti_ipc_namesrv_NameServerRemoteRpmsg_Module__state__V                   
80081000  ti_ipc_remoteproc_Resource_Module__state__V                             
80081004  ti_ipc_transports_TransportRpmsg_Module__root__V                        
8008100c  ti_ipc_transports_TransportRpmsgSetup_Module_State_0_handles__A         
80081020  ti_ipc_transports_TransportRpmsgSetup_Module__state__V                  
80081024  ti_sdo_ipc_MessageQ_Module__root__V                                     
8008102c  ti_sdo_ipc_MessageQ_Module_State_0_heaps__A                             
8008104c  ti_sdo_ipc_family_vayu_NotifySetup_Module_State_0_numPlugged__A         
8008106c  ti_sdo_ipc_transports_TransportNetworkDummy_Module__root__V             
80081074  ti_sdo_utils_List_Module__root__V                                       
8008107c  ti_sdo_utils_MultiProc_Module_State_0_clusterProcList__A                
80081088  ti_sdo_utils_MultiProc_Module__state__V                                 
80081090  ti_sdo_utils_NameServer_Module__root__V                                 
80081098  ti_sdo_utils_NameServer_Module_State_0_nsRemoteHandle__A                
800810ac  ti_sdo_utils_NameServer_Module__state__V                                
800810b8  ti_sdo_utils_NameServerRemoteNull_Module__root__V                       
800810c0  ti_sysbios_family_arm_ducati_Core_Module__state__V                      
800810d4  ti_sysbios_family_arm_ducati_GateDualCore_Module__root__V               
800810dc  ti_sysbios_family_arm_ducati_GateDualCore_Object__table__V              
800810fc  ti_sysbios_family_arm_ducati_GateDualCore_Module__state__V              
80081100  ti_sysbios_family_arm_ducati_Timer_Module__root__V                      
80081108  ti_sysbios_family_arm_ducati_Timer_Module__state__V                     
80081114  ti_sysbios_family_arm_m3_Hwi_Module__root__V                            
8008111c  ti_sysbios_family_arm_m3_Hwi_Module_State_0_excActive__A                
80081120  ti_sysbios_family_arm_m3_Hwi_Module_State_0_excContext__A               
80081124  ti_sysbios_family_arm_m3_Hwi_Module_State_0_excStack__A                 
80081128  ti_sysbios_family_shared_vayu_IntXbar_Module__state__V                  
8008112c  ti_sysbios_gates_GateHwi_Module__root__V                                
80081134  ti_sysbios_gates_GateHwi_Object__table__V                               
80081138  ti_sysbios_gates_GateMutex_Module__root__V                              
80081140  ti_sysbios_gates_GateMutexPri_Module__root__V                           
80081148  ti_sysbios_gates_GateSwi_Module__root__V                                
80081150  ti_sysbios_gates_GateSwi_Object__table__V                               
80081154  ti_sysbios_hal_Hwi_Module__root__V                                      
8008115c  ti_sysbios_hal_Hwi_Object__table__V                                     
8008116c  ti_sysbios_hal_Timer_Module__root__V                                    
80081174  ti_sysbios_heaps_HeapBuf_Module__root__V                                
8008117c  ti_sysbios_heaps_HeapBuf_Module__state__V                               
80081180  ti_sysbios_heaps_HeapMem_Module__root__V                                
80081188  ti_sysbios_heaps_HeapMem_Object__table__V                               
800811a0  ti_sysbios_knl_Clock_Module__root__V                                    
800811a8  ti_sysbios_knl_Queue_Module__root__V                                    
800811b0  ti_sysbios_knl_Semaphore_Module__root__V                                
800811b8  ti_sysbios_knl_Semaphore_Object__table__V                               
800811cc  ti_sysbios_knl_Swi_Module__root__V                                      
800811d4  ti_sysbios_knl_Swi_Module__state__V                                     
800811f0  ti_sysbios_knl_Task_Module__root__V                                     
800811f8  ti_sysbios_knl_Task_Module_State_0_idleTask__A                          
800811fc  ti_sysbios_syncs_SyncSem_Module__root__V                                
80081204  ti_sysbios_timers_dmtimer_Timer_Module__root__V                         
8008120c  ti_sysbios_timers_dmtimer_Timer_Module__state__V                        
80081220  ti_sysbios_xdcruntime_GateThreadSupport_Module__root__V                 
80081228  ti_trace_SysMin_Module__state__V                                        
80081240  xdc_runtime_Error_Module__state__V                                      
80081244  xdc_runtime_LoggerSys_Module__root__V                                   
8008124c  xdc_runtime_LoggerSys_Object__table__V                                  
80081254  xdc_runtime_Memory_Module__state__V                                     
80081258  xdc_runtime_Registry_Module__root__V                                    
8008125c  xdc_runtime_Registry_Module__state__V                                   
80081264  xdc_runtime_Startup_Module__state__V                                    
8008126c  xdc_runtime_System_Module_State_0_atexitHandlers__A                     
8008128c  xdc_runtime_System_Module__state__V                                     
80081294  xdc_runtime_Text_Module__state__V                                       
8008129c  xdc_runtime_knl_GateThread_Module__root__V                              
800812a4  __xdc__init__addr                                                       
800812a8  ti_trace_SysMin_Module_State_0_lineBuffers__A                           
800814b0  ti_sysbios_timers_dmtimer_Timer_Module_State_0_device__A                
80081620  _Denorm                                                                 
80081630  _Eps                                                                    
80081640  _Hugeval                                                                
80081650  _Inf                                                                    
80081660  _Nan                                                                    
80081670  _Snan                                                                   
80081680  _Rteps                                                                  
80081690  _Xbig                                                                   
80081698  _Zero                                                                   
800816a0  ti_sysbios_knl_Swi_Module_State_0_readyQ__A                             
80081720  ti_sysbios_knl_Task_Module_State_0_readyQ__A                            
800817a0  ti_sysbios_timers_dmtimer_Timer_Module_State_0_intFreqs__A              
80081820  ti_sysbios_family_shared_vayu_IntXbar_Module_State_0_intXbar__A         
80081894  ti_sdo_ipc_MessageQ_Module__state__V                                    
800818fc  ti_sysbios_timers_dmtimer_Timer_Object__table__V                        
80081958  ti_sdo_ipc_family_vayu_InterruptIpu_Module__state__V                    
800819b0  ti_sysbios_gates_GateMutex_Object__table__V                             
80081a04  ti_sdo_ipc_family_vayu_NotifySetup_Module__state__V                     
80081a54  ti_sysbios_heaps_HeapBuf_Object__table__V                               
80081aa4  TSK_idle                                                                
80081aa4  ti_sysbios_knl_Task_Object__table__V                                    
80081af4  ti_sysbios_knl_Task_Module__state__V                                    
80081b38  ti_sysbios_timers_dmtimer_Timer_Module_State_0_handles__A               
80081b78  ti_sdo_utils_NameServer_Object__table__V                                
80081bb4  ti_sysbios_family_arm_m3_Hwi_Module__state__V                           
80081be8  ti_sysbios_family_arm_m3_Hwi_Object__table__V                           
80081c18  ti_sysbios_knl_Swi_Object__table__V                                     
80081c48  ti_sysbios_knl_Clock_Module__state__V                                   
80081c74  ti_sdo_ipc_MessageQ_Module_State_0_transports__A                        
80081c9c  ti_sysbios_BIOS_Module__state__V                                        
80081cc0  _lock                                                                   
80081cc4  _unlock                                                                 
80081cc8  __TI_cleanup_ptr                                                        
80081ccc  __TI_dtors_ptr                                                          
80081cd0  _Fenv                                                                   
80081cd4  _Tls_setup__Fenv                                                        
80081ce0  _Errno                                                                  
80081ce4  main_func_sp                                                            
80081ce8  __stack                                                                 
80082ce8  __STACK_END                                                             
9f000000  ti_trace_SysMin_Module_State_0_outbuf__A                                
9f007ff8  ti_trace_SysMin_Module_State_0_writeidx__A                              
9f007ffc  ti_trace_SysMin_Module_State_0_readidx__A                               
9f060000  ti_deh_Deh_Module_State_0_outbuf__A                                     
e000e000  ti_sysbios_family_arm_m3_Hwi_nvic                                       
ffffffff  __binit__                                                               
ffffffff  __c_args__                                                              
ffffffff  binit                                                                   
UNDEFED   IpcPower_registerCallback                                               
UNDEFED   SHT$$INIT_ARRAY$$Base                                                   
UNDEFED   SHT$$INIT_ARRAY$$Limit                                                  

[1163 symbols]
