******************************************************************************
                  TI ARM Linker Unix v5.2.5                    
******************************************************************************
>> Linked Fri Sep 18 12:50:20 2015

OUTPUT FILE NAME:   <bin/ti_platforms_evmDRA7XX_ipu2/ping_tasks.xem4>
ENTRY POINT SYMBOL: "ti_sysbios_family_arm_ducati_smp_Power_reset"  address: 00000011


MEMORY CONFIGURATION

         name            origin    length      used     unused   attr    fill
----------------------  --------  ---------  --------  --------  ----  --------
  L2_ROM                00000000   00004000  0000066c  00003994  RWIX
  EXT_CODE              00004000   005fc000  000130cb  005e8f35  RW X
  L2_RAM                20000000   00010000  00000000  00010000  RWIX
  OCMC_RAM1             40300000   00080000  00000000  00080000  RWIX
  OCMC_RAM2             40400000   00100000  00000000  00100000  RWIX
  OCMC_RAM3             40500000   00100000  00000000  00100000  RWIX
  EXT_DATA              80000000   00600000  00066460  00599ba0  RW  
  EXT_HEAP              80600000   02a00000  00000000  02a00000  RW  
  TRACE_BUF             9f000000   00060000  00008000  00058000  RW  
  EXC_DATA              9f060000   00010000  00000200  0000fe00  RW  
  PM_DATA               9f070000   00020000  0001027c  0000fd84  RW X


SEGMENT ALLOCATION MAP

run origin  load origin   length   init length attrs members
----------  ----------- ---------- ----------- ----- -------
00000000    00000000    000000e0   000000e0    r-x
  00000000    00000000    000000e0   000000e0    r-x .ducatiPowerBoot
00000400    00000400    00000140   00000140    r--
  00000400    00000400    00000140   00000140    r-- .resetVecs
00003000    00003000    0000044c   0000044c    rw-
  00003000    00003000    0000044c   0000044c    rw- .resource_table
00004000    00004000    000130d8   000130d8    r-x
  00004000    00004000    0000556c   0000556c    r-x .text.1
  0000956c    0000956c    00000004   00000004    r-- .const.1
  00009570    00009570    0000020c   0000020c    r-x .text.2
  0000977c    0000977c    00000004   00000004    r-- .const.2
  00009780    00009780    000005dc   000005dc    r-x .text.3
  00009d5c    00009d5c    00000004   00000004    r-- .const.3
  00009d60    00009d60    000006ac   000006ac    r-x .text.4
  0000a40c    0000a40c    00000004   00000004    r-- .const.4
  0000a410    0000a410    0000018c   0000018c    r-x .text.5
  0000a59c    0000a59c    00000004   00000004    r-- .const.5
  0000a5a0    0000a5a0    0000017c   0000017c    r-x .text.6
  0000a71c    0000a71c    00000004   00000004    r-- .const.6
  0000a720    0000a720    00000174   00000174    r-x .text.7
  0000a894    0000a894    00000004   00000004    r-- .const.7
  0000a898    0000a898    000002e4   000002e4    r-x .text.8
  0000ab7c    0000ab7c    00000004   00000004    r-- .const.8
  0000ab80    0000ab80    0000016c   0000016c    r-x .text.9
  0000acec    0000acec    00000004   00000004    r-- .const.9
  0000acf0    0000acf0    000002cc   000002cc    r-x .text.10
  0000afbc    0000afbc    00000004   00000004    r-- .const.10
  0000afc0    0000afc0    0000015c   0000015c    r-x .text.11
  0000b11c    0000b11c    00000004   00000004    r-- .const.11
  0000b120    0000b120    00000154   00000154    r-x .text.12
  0000b274    0000b274    00000004   00000004    r-- .const.12
  0000b278    0000b278    0000014c   0000014c    r-x .text.13
  0000b3c4    0000b3c4    00000004   00000004    r-- .const.13
  0000b3c8    0000b3c8    00000144   00000144    r-x .text.14
  0000b50c    0000b50c    00000004   00000004    r-- .const.14
  0000b510    0000b510    00000144   00000144    r-x .text.15
  0000b654    0000b654    00000004   00000004    r-- .const.15
  0000b658    0000b658    0000027c   0000027c    r-x .text.16
  0000b8d4    0000b8d4    00000004   00000004    r-- .const.16
  0000b8d8    0000b8d8    0000013c   0000013c    r-x .text.17
  0000ba14    0000ba14    00000004   00000004    r-- .const.17
  0000ba18    0000ba18    000003a4   000003a4    r-x .text.18
  0000bdbc    0000bdbc    00000004   00000004    r-- .const.18
  0000bdc0    0000bdc0    0000023c   0000023c    r-x .text.19
  0000bffc    0000bffc    00000004   00000004    r-- .const.19
  0000c000    0000c000    00000234   00000234    r-x .text.20
  0000c234    0000c234    00000004   00000004    r-- .const.20
  0000c238    0000c238    0000043c   0000043c    r-x .text.21
  0000c674    0000c674    00000004   00000004    r-- .const.21
  0000c678    0000c678    00000404   00000404    r-x .text.22
  0000ca7c    0000ca7c    00000004   00000004    r-- .const.22
  0000ca80    0000ca80    00000764   00000764    r-x .text.23
  0000d1e4    0000d1e4    00000004   00000004    r-- .const.23
  0000d1e8    0000d1e8    0000019c   0000019c    r-x .text.24
  0000d384    0000d384    00000004   00000004    r-- .const.24
  0000d388    0000d388    00000314   00000314    r-x .text.25
  0000d69c    0000d69c    00000004   00000004    r-- .const.25
  0000d6a0    0000d6a0    000003b4   000003b4    r-x .text.26
  0000da54    0000da54    00000004   00000004    r-- .const.26
  0000da58    0000da58    000000b4   000000b4    r-x .text.27
  0000db0c    0000db0c    00000004   00000004    r-- .const.27
  0000db10    0000db10    000000b4   000000b4    r-x .text.28
  0000dbc4    0000dbc4    00000004   00000004    r-- .const.28
  0000dbc8    0000dbc8    000000b4   000000b4    r-x .text.29
  0000dc7c    0000dc7c    00000004   00000004    r-- .const.29
  0000dc80    0000dc80    000000b4   000000b4    r-x .text.30
  0000dd34    0000dd34    00000004   00000004    r-- .const.30
  0000dd38    0000dd38    00000154   00000154    r-x .text.31
  0000de8c    0000de8c    00000004   00000004    r-- .const.31
  0000de90    0000de90    00000144   00000144    r-x .text.32
  0000dfd4    0000dfd4    00000004   00000004    r-- .const.32
  0000dfd8    0000dfd8    00000454   00000454    r-x .text.33
  0000e42c    0000e42c    00000004   00000004    r-- .const.33
  0000e430    0000e430    00000264   00000264    r-x .text.34
  0000e694    0000e694    00000004   00000004    r-- .const.34
  0000e698    0000e698    00000094   00000094    r-x .text.35
  0000e72c    0000e72c    00000004   00000004    r-- .const.35
  0000e730    0000e730    0000019c   0000019c    r-x .text.36
  0000e8cc    0000e8cc    00000004   00000004    r-- .const.36
  0000e8d0    0000e8d0    000004e4   000004e4    r-x .text.37
  0000edb4    0000edb4    00000004   00000004    r-- .const.37
  0000edb8    0000edb8    00000504   00000504    r-x .text.38
  0000f2bc    0000f2bc    00000004   00000004    r-- .const.38
  0000f2c0    0000f2c0    0000005c   0000005c    r-x .text.39
  0000f31c    0000f31c    00000004   00000004    r-- .const.39
  0000f320    0000f320    00000113   00000113    r-x .text.40
  0000f434    0000f434    00000004   00000004    r-- .const.40
  0000f438    0000f438    0000015c   0000015c    r-x .text.41
  0000f594    0000f594    00000004   00000004    r-- .const.41
  0000f598    0000f598    00000054   00000054    r-x .text.42
  0000f5ec    0000f5ec    00000004   00000004    r-- .const.42
  0000f5f0    0000f5f0    000003bc   000003bc    r-x .text.43
  0000f9ac    0000f9ac    00000004   00000004    r-- .const.43
  0000f9b0    0000f9b0    0000004c   0000004c    r-x .text.44
  0000f9fc    0000f9fc    00000004   00000004    r-- .const.44
  0000fa00    0000fa00    000000e4   000000e4    r-x .text.45
  0000fae4    0000fae4    00000004   00000004    r-- .const.45
  0000fae8    0000fae8    0000004c   0000004c    r-x .text.46
  0000fb34    0000fb34    00000004   00000004    r-- .const.46
  0000fb38    0000fb38    000002cc   000002cc    r-x .text.47
  0000fe04    0000fe04    00000004   00000004    r-- .const.47
  0000fe08    0000fe08    00000044   00000044    r-x .text.48
  0000fe4c    0000fe4c    00000004   00000004    r-- .const.48
  0000fe50    0000fe50    00000044   00000044    r-x .text.49
  0000fe94    0000fe94    00000004   00000004    r-- .const.49
  0000fe98    0000fe98    00000044   00000044    r-x .text.50
  0000fedc    0000fedc    00000004   00000004    r-- .const.50
  0000fee0    0000fee0    00000044   00000044    r-x .text.51
  0000ff24    0000ff24    00000004   00000004    r-- .const.51
  0000ff28    0000ff28    0000018c   0000018c    r-x .text.52
  000100b4    000100b4    00000004   00000004    r-- .const.52
  000100b8    000100b8    00000434   00000434    r-x .text.53
  000104ec    000104ec    00000004   00000004    r-- .const.53
  000104f0    000104f0    0000003c   0000003c    r-x .text.54
  0001052c    0001052c    00000004   00000004    r-- .const.54
  00010530    00010530    0000003c   0000003c    r-x .text.55
  0001056c    0001056c    00000004   00000004    r-- .const.55
  00010570    00010570    000000b4   000000b4    r-x .text.56
  00010624    00010624    00000004   00000004    r-- .const.56
  00010628    00010628    0000003c   0000003c    r-x .text.57
  00010664    00010664    00000004   00000004    r-- .const.57
  00010668    00010668    0000003c   0000003c    r-x .text.58
  000106a4    000106a4    00000004   00000004    r-- .const.58
  000106a8    000106a8    0000003c   0000003c    r-x .text.59
  000106e4    000106e4    00000004   00000004    r-- .const.59
  000106e8    000106e8    0000042c   0000042c    r-x .text.60
  00010b14    00010b14    00000004   00000004    r-- .const.60
  00010b18    00010b18    0000009c   0000009c    r-x .text.61
  00010bb4    00010bb4    00000004   00000004    r-- .const.61
  00010bb8    00010bb8    000004ec   000004ec    r-x .text.62
  000110a4    000110a4    00000004   00000004    r-- .const.62
  000110a8    000110a8    0000028c   0000028c    r-x .text.63
  00011334    00011334    00000004   00000004    r-- .const.63
  00011338    00011338    00000024   00000024    r-x .text.64
  0001135c    0001135c    00000004   00000004    r-- .const.64
  00011360    00011360    0000006c   0000006c    r-x .text.65
  000113cc    000113cc    00000004   00000004    r-- .const.65
  000113d0    000113d0    0000049c   0000049c    r-x .text.66
  0001186c    0001186c    00000004   00000004    r-- .const.66
  00011870    00011870    0000001c   0000001c    r-x .text.67
  0001188c    0001188c    00000004   00000004    r-- .const.67
  00011890    00011890    0000008c   0000008c    r-x .text.68
  0001191c    0001191c    00000004   00000004    r-- .const.68
  00011920    00011920    00000294   00000294    r-x .text.69
  00011bb4    00011bb4    00000004   00000004    r-- .const.69
  00011bb8    00011bb8    00000014   00000014    r-x .text.70
  00011bcc    00011bcc    00000004   00000004    r-- .const.70
  00011bd0    00011bd0    00000014   00000014    r-x .text.71
  00011be4    00011be4    00000004   00000004    r-- .const.71
  00011be8    00011be8    0000003c   0000003c    r-x .text.72
  00011c24    00011c24    00000004   00000004    r-- .const.72
  00011c28    00011c28    0000002a   0000002a    r-x .text.73
  00011c54    00011c54    00000004   00000004    r-- .const.73
  00011c58    00011c58    00000012   00000012    r-x .text.74
  00011c6c    00011c6c    00000004   00000004    r-- .const.74
  00011c70    00011c70    00000044   00000044    r-x .text.75
  00011cb4    00011cb4    00000004   00000004    r-- .const.75
  00011cb8    00011cb8    000001dc   000001dc    r-x .text.76
  00011e94    00011e94    00000004   00000004    r-- .const.76
  00011e98    00011e98    0000003c   0000003c    r-x .text.77
  00011ed4    00011ed4    00000004   00000004    r-- .const.77
  00011ed8    00011ed8    0000000c   0000000c    r-x .text.78
  00011ee4    00011ee4    00000004   00000004    r-- .const.78
  00011ee8    00011ee8    0000000c   0000000c    r-x .text.79
  00011ef4    00011ef4    00000004   00000004    r-- .const.79
  00011ef8    00011ef8    0000006c   0000006c    r-x .text.80
  00011f64    00011f64    00000004   00000004    r-- .const.80
  00011f68    00011f68    000001dc   000001dc    r-x .text.81
  00012144    00012144    00000004   00000004    r-- .const.81
  00012148    00012148    00000004   00000004    r-x .text.82
  0001214c    0001214c    00000004   00000004    r-- .const.82
  00012150    00012150    00000004   00000004    r-x .text.83
  00012154    00012154    00000004   00000004    r-- .const.83
  00012158    00012158    00000004   00000004    r-x .text.84
  0001215c    0001215c    00000004   00000004    r-- .const.84
  00012160    00012160    00000004   00000004    r-x .text.85
  00012164    00012164    00000004   00000004    r-- .const.85
  00012168    00012168    00000004   00000004    r-x .text.86
  0001216c    0001216c    00000004   00000004    r-- .const.86
  00012170    00012170    00000002   00000002    r-x .text.87
  00012174    00012174    00003c06   00003c06    r-- .const.87
  00015d80    00015d80    00001358   00001358    r-- .cinit
80000000    80000000    00066460   00000000    rw-
  80000000    80000000    00064160   00000000    rw- .bss
  80064160    80064160    00001300   00000000    rw- .data
  80065460    80065460    00001000   00000000    rw- .stack
9f000000    9f000000    00008000   00000000    rw-
  9f000000    9f000000    00008000   00000000    rw- .tracebuf
9f060000    9f060000    00000200   00000000    rw-
  9f060000    9f060000    00000200   00000000    rw- .errorbuf
9f070000    9f070000    0001027c   00000000    rw-
  9f070000    9f070000    0001027c   00000000    rw- .ti_sysbios_family_arm_ducati_smp_Power


SECTION ALLOCATION MAP

 output                                  attributes/
section   page    origin      length       input sections
--------  ----  ----------  ----------   ----------------
.bss       0    80000000    00064160     UNINITIALIZED
                  80000000    00040000     ping_tasks_pem4.oem4 (.bss:ti_sysbios_heaps_HeapBuf_Instance_State_0_buf__A)
                  80040000    00020000     ping_tasks_pem4.oem4 (.bss:ti_sysbios_heaps_HeapMem_Instance_State_0_buf__A)
                  80060000    00002000     ping_tasks_pem4.oem4 (.bss:taskStackSection)
                  80062000    00001000     ping_tasks_pem4.oem4 (.bss:ti_sysbios_family_arm_ducati_Core_Module_State_0_core1HwiStack__A)
                  80063000    00001000     sysbios.aem4 : BIOS.obj (.bss:ti_sysbios_family_arm_m3_Hwi_vnvic)
                  80064000    00000140     ping_tasks_pem4.oem4 (.bss:ti_sysbios_family_arm_m3_Hwi_dispatchTable)
                  80064140    00000004     (.common:endIdx$3)
                  80064144    00000004     (.common:startIdx$2)
                  80064148    00000004     (.common:ti_sysbios_knl_Swi_Instance_State_0_hookEnv__A)
                  8006414c    00000004     (.common:ti_sysbios_knl_Task_Instance_State_0_hookEnv__A)
                  80064150    00000004     (.common:ti_sysbios_knl_Task_Instance_State_1_hookEnv__A)
                  80064154    00000004     (.common:ti_sysbios_knl_Task_Instance_State_2_hookEnv__A)
                  80064158    00000004     (.common:ti_sysbios_knl_Task_Instance_State_3_hookEnv__A)
                  8006415c    00000004     (.common:timeStampSecCharLen$4)

.neardata 
*          0    80064160    00000000     UNINITIALIZED

.rodata    0    80064160    00000000     UNINITIALIZED

.stack     0    80065460    00001000     UNINITIALIZED
                  80065460    00001000     --HOLE--

.cinit     0    00015d80    00001358     
                  00015d80    00001308     (.cinit..data.load) [load image]
                  00017088    00000008     (.cinit..bss.load) [load image, compression = zero_init]
                  00017090    00000008     (.cinit..errorbuf.load) [load image, compression = zero_init]
                  00017098    00000008     (.cinit..ti_sysbios_family_arm_ducati_smp_Power.load) [load image, compression = zero_init]
                  000170a0    00000008     (.cinit..tracebuf.load) [load image, compression = zero_init]
                  000170a8    00000008     (__TI_handler_table)
                  000170b0    00000028     (__TI_cinit_table)

.init_array 
*          0    00004000    00000000     UNINITIALIZED

.bootVecs 
*          0    00000000    00000008     DSECT
                  00000000    00000008     boot.aem4 : boot.oem4 (.bootVecs)

.vecs      0    00000400    00000000     DSECT

.ducatiPowerBoot 
*          0    00000000    000000e0     
                  00000000    000000e0     sysbios.aem4 : smp_Power_resumeCpu.obj (.ducatiPowerBoot)

.resetVecs 
*          0    00000400    00000140     
                  00000400    00000140     ping_tasks_pem4.oem4 (.resetVecs)

.resource_table 
*          0    00003000    0000044c     
                  00003000    0000044c     ping_tasks_pem4.oem4 (.resource_table)

.tracebuf 
*          0    9f000000    00008000     UNINITIALIZED
                  9f000000    00008000     ping_tasks_pem4.oem4 (.tracebuf)

.errorbuf 
*          0    9f060000    00000200     UNINITIALIZED
                  9f060000    00000200     ping_tasks_pem4.oem4 (.errorbuf)

.ti_sysbios_family_arm_ducati_smp_Power 
*          0    9f070000    0001027c     UNINITIALIZED
                  9f070000    0001027c     sysbios.aem4 : BIOS.obj (.ti_sysbios_family_arm_ducati_smp_Power)

xdc.meta   0    00004000    00000118     COPY SECTION
                  00004000    00000118     ping_tasks_pem4.oem4 (xdc.meta)

.text.1    0    00004000    0000556c     
                  00004000    000010a6     rtsv7M4_T_le_eabi.lib : _printfi.obj (.text)
                  000050a6    00000002                           : i_div0.obj (.text)
                  000050a8    00000734     ti.deh_vayu_smp.aem4 : Deh.oem4 (.text:ti_deh_Deh_excHandler__F)
                  000057dc    00000004     ping_tasks_pem4.oem4 (.text:ti_sysbios_family_arm_m3_TaskSupport_Module__startupDone__S)
                  000057e0    00000724     sysbios.aem4 : BIOS.obj (.text:ti_sysbios_family_arm_ducati_smp_Power_doSuspend__I)
                  00005f04    00000004     ping_tasks_pem4.oem4 (.text:ti_sysbios_family_shared_vayu_IntXbar_Module__startupDone__S)
                  00005f08    000005b4     ipc.aem4 : Ipc.obj (.text:RPMessage_send)
                  000064bc    00000004     ping_tasks_pem4.oem4 (.text:ti_sysbios_hal_ammu_AMMU_Module__startupDone__S)
                  000064c0    00000394     sysbios.aem4 : BIOS.obj (.text:ti_sysbios_heaps_HeapBuf_Instance_init__E)
                  00006854    00000004     ti.targets.arm.rtsarm.aem4 : Error.oem4 (.text:xdc_runtime_Error_getSite__E)
                  00006858    00000358     ipc.aem4 : Ipc.obj (.text:VirtQueue_create)
                  00006bb0    00000354     sysbios.aem4 : BIOS.obj (.text:ti_sysbios_knl_Task_schedule__I)
                  00006f04    0000034c     ti.targets.arm.rtsarm.aem4 : System.oem4 (.text:xdc_runtime_System_doPrint__I)
                  00007250    0000030c     ipc.aem4 : Ipc.obj (.text:RPMessage_swiFxn$9)
                  0000755c    00000004     ti.targets.arm.rtsarm.aem4 : System.oem4 (.text:xdc_runtime_System_aprintf_va__F)
                  00007560    00000308     sysbios.aem4 : BIOS.obj (.text:ti_sysbios_knl_Semaphore_pend__E)
                  00007868    000002b0     ipc.aem4 : Ipc.obj (.text:RPMessage_recv)
                  00007b18    000002b0              : Ipc.obj (.text:ti_sdo_ipc_family_vayu_NotifySetup_Module_startup__E)
                  00007dc8    00000298              : Ipc.obj (.text:VirtQueue_startup)
                  00008060    00000290              : Ipc.obj (.text:RPMessage_init)
                  000082f0    0000027c              : Ipc.obj (.text:RPMessage_create)
                  0000856c    00000004     ti.targets.arm.rtsarm.aem4 : System.oem4 (.text:xdc_runtime_System_printf_va__F)
                  00008570    0000027c     sysbios.aem4 : BIOS.obj (.text:ti_sysbios_knl_Task_Instance_finalize__E)
                  000087ec    00000274     ti.deh_vayu_smp.aem4 : Watchdog.oem4 (.text:ti_deh_Watchdog_init__F)
                  00008a60    00000254     sysbios.aem4 : BIOS.obj (.text:ti_sysbios_heaps_HeapMem_free__E)
                  00008cb4    00000002     ping_tasks_pem4.oem4 (.text:ti_sysbios_BIOS_nullFunc__I)
                  00008cb6    00000002     ti.trace_smp.aem4 : SysMin.oem4 (.text:ti_trace_SysMin_flush__E)
                  00008cb8    00000240     sysbios.aem4 : BIOS.obj (.text:ti_sysbios_heaps_HeapMem_alloc__E)
                  00008ef8    00000230     ipc.aem4 : Ipc.obj (.text:RPMessage_delete)
                  00009128    00000228     ti.trace_smp.aem4 : SysMin.oem4 (.text:ti_trace_SysMin_putch__E)
                  00009350    0000021c     ping_tasks_pem4.oem4 (.text:xdc_runtime_System_printfExtend__I)

.const.1   0    0000956c    00000004     
                  0000956c    00000004     ping_tasks_pem4.oem4 (.const:ti_sdo_ipc_family_vayu_InterruptIpu_Module__diagsEnabled__C)

.text.2    0    00009570    0000020c     
                  00009570    0000020c     sysbios.aem4 : BIOS.obj (.text:ti_sysbios_knl_Task_Instance_init__E)

.const.2   0    0000977c    00000004     
                  0000977c    00000004     ping_tasks_pem4.oem4 (.const:ti_sdo_ipc_family_vayu_InterruptIpu_Module__diagsIncluded__C)

.text.3    0    00009780    000005dc     
                  00009780    000001fc     sysbios.aem4 : BIOS.obj (.text:ti_sysbios_heaps_HeapBuf_free__E)
                  0000997c    000001f4     rtsv7M4_T_le_eabi.lib : ull_div_t2.obj (.text)
                  00009b70    000001ec     sysbios.aem4 : BIOS.obj (.text:ti_sysbios_hal_unicache_Cache_startup__I)

.const.3   0    00009d5c    00000004     
                  00009d5c    00000004     ping_tasks_pem4.oem4 (.const:ti_sdo_ipc_family_vayu_InterruptIpu_Module__diagsMask__C)

.text.4    0    00009d60    000006ac     
                  00009d60    000001b8     sysbios.aem4 : BIOS.obj (.text:ti_sysbios_knl_Task_startCore__E)
                  00009f18    000001b6     rtsv7M4_T_le_eabi.lib : fd_add_t2.obj (.text)
                  0000a0ce    00000002     --HOLE-- [fill = 0]
                  0000a0d0    000001a0     sysbios.aem4 : BIOS.obj (.text:ti_sysbios_knl_Swi_run__I)
                  0000a270    0000019c                  : BIOS.obj (.text:ti_sysbios_family_arm_m3_Hwi_clearInterrupt__E)

.const.4   0    0000a40c    00000004     
                  0000a40c    00000004     ping_tasks_pem4.oem4 (.const:ti_sdo_ipc_family_vayu_InterruptIpu_ducatiCtrlBaseAddr__C)

.text.5    0    0000a410    0000018c     
                  0000a410    0000018c     sysbios.aem4 : BIOS.obj (.text:ti_sysbios_timers_dmtimer_Timer_checkFreq__I)

.const.5   0    0000a59c    00000004     
                  0000a59c    00000004     ping_tasks_pem4.oem4 (.const:ti_sdo_ipc_family_vayu_InterruptIpu_ipu1_0ProcId__C)

.text.6    0    0000a5a0    0000017c     
                  0000a5a0    0000017c     ipc.aem4 : Ipc.obj (.text:VirtQueue_isr)

.const.6   0    0000a71c    00000004     
                  0000a71c    00000004     ping_tasks_pem4.oem4 (.const:ti_sdo_ipc_family_vayu_InterruptIpu_ipu1_1ProcId__C)

.text.7    0    0000a720    00000174     
                  0000a720    00000174     sysbios.aem4 : BIOS.obj (.text:ti_sysbios_family_arm_ducati_Core_hwiFunc__I)

.const.7   0    0000a894    00000004     
                  0000a894    00000004     ping_tasks_pem4.oem4 (.const:ti_sdo_ipc_family_vayu_InterruptIpu_ipu2_0ProcId__C)

.text.8    0    0000a898    000002e4     
                  0000a898    00000174     sysbios.aem4 : BIOS.obj (.text:ti_sysbios_family_arm_m3_Hwi_excBusFault__I)
                  0000aa0c    00000170     ti.pm_smp_vayu.aem4 : IpcPower.oem4 (.text:IpcPower_registerCallback)

.const.8   0    0000ab7c    00000004     
                  0000ab7c    00000004     ping_tasks_pem4.oem4 (.const:ti_sdo_ipc_family_vayu_InterruptIpu_ipu2_1ProcId__C)

.text.9    0    0000ab80    0000016c     
                  0000ab80    0000016c     sysbios.aem4 : BIOS.obj (.text:ti_sysbios_family_arm_m3_Hwi_updateNvic__I)

.const.9   0    0000acec    00000004     
                  0000acec    00000004     ping_tasks_pem4.oem4 (.const:ti_sdo_utils_MultiProc_A_invalidMultiProcId__C)

.text.10   0    0000acf0    000002cc     
                  0000acf0    00000168     sysbios.aem4 : BIOS.obj (.text:ti_sysbios_heaps_HeapBuf_alloc__E)
                  0000ae58    00000164     ipc.aem4 : Ipc.obj (.text:sendMessage$8)

.const.10 
*          0    0000afbc    00000004     
                  0000afbc    00000004     ping_tasks_pem4.oem4 (.const:ti_sdo_utils_MultiProc_A_invalidProcName__C)

.text.11   0    0000afc0    0000015c     
                  0000afc0    0000015c     sysbios.aem4 : BIOS.obj (.text:ti_sysbios_family_arm_m3_Hwi_Module_startup__E)

.const.11 
*          0    0000b11c    00000004     
                  0000b11c    00000004     ping_tasks_pem4.oem4 (.const:ti_sdo_utils_MultiProc_Module__diagsEnabled__C)

.text.12   0    0000b120    00000154     
                  0000b120    00000154     sysbios.aem4 : BIOS.obj (.text:ti_sysbios_family_arm_m3_Hwi_excUsageFault__I)

.const.12 
*          0    0000b274    00000004     
                  0000b274    00000004     ping_tasks_pem4.oem4 (.const:ti_sdo_utils_MultiProc_Module__diagsIncluded__C)

.text.13   0    0000b278    0000014c     
                  0000b278    0000014c     sysbios.aem4 : BIOS.obj (.text:ti_sysbios_family_shared_vayu_IntXbar_connect__E)

.const.13 
*          0    0000b3c4    00000004     
                  0000b3c4    00000004     ping_tasks_pem4.oem4 (.const:ti_sdo_utils_MultiProc_Module__diagsMask__C)

.text.14   0    0000b3c8    00000144     
                  0000b3c8    00000144     ipc.aem4 : Ipc.obj (.text:ti_sdo_ipc_family_vayu_InterruptIpu_intRegister__E)

.const.14 
*          0    0000b50c    00000004     
                  0000b50c    00000004     ping_tasks_pem4.oem4 (.const:ti_sdo_utils_MultiProc_nameList__C)

.text.15   0    0000b510    00000144     
                  0000b510    00000144     sysbios.aem4 : BIOS.obj (.text:ti_sysbios_knl_Semaphore_post__E)

.const.15 
*          0    0000b654    00000004     
                  0000b654    00000004     ping_tasks_pem4.oem4 (.const:ti_sysbios_BIOS_installedErrorHook__C)

.text.16   0    0000b658    0000027c     
                  0000b658    00000140     sysbios.aem4 : BIOS.obj (.text:ti_sysbios_knl_Clock_workFunc__E)
                  0000b798    0000013c                  : BIOS.obj (.text:ti_sysbios_family_arm_m3_Hwi_dispatchC__I)

.const.16 
*          0    0000b8d4    00000004     
                  0000b8d4    00000004     ping_tasks_pem4.oem4 (.const:ti_sysbios_family_arm_ducati_Core_core1HwiStackSize__C)

.text.17   0    0000b8d8    0000013c     
                  0000b8d8    0000013c     sysbios.aem4 : BIOS.obj (.text:ti_sysbios_heaps_HeapMem_Instance_init__E)

.const.17 
*          0    0000ba14    00000004     
                  0000ba14    00000004     ping_tasks_pem4.oem4 (.const:ti_sysbios_family_arm_ducati_Core_gate__C)

.text.18   0    0000ba18    000003a4     
                  0000ba18    00000138     sysbios.aem4 : BIOS.obj (.text:ti_sysbios_family_arm_m3_Hwi_excMemFault__I)
                  0000bb50    00000136     rtsv7M4_T_le_eabi.lib : fd_div_t2.obj (.text)
                  0000bc86    00000002     --HOLE-- [fill = 0]
                  0000bc88    00000134     ipc.aem4 : Ipc.obj (.text:ti_sdo_ipc_family_vayu_InterruptIpu_intSend__E)

.const.18 
*          0    0000bdbc    00000004     
                  0000bdbc    00000004     ping_tasks_pem4.oem4 (.const:ti_sysbios_family_arm_ducati_Core_ipuId__C)

.text.19   0    0000bdc0    0000023c     
                  0000bdc0    00000120     sysbios.aem4 : BIOS.obj (.text:ti_sysbios_timers_dmtimer_Timer_deviceConfig__I)
                  0000bee0    0000011c     ipc.aem4 : Ipc.obj (.text:VirtQueue_kick)

.const.19 
*          0    0000bffc    00000004     
                  0000bffc    00000004     ping_tasks_pem4.oem4 (.const:ti_sysbios_family_arm_ducati_GateSmp_A_nestedEnter__C)

.text.20   0    0000c000    00000234     
                  0000c000    0000011c     sysbios.aem4 : BIOS.obj (.text:ti_sysbios_hal_unicache_Cache_inv__E)
                  0000c11c    00000118     ti.targets.arm.rtsarm.aem4 : Error.oem4 (.text:xdc_runtime_Error_policyDefault__E)

.const.20 
*          0    0000c234    00000004     
                  0000c234    00000004     ping_tasks_pem4.oem4 (.const:ti_sysbios_family_arm_ducati_GateSmp_Module__diagsEnabled__C)

.text.21   0    0000c238    0000043c     
                  0000c238    00000110     ipc.aem4 : Ipc.obj (.text:callback_availBufReady$9)
                  0000c348    00000110     ping_tasks.oem4 (.text:copyTaskFxn)
                  0000c458    00000110     rtsv7M4_T_le_eabi.lib : xdscale.obj (.text)
                  0000c568    0000010c     ipc.aem4 : Ipc.obj (.text:IpcMgr_rpmsgStartup)

.const.21 
*          0    0000c674    00000004     
                  0000c674    00000004     ping_tasks_pem4.oem4 (.const:ti_sysbios_family_arm_ducati_GateSmp_Module__diagsIncluded__C)

.text.22   0    0000c678    00000404     
                  0000c678    00000108     ipc.aem4 : Ipc.obj (.text:ti_sdo_ipc_family_vayu_InterruptIpu_intClear__E)
                  0000c780    00000100     sysbios.aem4 : BIOS.obj (.text:ti_sysbios_knl_Swi_Instance_init__E)
                  0000c880    00000100     ti.targets.arm.rtsarm.aem4 : Core-mem.oem4 (.text:xdc_runtime_Core_createObject__I)
                  0000c980    000000fc     rtsv7M4_T_le_eabi.lib : fd_mul_t2.obj (.text)

.const.22 
*          0    0000ca7c    00000004     
                  0000ca7c    00000004     ping_tasks_pem4.oem4 (.const:ti_sysbios_family_arm_ducati_GateSmp_Module__diagsMask__C)

.text.23   0    0000ca80    00000764     
                  0000ca80    000000f8     sysbios.aem4 : BIOS.obj (.text:ti_sysbios_family_arm_ducati_Core_core1Startup__I)
                  0000cb78    000000f8                  : BIOS.obj (.text:ti_sysbios_knl_Swi_post__E)
                  0000cc70    000000f8                  : BIOS.obj (.text:ti_sysbios_knl_Task_postInit__I)
                  0000cd68    000000f8     ti.targets.arm.rtsarm.aem4 : Log.oem4 (.text:xdc_runtime_Log_doPrint__E)
                  0000ce60    000000f8                                : Startup.oem4 (.text:xdc_runtime_Startup_startMods__I)
                  0000cf58    000000e8     ti.deh_vayu_smp.aem4 : StackDbg.oem4 (.text:ti_deh_StackDbg_walkStack__F)
                  0000d040    000000d4     sysbios.aem4 : BIOS.obj (.text:ti_sysbios_family_arm_ducati_Core_atexit__I)
                  0000d114    000000d0                  : m3_Hwi_asm.obj (.text:ti_sysbios_family_arm_m3_Hwi_dispatch__I)

.const.23 
*          0    0000d1e4    00000004     
                  0000d1e4    00000004     ping_tasks_pem4.oem4 (.const:ti_sysbios_family_arm_ducati_Timer_startupNeeded__C)

.text.24   0    0000d1e8    0000019c     
                  0000d1e8    000000d0     sysbios.aem4 : BIOS.obj (.text:ti_sysbios_knl_Task_unblockI__E)
                  0000d2b8    000000cc     ti.targets.arm.rtsarm.aem4 : Core-smem.oem4 (.text:xdc_runtime_Core_constructObject__I)

.const.24 
*          0    0000d384    00000004     
                  0000d384    00000004     ping_tasks_pem4.oem4 (.const:ti_sysbios_family_arm_ducati_smp_Power_gate__C)

.text.25   0    0000d388    00000314     
                  0000d388    000000c8     sysbios.aem4 : BIOS.obj (.text:ti_sysbios_timers_dmtimer_Timer_setPeriodMicroSecs__E)
                  0000d450    000000c4     ipc.aem4 : Ipc.obj (.text:MultiProc_getId)
                  0000d514    000000c4     ping_tasks_pem4.oem4 (.text:ti_sysbios_BIOS_rtsUnlock__I)
                  0000d5d8    000000c4     sysbios.aem4 : BIOS.obj (.text:ti_sysbios_knl_Task_exit__E)

.const.25 
*          0    0000d69c    00000004     
                  0000d69c    00000004     ping_tasks_pem4.oem4 (.const:ti_sysbios_family_arm_ducati_smp_Power_postSuspendHooks__A)

.text.26   0    0000d6a0    000003b4     
                  0000d6a0    000000c0     sysbios.aem4 : BIOS.obj (.text:ti_sysbios_family_arm_m3_Hwi_initNVIC__E)
                  0000d760    000000c0                  : BIOS.obj (.text:ti_sysbios_gates_GateMutex_enter__E)
                  0000d820    000000be     ti.deh_vayu_smp.aem4 : Deh.oem4 (.text:printStackEntry)
                  0000d8de    000000be     rtsv7M4_T_le_eabi.lib : xdnorm.obj (.text)
                  0000d99c    000000b8     ti.deh_vayu_smp.aem4 : StackDbg.oem4 (.text:__decode_bl32)

.const.26 
*          0    0000da54    00000004     
                  0000da54    00000004     ping_tasks_pem4.oem4 (.const:ti_sysbios_family_arm_ducati_smp_Power_preSuspendHooks__A)

.text.27   0    0000da58    000000b4     
                  0000da58    000000b4     sysbios.aem4 : BIOS.obj (.text:ti_sysbios_family_arm_m3_Hwi_excDebugMon__I)

.const.27 
*          0    0000db0c    00000004     
                  0000db0c    00000004     ping_tasks_pem4.oem4 (.const:ti_sysbios_family_arm_ducati_smp_Power_sdmaRegs__C)

.text.28   0    0000db10    000000b4     
                  0000db10    000000b4     sysbios.aem4 : BIOS.obj (.text:ti_sysbios_family_arm_m3_Hwi_excHardFault__I)

.const.28 
*          0    0000dbc4    00000004     
                  0000dbc4    00000004     ping_tasks_pem4.oem4 (.const:ti_sysbios_family_arm_ducati_smp_Power_semCore0__C)

.text.29   0    0000dbc8    000000b4     
                  0000dbc8    000000b4     sysbios.aem4 : BIOS.obj (.text:ti_sysbios_family_shared_vayu_IntXbar_initXbarRegs__I)

.const.29 
*          0    0000dc7c    00000004     
                  0000dc7c    00000004     ping_tasks_pem4.oem4 (.const:ti_sysbios_family_arm_ducati_smp_Power_semCore1__C)

.text.30   0    0000dc80    000000b4     
                  0000dc80    000000b4     sysbios.aem4 : BIOS.obj (.text:ti_sysbios_knl_Task_checkStacks__E)

.const.30 
*          0    0000dd34    00000004     
                  0000dd34    00000004     ping_tasks_pem4.oem4 (.const:ti_sysbios_family_arm_m3_Hwi_E_NMI__C)

.text.31   0    0000dd38    00000154     
                  0000dd38    000000ac     sysbios.aem4 : BIOS.obj (.text:ti_sysbios_family_arm_ducati_GateSmp_enter__E)
                  0000dde4    000000a8     ti.deh_vayu_smp.aem4 : Deh.oem4 (.text:dump_hex)

.const.31 
*          0    0000de8c    00000004     
                  0000de8c    00000004     ping_tasks_pem4.oem4 (.const:ti_sysbios_family_arm_m3_Hwi_E_alreadyDefined__C)

.text.32   0    0000de90    00000144     
                  0000de90    000000a4     sysbios.aem4 : BIOS.obj (.text:ti_sysbios_family_arm_ducati_GateSmp_sync__E)
                  0000df34    000000a0     auto_init.aem4 : auto_init.oem4 (.text)

.const.32 
*          0    0000dfd4    00000004     
                  0000dfd4    00000004     ping_tasks_pem4.oem4 (.const:ti_sysbios_family_arm_m3_Hwi_E_busFault__C)

.text.33   0    0000dfd8    00000454     
                  0000dfd8    000000a0     ipc.aem4 : Ipc.obj (.text:ti_sdo_ipc_family_vayu_NotifySetup_dispatchIsr__I)
                  0000e078    000000a0     sysbios.aem4 : BIOS.obj (.text:ti_sysbios_knl_Swi_Instance_finalize__E)
                  0000e118    000000a0                  : BIOS.obj (.text:ti_sysbios_knl_Task_Module_startup__E)
                  0000e1b8    000000a0     ti.targets.arm.rtsarm.aem4 : Text.oem4 (.text:xdc_runtime_Text_putMod__E)
                  0000e258    0000009c     ipc.aem4 : Ipc.obj (.text:MultiProc_getName)
                  0000e2f4    0000009c     rtsv7M4_T_le_eabi.lib : memcpy_t2.obj (.text)
                  0000e390    0000009c     ipc.aem4 : Ipc.obj (.text:ti_sdo_ipc_family_vayu_NotifySetup_plugHwi__F)

.const.33 
*          0    0000e42c    00000004     
                  0000e42c    00000004     ping_tasks_pem4.oem4 (.const:ti_sysbios_family_arm_m3_Hwi_E_debugMon__C)

.text.34   0    0000e430    00000264     
                  0000e430    0000009c     sysbios.aem4 : BIOS.obj (.text:ti_sysbios_knl_Semaphore_Instance_init__E)
                  0000e4cc    0000009a     ti.targets.arm.rtsarm.aem4 : Text.oem4 (.text:xdc_runtime_Text_putSite__E)
                  0000e566    00000002     --HOLE-- [fill = 0]
                  0000e568    00000098     ipc.aem4 : Ipc.obj (.text:ti_sdo_ipc_family_vayu_InterruptIpu_intEnable__E)
                  0000e600    00000094     sysbios.aem4 : BIOS.obj (.text:ti_sysbios_family_arm_m3_Hwi_Instance_init__E)

.const.34 
*          0    0000e694    00000004     
                  0000e694    00000004     ping_tasks_pem4.oem4 (.const:ti_sysbios_family_arm_m3_Hwi_E_hardFault__C)

.text.35   0    0000e698    00000094     
                  0000e698    00000094     sysbios.aem4 : BIOS.obj (.text:ti_sysbios_knl_Task_blockI__E)

.const.35 
*          0    0000e72c    00000004     
                  0000e72c    00000004     ping_tasks_pem4.oem4 (.const:ti_sysbios_family_arm_m3_Hwi_E_memFault__C)

.text.36   0    0000e730    0000019c     
                  0000e730    00000090     sysbios.aem4 : BIOS.obj (.text:ti_sysbios_timers_dmtimer_Timer_start__E)
                  0000e7c0    00000086     rtsv7M4_T_le_eabi.lib : fd_cmp_t2.obj (.text:__aeabi_cdcmple)
                  0000e846    00000086                           : fd_cmp_t2.obj (.text:__aeabi_cdrcmple)

.const.36 
*          0    0000e8cc    00000004     
                  0000e8cc    00000004     ping_tasks_pem4.oem4 (.const:ti_sysbios_family_arm_m3_Hwi_E_noIsr__C)

.text.37   0    0000e8d0    000004e4     
                  0000e8d0    00000080     sysbios.aem4 : BIOS.obj (.text:ti_sysbios_family_shared_vayu_IntXbar_initIntXbar__I)
                  0000e950    00000080                  : BIOS.obj (.text:ti_sysbios_knl_Swi_Module_startup__E)
                  0000e9d0    0000007a     rtsv7M4_T_le_eabi.lib : memset_t2.obj (.text)
                  0000ea4a    00000006     ti.targets.arm.rtsarm.aem4 : xdc_noinit.oem4 (.text:__xdc__init)
                  0000ea50    00000070     sysbios.aem4 : BIOS.obj (.text:ti_sysbios_family_arm_m3_Hwi_disableInterrupt__E)
                  0000eac0    00000070                  : BIOS.obj (.text:ti_sysbios_family_arm_m3_Hwi_enableInterrupt__E)
                  0000eb30    0000006e     ti.deh_vayu_smp.aem4 : Watchdog.oem4 (.text:initTimer)
                  0000eb9e    00000002     --HOLE-- [fill = 0]
                  0000eba0    0000006c     sysbios.aem4 : BIOS.obj (.text:ti_sysbios_family_arm_ducati_Timer_Module_startup__E)
                  0000ec0c    0000006c     ti.targets.arm.rtsarm.aem4 : Error.oem4 (.text:xdc_runtime_Error_print__E)
                  0000ec78    0000006c                                : Memory.oem4 (.text:xdc_runtime_Memory_alloc__E)
                  0000ece4    00000068     ping_tasks_pem4.oem4 (.text:ti_sysbios_family_arm_m3_Hwi_create)
                  0000ed4c    00000068     ping_tasks_pem4.oem4 (.text:ti_sysbios_heaps_HeapBuf_Object__create__S)

.const.37 
*          0    0000edb4    00000004     
                  0000edb4    00000004     ping_tasks_pem4.oem4 (.const:ti_sysbios_family_arm_m3_Hwi_E_reserved__C)

.text.38   0    0000edb8    00000504     
                  0000edb8    00000068     sysbios.aem4 : BIOS.obj (.text:ti_sysbios_knl_Swi_restoreHwi__E)
                  0000ee20    00000068                  : BIOS.obj (.text:ti_sysbios_timers_dmtimer_Timer_getHandle__E)
                  0000ee88    00000068                  : BIOS.obj (.text:ti_sysbios_timers_dmtimer_Timer_initDevice__I)
                  0000eef0    00000066     rtsv7M4_T_le_eabi.lib : xdunscal.obj (.text)
                  0000ef56    00000066     ti.targets.arm.rtsarm.aem4 : Core-mem.oem4 (.text:xdc_runtime_Core_deleteObject__I)
                  0000efbc    00000064     ping_tasks_pem4.oem4 (.text:ti_sysbios_knl_Swi_create)
                  0000f020    00000064     ping_tasks_pem4.oem4 (.text:ti_sysbios_knl_Task_create)
                  0000f084    00000064     ti.targets.arm.rtsarm.aem4 : System.oem4 (.text:xdc_runtime_System_formatNum__I)
                  0000f0e8    00000060     rtsv7M4_T_le_eabi.lib : sprintf.obj (.text)
                  0000f148    00000060     sysbios.aem4 : BIOS.obj (.text:ti_sysbios_knl_Clock_logTick__E)
                  0000f1a8    0000005c     ping_tasks.oem4 (.text:start_ping_tasks)
                  0000f204    0000005c     ti.deh_vayu_smp.aem4 : Watchdog.oem4 (.text:ti_deh_Watchdog_restore__I)
                  0000f260    0000005c     sysbios.aem4 : BIOS.obj (.text:ti_sysbios_family_arm_ducati_smp_Power_taskFxnCore1__I)

.const.38 
*          0    0000f2bc    00000004     
                  0000f2bc    00000004     ping_tasks_pem4.oem4 (.const:ti_sysbios_family_arm_m3_Hwi_E_svCall__C)

.text.39   0    0000f2c0    0000005c     
                  0000f2c0    0000005c     sysbios.aem4 : BIOS.obj (.text:ti_sysbios_family_arm_m3_Hwi_postInit__I)

.const.39 
*          0    0000f31c    00000004     
                  0000f31c    00000004     ping_tasks_pem4.oem4 (.const:ti_sysbios_family_arm_m3_Hwi_E_usageFault__C)

.text.40   0    0000f320    00000113     
                  0000f320    0000005c     sysbios.aem4 : BIOS.obj (.text:ti_sysbios_knl_Swi_schedule__I)
                  0000f37c    0000005c     ti.targets.arm.rtsarm.aem4 : Registry.oem4 (.text:xdc_runtime_Registry_addModule__E)
                  0000f3d8    0000005b                                : Text.oem4 (.text:xdc_runtime_Text_putLab__E)

.const.40 
*          0    0000f434    00000004     
                  0000f434    00000004     ping_tasks_pem4.oem4 (.const:ti_sysbios_family_arm_m3_Hwi_LD_end__C)

.text.41   0    0000f438    0000015c     
                  0000f438    00000058     sysbios.aem4 : BIOS.obj (.text:ti_sysbios_family_arm_ducati_smp_Power_taskFxnCore0__I)
                  0000f490    00000058                  : BIOS.obj (.text:ti_sysbios_knl_Swi_postInit__I)
                  0000f4e8    00000056     rtsv7M4_T_le_eabi.lib : ltoa.obj (.text)
                  0000f53e    00000002     --HOLE-- [fill = 0]
                  0000f540    00000054     sysbios.aem4 : BIOS.obj (.text:ti_sysbios_family_arm_m3_Hwi_getCoreStackInfo__E)

.const.41 
*          0    0000f594    00000004     
                  0000f594    00000004     ping_tasks_pem4.oem4 (.const:ti_sysbios_family_arm_m3_Hwi_LM_begin__C)

.text.42   0    0000f598    00000054     
                  0000f598    00000054     sysbios.aem4 : BIOS.obj (.text:ti_sysbios_heaps_HeapBuf_Module_startup__E)

.const.42 
*          0    0000f5ec    00000004     
                  0000f5ec    00000004     ping_tasks_pem4.oem4 (.const:ti_sysbios_family_arm_m3_Hwi_Module__diagsEnabled__C)

.text.43   0    0000f5f0    000003bc     
                  0000f5f0    00000054     sysbios.aem4 : BIOS.obj (.text:ti_sysbios_timers_dmtimer_Timer_Module_startup__E)
                  0000f644    00000054     ti.targets.arm.rtsarm.aem4 : Assert.oem4 (.text:xdc_runtime_Assert_raise__I)
                  0000f698    00000050     sysbios.aem4 : BIOS.obj (.text:ti_sysbios_family_arm_m3_Hwi_enableFxn__E)
                  0000f6e8    00000050                  : BIOS.obj (.text:ti_sysbios_family_arm_m3_Hwi_restoreFxn__E)
                  0000f738    00000050                  : BIOS.obj (.text:ti_sysbios_family_arm_m3_Hwi_setPriority__E)
                  0000f788    00000050                  : BIOS.obj (.text:ti_sysbios_knl_Task_allBlockedFunction__I)
                  0000f7d8    00000050     ti.targets.arm.rtsarm.aem4 : Startup.oem4 (.text:xdc_runtime_Startup_exec__E)
                  0000f828    00000050                                : Text.oem4 (.text:xdc_runtime_Text_visitRope2__I)
                  0000f878    0000004f     ipc.aem4 : Ipc.obj (.text:NameMap_register)
                  0000f8c7    00000001     --HOLE-- [fill = 0]
                  0000f8c8    0000004c     rtsv7M4_T_le_eabi.lib : atoi.obj (.text)
                  0000f914    0000004c                           : cpy_tbl.obj (.text)
                  0000f960    0000004c     ti.deh_vayu_smp.aem4 : Watchdog.oem4 (.text:ti_deh_Watchdog_start__I)

.const.43 
*          0    0000f9ac    00000004     
                  0000f9ac    00000004     ping_tasks_pem4.oem4 (.const:ti_sysbios_family_arm_m3_Hwi_Module__diagsIncluded__C)

.text.44   0    0000f9b0    0000004c     
                  0000f9b0    0000004c     ipc.aem4 : Ipc.obj (.text:ti_sdo_ipc_family_vayu_InterruptIpu_intShmDucatiStub__I)

.const.44 
*          0    0000f9fc    00000004     
                  0000f9fc    00000004     ping_tasks_pem4.oem4 (.const:ti_sysbios_family_arm_m3_Hwi_Module__diagsMask__C)

.text.45   0    0000fa00    000000e4     
                  0000fa00    0000004c     sysbios.aem4 : BIOS.obj (.text:ti_sysbios_family_arm_ducati_TimestampProvider_Module_startup__E)
                  0000fa4c    0000004c                  : m3_TaskSupport_asm.obj (.text:ti_sysbios_family_arm_m3_TaskSupport_buildTaskStack)
                  0000fa98    0000004c                  : BIOS.obj (.text:ti_sysbios_heaps_HeapMem_getStats__E)

.const.45 
*          0    0000fae4    00000004     
                  0000fae4    00000004     ping_tasks_pem4.oem4 (.const:ti_sysbios_family_arm_m3_Hwi_Module__loggerFxn1__C)

.text.46   0    0000fae8    0000004c     
                  0000fae8    0000004c     sysbios.aem4 : BIOS.obj (.text:ti_sysbios_knl_Swi_restore__E)

.const.46 
*          0    0000fb34    00000004     
                  0000fb34    00000004     ping_tasks_pem4.oem4 (.const:ti_sysbios_family_arm_m3_Hwi_Module__loggerFxn8__C)

.text.47   0    0000fb38    000002cc     
                  0000fb38    0000004c     sysbios.aem4 : BIOS.obj (.text:ti_sysbios_knl_Swi_runLoop__I)
                  0000fb84    0000004a     ti.targets.arm.rtsarm.aem4 : LoggerSys.oem4 (.text:xdc_runtime_LoggerSys_write8__E)
                  0000fbce    00000048     rtsv7M4_T_le_eabi.lib : fd_toi_t2.obj (.text)
                  0000fc16    00000002     --HOLE-- [fill = 0]
                  0000fc18    00000048     ti.deh_vayu_smp.aem4 : Watchdog.oem4 (.text:ti_deh_Watchdog_isException__F)
                  0000fc60    00000048     sysbios.aem4 : BIOS.obj (.text:ti_sysbios_family_arm_m3_Hwi_excReserved__I)
                  0000fca8    00000048                  : m3_Hwi_asm_switch.obj (.text:ti_sysbios_family_arm_m3_Hwi_initStacks__E)
                  0000fcf0    00000046     rtsv7M4_T_le_eabi.lib : ldexp.obj (.text)
                  0000fd36    00000046     ti.targets.arm.rtsarm.aem4 : Core-params.oem4 (.text:xdc_runtime_Core_assignParams__I)
                  0000fd7c    00000044     boot.aem4 : boot.oem4 (.text)
                  0000fdc0    00000044     rtsv7M4_T_le_eabi.lib : exit.obj (.text)

.const.47 
*          0    0000fe04    00000004     
                  0000fe04    00000004     ping_tasks_pem4.oem4 (.const:ti_sysbios_family_arm_m3_Hwi_Module__loggerObj__C)

.text.48   0    0000fe08    00000044     
                  0000fe08    00000044     sysbios.aem4 : BIOS.obj (.text:ti_sysbios_family_arm_ducati_Timer_start__E)

.const.48 
*          0    0000fe4c    00000004     
                  0000fe4c    00000004     ping_tasks_pem4.oem4 (.const:ti_sysbios_family_arm_m3_Hwi_NUM_INTERRUPTS__C)

.text.49   0    0000fe50    00000044     
                  0000fe50    00000044     sysbios.aem4 : BIOS.obj (.text:ti_sysbios_family_arm_ducati_TimestampProvider_get32__E)

.const.49 
*          0    0000fe94    00000004     
                  0000fe94    00000004     ping_tasks_pem4.oem4 (.const:ti_sysbios_family_arm_m3_Hwi_Object__count__C)

.text.50   0    0000fe98    00000044     
                  0000fe98    00000044     sysbios.aem4 : BIOS.obj (.text:ti_sysbios_family_arm_ducati_Wugen_enableInterrupt__E)

.const.50 
*          0    0000fedc    00000004     
                  0000fedc    00000004     ping_tasks_pem4.oem4 (.const:ti_sysbios_family_arm_m3_Hwi_Object__table__C)

.text.51   0    0000fee0    00000044     
                  0000fee0    00000044     sysbios.aem4 : BIOS.obj (.text:ti_sysbios_knl_Idle_run__E)

.const.51 
*          0    0000ff24    00000004     
                  0000ff24    00000004     ping_tasks_pem4.oem4 (.const:ti_sysbios_family_arm_m3_Hwi_ccr__C)

.text.52   0    0000ff28    0000018c     
                  0000ff28    00000044     sysbios.aem4 : BIOS.obj (.text:ti_sysbios_timers_dmtimer_Timer_startup__E)
                  0000ff6c    00000044     ti.targets.arm.rtsarm.aem4 : Error.oem4 (.text:xdc_runtime_Error_setX__E)
                  0000ffb0    00000044                                : Text.oem4 (.text:xdc_runtime_Text_xprintf__I)
                  0000fff4    00000040     ti.pm_smp_vayu.aem4 : IpcPower.oem4 (.text:IpcPower_idle)
                  00010034    00000040     rtsv7M4_T_le_eabi.lib : signal.obj (.text)
                  00010074    00000040                           : u_divt2.obj (.text)

.const.52 
*          0    000100b4    00000004     
                  000100b4    00000004     ping_tasks_pem4.oem4 (.const:ti_sysbios_family_arm_m3_Hwi_disablePriority__C)

.text.53   0    000100b8    00000434     
                  000100b8    00000040     sysbios.aem4 : BIOS.obj (.text:ti_sysbios_family_arm_ducati_Core_unlock__E)
                  000100f8    00000040     ping_tasks_pem4.oem4 (.text:ti_sysbios_family_arm_ducati_GateSmp_Object__create__S)
                  00010138    00000040     ping_tasks_pem4.oem4 (.text:ti_sysbios_family_arm_m3_Hwi_Object__get__S)
                  00010178    00000040     ping_tasks_pem4.oem4 (.text:ti_sysbios_gates_GateHwi_Object__create__S)
                  000101b8    00000040     ping_tasks_pem4.oem4 (.text:ti_sysbios_gates_GateMutex_Object__create__S)
                  000101f8    00000040     sysbios.aem4 : BIOS.obj (.text:ti_sysbios_hal_unicache_Cache_seizeRegs__I)
                  00010238    00000040     ping_tasks_pem4.oem4 (.text:ti_sysbios_heaps_HeapBuf_Object__get__S)
                  00010278    00000040     ping_tasks_pem4.oem4 (.text:ti_sysbios_heaps_HeapMem_Object__create__S)
                  000102b8    00000040     ping_tasks_pem4.oem4 (.text:ti_sysbios_heaps_HeapMem_Object__get__S)
                  000102f8    00000040     ping_tasks_pem4.oem4 (.text:ti_sysbios_knl_Semaphore_create)
                  00010338    00000040     ping_tasks_pem4.oem4 (.text:ti_sysbios_knl_Swi_Object__get__S)
                  00010378    00000040     ping_tasks_pem4.oem4 (.text:ti_sysbios_knl_Task_Object__get__S)
                  000103b8    00000040     sysbios.aem4 : BIOS.obj (.text:ti_sysbios_knl_Task_processVitalTaskFlag__I)
                  000103f8    00000040     ping_tasks_pem4.oem4 (.text:xdc_runtime_LoggerSys_Object__create__S)
                  00010438    0000003c     ti.pm_smp_vayu.aem4 : IpcPower.oem4 (.text:IpcPower_callUserFxns)
                  00010474    0000003c     ti.deh_vayu_smp.aem4 : Watchdog.oem4 (.text:ti_deh_Watchdog_stop__I)
                  000104b0    0000003c     ping_tasks_pem4.oem4 (.text:ti_sdo_utils_List_create)

.const.53 
*          0    000104ec    00000004     
                  000104ec    00000004     ping_tasks_pem4.oem4 (.const:ti_sysbios_family_arm_m3_Hwi_excHandlerFunc__C)

.text.54   0    000104f0    0000003c     
                  000104f0    0000003c     sysbios.aem4 : BIOS.obj (.text:ti_sysbios_family_arm_ducati_Timer_initDevice__I)

.const.54 
*          0    0001052c    00000004     
                  0001052c    00000004     ping_tasks_pem4.oem4 (.const:ti_sysbios_family_arm_m3_Hwi_nullIsrFunc__C)

.text.55   0    00010530    0000003c     
                  00010530    0000003c     sysbios.aem4 : BIOS.obj (.text:ti_sysbios_family_arm_m3_Hwi_excSvCall__I)

.const.55 
*          0    0001056c    00000004     
                  0001056c    00000004     ping_tasks_pem4.oem4 (.const:ti_sysbios_family_arm_m3_Hwi_priGroup__C)

.text.56   0    00010570    000000b4     
                  00010570    0000003c     sysbios.aem4 : BIOS.obj (.text:ti_sysbios_family_arm_m3_TaskSupport_start__E)
                  000105ac    0000003c     ping_tasks_pem4.oem4 (.text:ti_sysbios_gates_GateHwi_create)
                  000105e8    0000003c     sysbios.aem4 : BIOS.obj (.text:ti_sysbios_hal_Hwi_checkStack)

.const.56 
*          0    00010624    00000004     
                  00010624    00000004     ping_tasks_pem4.oem4 (.const:ti_sysbios_family_arm_m3_TaskSupport_stackAlignment__C)

.text.57   0    00010628    0000003c     
                  00010628    0000003c     sysbios.aem4 : BIOS.obj (.text:ti_sysbios_heaps_HeapBuf_postInit__I)

.const.57 
*          0    00010664    00000004     
                  00010664    00000004     ping_tasks_pem4.oem4 (.const:ti_sysbios_family_shared_vayu_IntXbar_A_badBenelliIpuId__C)

.text.58   0    00010668    0000003c     
                  00010668    0000003c     sysbios.aem4 : BIOS.obj (.text:ti_sysbios_heaps_HeapMem_init__I)

.const.58 
*          0    000106a4    00000004     
                  000106a4    00000004     ping_tasks_pem4.oem4 (.const:ti_sysbios_family_shared_vayu_IntXbar_A_badBenelliXbarInstanceNum__C)

.text.59   0    000106a8    0000003c     
                  000106a8    0000003c     sysbios.aem4 : BIOS.obj (.text:ti_sysbios_knl_Semaphore_pendTimeout__I)

.const.59 
*          0    000106e4    00000004     
                  000106e4    00000004     ping_tasks_pem4.oem4 (.const:ti_sysbios_family_shared_vayu_IntXbar_A_badIntSourceIdx__C)

.text.60   0    000106e8    0000042c     
                  000106e8    0000003c     sysbios.aem4 : BIOS.obj (.text:ti_sysbios_knl_Task_restore__E)
                  00010724    0000003c     ping_tasks_pem4.oem4 (.text:ti_sysbios_timers_dmtimer_Timer_Object__get__S)
                  00010760    0000003c     sysbios.aem4 : BIOS.obj (.text:ti_sysbios_timers_dmtimer_Timer_stop__E)
                  0001079c    0000003c     ti.trace_smp.aem4 : SysMin.oem4 (.text:ti_trace_SysMin_abort__E)
                  000107d8    00000038                       : SysMin.oem4 (.text:SysMin_output)
                  00010810    00000038     ti.deh_vayu_smp.aem4 : Watchdog.oem4 (.text:ti_deh_Watchdog_kick__I)
                  00010848    00000038     ping_tasks_pem4.oem4 (.text:ti_ipc_remoteproc_Resource_init__I)
                  00010880    00000038     sysbios.aem4 : BIOS.obj (.text:ti_sysbios_family_arm_ducati_TimestampProvider_get64__E)
                  000108b8    00000038                  : BIOS.obj (.text:ti_sysbios_family_arm_m3_Hwi_excNoIsr__I)
                  000108f0    00000038                  : BIOS.obj (.text:ti_sysbios_hal_Hwi_initStack)
                  00010928    00000038                  : BIOS.obj (.text:ti_sysbios_hal_unicache_Cache_invAll__E)
                  00010960    00000038                  : BIOS.obj (.text:ti_sysbios_hal_unicache_Cache_wbAll__E)
                  00010998    00000038     ping_tasks_pem4.oem4 (.text:ti_sysbios_knl_Clock_doTick__I)
                  000109d0    00000038     ping_tasks_pem4.oem4 (.text:ti_sysbios_knl_Queue_Object__get__S)
                  00010a08    00000038     sysbios.aem4 : BIOS.obj (.text:ti_sysbios_timers_dmtimer_Timer_postInit__I)
                  00010a40    00000038     ti.targets.arm.rtsarm.aem4 : System.oem4 (.text:xdc_runtime_System_atexit__E)
                  00010a78    00000034     ping_tasks_main.oem4 (.text:main)
                  00010aac    00000034     rtsv7M4_T_le_eabi.lib : feraiseexcept.obj (.text)
                  00010ae0    00000034     sysbios.aem4 : BIOS.obj (.text:ti_sysbios_family_arm_m3_Hwi_excNmi__I)

.const.60 
*          0    00010b14    00000004     
                  00010b14    00000004     ping_tasks_pem4.oem4 (.const:ti_sysbios_family_shared_vayu_IntXbar_Module__diagsEnabled__C)

.text.61   0    00010b18    0000009c     
                  00010b18    00000034     sysbios.aem4 : BIOS.obj (.text:ti_sysbios_heaps_HeapBuf_getStats__E)
                  00010b4c    00000034     ping_tasks_pem4.oem4 (.text:ti_sysbios_knl_Semaphore_construct)
                  00010b80    00000034     sysbios.aem4 : BIOS.obj (.text:ti_sysbios_knl_Swi_restoreSMP__I)

.const.61 
*          0    00010bb4    00000004     
                  00010bb4    00000004     ping_tasks_pem4.oem4 (.const:ti_sysbios_family_shared_vayu_IntXbar_Module__diagsIncluded__C)

.text.62   0    00010bb8    000004ec     
                  00010bb8    00000034     sysbios.aem4 : BIOS.obj (.text:ti_sysbios_knl_Task_restoreHwi__E)
                  00010bec    00000034     ti.targets.arm.rtsarm.aem4 : Core-label.oem4 (.text:xdc_runtime_Core_assignLabel__I)
                  00010c20    00000033                                : Text.oem4 (.text:xdc_runtime_Text_printVisFxn__I)
                  00010c53    00000001     --HOLE-- [fill = 0]
                  00010c54    00000032     sysbios.aem4 : smp_Power_saveCpu.obj (.text:ti_sysbios_family_arm_ducati_smp_Power)
                  00010c86    00000030     rtsv7M4_T_le_eabi.lib : strncpy.obj (.text)
                  00010cb6    00000002     --HOLE-- [fill = 0]
                  00010cb8    00000030                           : xferaise.obj (.text)
                  00010ce8    00000030     ping_tasks_pem4.oem4 (.text:ti_sysbios_BIOS_atExitFunc__I)
                  00010d18    00000030     ping_tasks_pem4.oem4 (.text:ti_sysbios_BIOS_errorRaiseHook__I)
                  00010d48    00000030     ping_tasks_pem4.oem4 (.text:ti_sysbios_BIOS_rtsLock__I)
                  00010d78    00000030     sysbios.aem4 : BIOS.obj (.text:ti_sysbios_family_arm_ducati_Core_startCore1__I)
                  00010da8    00000030                  : BIOS.obj (.text:ti_sysbios_family_arm_ducati_Timer_startup__E)
                  00010dd8    00000030     ping_tasks_pem4.oem4 (.text:ti_sysbios_knl_Queue_construct)
                  00010e08    00000030     sysbios.aem4 : BIOS.obj (.text:ti_sysbios_knl_Task_self__E)
                  00010e38    00000030     ti.targets.arm.rtsarm.aem4 : System.oem4 (.text:xdc_runtime_System_processAtExit__E)
                  00010e68    0000002e     rtsv7M4_T_le_eabi.lib : i_tofd_t2.obj (.text)
                  00010e96    0000002e                           : raise.obj (.text)
                  00010ec4    0000002c     ti.pm_smp_vayu.aem4 : IpcPower.oem4 (.text:IpcPower_postResume)
                  00010ef0    0000002c     ti.deh_vayu_smp.aem4 : StackDbg.oem4 (.text:decode_bl32)
                  00010f1c    0000002c     ping_tasks_pem4.oem4 (.text:ti_sysbios_BIOS_startFunc__I)
                  00010f48    0000002c     sysbios.aem4 : BIOS.obj (.text:ti_sysbios_family_arm_m3_Hwi_Instance_finalize__E)
                  00010f74    0000002c     ping_tasks_pem4.oem4 (.text:ti_sysbios_family_arm_m3_Hwi_Params__init__S)
                  00010fa0    0000002c     ping_tasks_pem4.oem4 (.text:ti_sysbios_gates_GateHwi_Params__init__S)
                  00010fcc    0000002c     ping_tasks_pem4.oem4 (.text:ti_sysbios_knl_Semaphore_Params__init__S)
                  00010ff8    0000002c     ping_tasks_pem4.oem4 (.text:ti_sysbios_knl_Task_Params__init__S)
                  00011024    0000002c     ti.targets.arm.rtsarm.aem4 : Text.oem4 (.text:xdc_runtime_Text_cordText__E)
                  00011050    0000002a     rtsv7M4_T_le_eabi.lib : xdclass.obj (.text)
                  0001107a    0000002a     ti.targets.arm.rtsarm.aem4 : System.oem4 (.text:xdc_runtime_System_putchar__I)

.const.62 
*          0    000110a4    00000004     
                  000110a4    00000004     ping_tasks_pem4.oem4 (.const:ti_sysbios_family_shared_vayu_IntXbar_Module__diagsMask__C)

.text.63   0    000110a8    0000028c     
                  000110a8    00000028     sysbios.aem4 : BIOS.obj (.text:ti_sysbios_family_arm_ducati_TimestampProvider_getFreq__E)
                  000110d0    00000028     ping_tasks_pem4.oem4 (.text:ti_sysbios_gates_GateMutex_Object__delete__S)
                  000110f8    00000028     ping_tasks_pem4.oem4 (.text:ti_sysbios_heaps_HeapBuf_Object__delete__S)
                  00011120    00000028     sysbios.aem4 : BIOS.obj (.text:ti_sysbios_knl_Clock_addI__E)
                  00011148    00000028                  : BIOS.obj (.text:ti_sysbios_knl_Queue_put__E)
                  00011170    00000028     ping_tasks_pem4.oem4 (.text:ti_sysbios_knl_Semaphore_Object__delete__S)
                  00011198    00000028     ti.trace_smp.aem4 : SysMin.oem4 (.text:ti_trace_SysMin_Module_startup__E)
                  000111c0    00000028     ping_tasks_pem4.oem4 (.text:xdc_runtime_System_aprintf__E)
                  000111e8    00000028     ping_tasks_pem4.oem4 (.text:xdc_runtime_System_printf__E)
                  00011210    00000026     ti.targets.arm.rtsarm.aem4 : System.oem4 (.text:xdc_runtime_System_avprintf__E)
                  00011236    00000024     ti.deh_vayu_smp.aem4 : Watchdog.oem4 (.text:ti_deh_Watchdog_taskSwitch__F)
                  0001125a    00000002     --HOLE-- [fill = 0]
                  0001125c    00000024     ping_tasks_pem4.oem4 (.text:ti_sdo_utils_List_Object__delete__S)
                  00011280    00000024     ping_tasks_pem4.oem4 (.text:ti_sysbios_BIOS_registerRTSLock__I)
                  000112a4    00000024     ping_tasks_pem4.oem4 (.text:ti_sysbios_family_arm_ducati_GateSmp_Object__delete__S)
                  000112c8    00000024     sysbios.aem4 : m3_Hwi_asm.obj (.text:ti_sysbios_family_arm_m3_Hwi_pendSV__I)
                  000112ec    00000024     ping_tasks_pem4.oem4 (.text:ti_sysbios_gates_GateHwi_Object__delete__S)
                  00011310    00000024     ping_tasks_pem4.oem4 (.text:ti_sysbios_heaps_HeapMem_Object__delete__S)

.const.63 
*          0    00011334    00000004     
                  00011334    00000004     ping_tasks_pem4.oem4 (.const:ti_sysbios_family_shared_vayu_IntXbar_mmrBaseAddr__C)

.text.64   0    00011338    00000024     
                  00011338    00000024     sysbios.aem4 : BIOS.obj (.text:ti_sysbios_knl_Queue_get__E)

.const.64 
*          0    0001135c    00000004     
                  0001135c    00000004     ping_tasks_pem4.oem4 (.const:ti_sysbios_gates_GateMutex_A_badContext__C)

.text.65   0    00011360    0000006c     
                  00011360    00000024     sysbios.aem4 : BIOS.obj (.text:ti_sysbios_knl_Swi_disable__E)
                  00011384    00000024     ping_tasks_pem4.oem4 (.text:ti_sysbios_knl_Task_Handle__label__S)
                  000113a8    00000024     sysbios.aem4 : BIOS.obj (.text:ti_sysbios_knl_Task_disable__E)

.const.65 
*          0    000113cc    00000004     
                  000113cc    00000004     ping_tasks_pem4.oem4 (.const:ti_sysbios_gates_GateMutex_Instance_State_sem__O)

.text.66   0    000113d0    0000049c     
                  000113d0    00000024     sysbios.aem4 : BIOS.obj (.text:ti_sysbios_timers_dmtimer_Timer_stub__E)
                  000113f4    00000024     ping_tasks_pem4.oem4 (.text:xdc_runtime_LoggerSys_Object__delete__S)
                  00011418    00000024     ti.targets.arm.rtsarm.aem4 : LoggerSys.oem4 (.text:xdc_runtime_LoggerSys_write4__E)
                  0001143c    00000024                                : System.oem4 (.text:xdc_runtime_System_vprintf__E)
                  00011460    00000022     rtsv7M4_T_le_eabi.lib : frexp.obj (.text)
                  00011482    00000022     ping_tasks_pem4.oem4 (.text:ti_deh_StackDbg_walkStack__E)
                  000114a4    00000022     ti.deh_vayu_smp.aem4 : Watchdog.oem4 (.text:ti_deh_Watchdog_swiPrehook__F)
                  000114c6    00000022     ping_tasks_pem4.oem4 (.text:ti_sysbios_family_arm_ducati_GateSmp_Handle__label__S)
                  000114e8    00000022     ping_tasks_pem4.oem4 (.text:ti_sysbios_gates_GateHwi_Handle__label__S)
                  0001150a    00000022     ping_tasks_pem4.oem4 (.text:ti_sysbios_gates_GateMutex_Handle__label__S)
                  0001152c    00000022     ping_tasks_pem4.oem4 (.text:ti_sysbios_heaps_HeapBuf_Handle__label__S)
                  0001154e    00000022     ping_tasks_pem4.oem4 (.text:ti_sysbios_heaps_HeapMem_Handle__label__S)
                  00011570    00000022     ping_tasks_pem4.oem4 (.text:ti_sysbios_knl_Swi_Handle__label__S)
                  00011592    00000022     ping_tasks_pem4.oem4 (.text:xdc_runtime_LoggerSys_Handle__label__S)
                  000115b4    00000022     ti.targets.arm.rtsarm.aem4 : Registry.oem4 (.text:xdc_runtime_Registry_findByNameInList__I)
                  000115d6    00000002     --HOLE-- [fill = 0]
                  000115d8    00000020     ti.deh_vayu_smp.aem4 : Deh.oem4 (.text:ti_deh_Deh_Module_startup__E)
                  000115f8    00000020                          : Watchdog.oem4 (.text:ti_deh_Watchdog_idleBegin__F)
                  00011618    00000020     ping_tasks_pem4.oem4 (.text:ti_sysbios_BIOS_removeRTSLock__I)
                  00011638    00000020     sysbios.aem4 : BIOS.obj (.text:ti_sysbios_family_arm_ducati_Timer_setPeriod__E)
                  00011658    00000020                  : BIOS.obj (.text:ti_sysbios_family_arm_ducati_Timer_stop__E)
                  00011678    00000020                  : m3_Hwi_asm.obj (.text:ti_sysbios_family_arm_m3_Hwi_excHandlerAsm__I)
                  00011698    00000020     ping_tasks_pem4.oem4 (.text:ti_sysbios_hal_Cache_CacheProxy_inv__E)
                  000116b8    00000020     ping_tasks_pem4.oem4 (.text:ti_sysbios_knl_Semaphore_Object__destruct__S)
                  000116d8    00000020     sysbios.aem4 : BIOS.obj (.text:ti_sysbios_timers_dmtimer_Timer_getFreq__E)
                  000116f8    00000020     ti.trace_smp.aem4 : SysMin.oem4 (.text:ti_trace_SysMin_exit__E)
                  00011718    00000020     ping_tasks_pem4.oem4 (.text:xdc_runtime_IHeap_alloc)
                  00011738    00000020     ti.targets.arm.rtsarm.aem4 : LoggerSys.oem4 (.text:xdc_runtime_LoggerSys_write2__E)
                  00011758    00000020                                : Registry.oem4 (.text:xdc_runtime_Registry_findById__E)
                  00011778    00000020     ping_tasks_pem4.oem4 (.text:xdc_runtime_Text_visitRope__I)
                  00011798    0000001e     sysbios.aem4 : m3_Hwi_asm_switch.obj (.text:ti_sysbios_family_xxx_Hwi_switchAndRunFunc)
                  000117b6    0000001e     ping_tasks_pem4.oem4 (.text:ti_sysbios_knl_Task_SupportProxy_start__E)
                  000117d4    0000001e     ti.targets.arm.rtsarm.aem4 : LoggerSys.oem4 (.text:xdc_runtime_LoggerSys_write0__E)
                  000117f2    0000001e                                : LoggerSys.oem4 (.text:xdc_runtime_LoggerSys_write1__E)
                  00011810    0000001e     ping_tasks_pem4.oem4 (.text:xdc_runtime_Memory_HeapProxy_alloc__E)
                  0001182e    0000001c     rtsv7M4_T_le_eabi.lib : memccpy.obj (.text)
                  0001184a    00000006     ti.targets.arm.rtsarm.aem4 : LoggerSys.oem4 (.text:xdc_runtime_LoggerSys_Instance_init__E)
                  00011850    0000001c     ipc.aem4 : Ipc.obj (.text:ti_ipc_family_vayu_VirtQueue_cacheWb)

.const.66 
*          0    0001186c    00000004     
                  0001186c    00000004     ping_tasks_pem4.oem4 (.const:ti_sysbios_gates_GateMutex_Module__diagsEnabled__C)

.text.67   0    00011870    0000001c     
                  00011870    0000001c     ipc.aem4 : Ipc.obj (.text:ti_sdo_ipc_family_vayu_InterruptIpu_intShmMbxStub__I)

.const.67 
*          0    0001188c    00000004     
                  0001188c    00000004     ping_tasks_pem4.oem4 (.const:ti_sysbios_gates_GateMutex_Module__diagsIncluded__C)

.text.68   0    00011890    0000008c     
                  00011890    0000001c     sysbios.aem4 : BIOS.obj (.text:ti_sysbios_family_arm_ducati_GateSmp_leave__E)
                  000118ac    0000001c     ping_tasks_pem4.oem4 (.text:ti_sysbios_family_arm_ducati_Timer_Module__startupDone__F)
                  000118c8    0000001c     ping_tasks_pem4.oem4 (.text:ti_sysbios_family_arm_ducati_Wugen_Module__startupDone__F)
                  000118e4    0000001c     ping_tasks_pem4.oem4 (.text:ti_sysbios_family_arm_m3_Hwi_Module__startupDone__F)
                  00011900    0000001c     ping_tasks_pem4.oem4 (.text:ti_sysbios_family_shared_vayu_TimerSupport_Module__startupDone__F)

.const.68 
*          0    0001191c    00000004     
                  0001191c    00000004     ping_tasks_pem4.oem4 (.const:ti_sysbios_gates_GateMutex_Module__diagsMask__C)

.text.69   0    00011920    00000294     
                  00011920    0000001c     sysbios.aem4 : BIOS.obj (.text:ti_sysbios_gates_GateMutex_Instance_init__E)
                  0001193c    0000001c     ping_tasks_pem4.oem4 (.text:ti_sysbios_knl_Queue_Object__destruct__S)
                  00011958    0000001c     ping_tasks_pem4.oem4 (.text:ti_sysbios_timers_dmtimer_Timer_Module__startupDone__F)
                  00011974    0000001c     ti.targets.arm.rtsarm.aem4 : Error.oem4 (.text:xdc_runtime_Error_raiseX__E)
                  00011990    0000001c                                : Memory.oem4 (.text:xdc_runtime_Memory_valloc__E)
                  000119ac    0000001c     ping_tasks_pem4.oem4 (.text:xdc_runtime_Startup_exec__I)
                  000119c8    0000001c     ti.targets.arm.rtsarm.aem4 : System.oem4 (.text:xdc_runtime_System_abort__E)
                  000119e4    0000001a     ping_tasks_pem4.oem4 (.text:xdc_runtime_IHeap_free)
                  000119fe    00000002     --HOLE-- [fill = 0]
                  00011a00    00000018     ti.pm_smp_vayu.aem4 : IpcPower.oem4 (.text:IpcPower_preSuspend)
                  00011a18    00000018     rtsv7M4_T_le_eabi.lib : args_main.obj (.text)
                  00011a30    00000018                           : strcmp.obj (.text)
                  00011a48    00000018     ping_tasks_pem4.oem4 (.text:ti_sdo_ipc_family_vayu_NotifySetup_plugHwi__E)
                  00011a60    00000018     sysbios.aem4 : BIOS.obj (.text:ti_sysbios_BIOS_setThreadType__E)
                  00011a78    00000018                  : BIOS.obj (.text:ti_sysbios_gates_GateMutex_leave__E)
                  00011a90    00000018     ping_tasks_pem4.oem4 (.text:ti_sysbios_hal_Hwi_HwiProxy_getCoreStackInfo__E)
                  00011aa8    00000018     sysbios.aem4 : BIOS.obj (.text:ti_sysbios_knl_Task_enter__I)
                  00011ac0    00000018     ti.targets.arm.rtsarm.aem4 : Error.oem4 (.text:xdc_runtime_Error_check__E)
                  00011ad8    00000018                                : System.oem4 (.text:xdc_runtime_System_exit__E)
                  00011af0    00000018                                : Text.oem4 (.text:xdc_runtime_Text_ropeText__E)
                  00011b08    00000016     rtsv7M4_T_le_eabi.lib : strchr.obj (.text)
                  00011b1e    00000016     ping_tasks_pem4.oem4 (.text:ti_sysbios_BIOS_exitFunc__I)
                  00011b34    00000016     ti.deh_vayu_smp.aem4 : Watchdog.oem4 (.text:ti_sysbios_family_arm_m3_Hwi_Params_init)
                  00011b4a    00000016                          : Deh.oem4 (.text:ti_sysbios_knl_Swi_Handle_name)
                  00011b60    00000016                          : Deh.oem4 (.text:ti_sysbios_knl_Task_Handle_name)
                  00011b76    00000016     ping_tasks.oem4 (.text:ti_sysbios_knl_Task_Params_init)
                  00011b8c    00000014     rtsv7M4_T_le_eabi.lib : _lock.obj (.text)
                  00011ba0    00000014                           : strlen.obj (.text)

.const.69 
*          0    00011bb4    00000004     
                  00011bb4    00000004     ping_tasks_pem4.oem4 (.const:ti_sysbios_hal_Hwi_E_stackOverflow__C)

.text.70   0    00011bb8    00000014     
                  00011bb8    00000014     sysbios.aem4 : BIOS.obj (.text:ti_sysbios_BIOS_getThreadType__E)

.const.70 
*          0    00011bcc    00000004     
                  00011bcc    00000004     ping_tasks_pem4.oem4 (.const:ti_sysbios_hal_ammu_AMMU_numLargePages__C)

.text.71   0    00011bd0    00000014     
                  00011bd0    00000014     sysbios.aem4 : BIOS.obj (.text:ti_sysbios_family_arm_ducati_Core_Module_startup__E)

.const.71 
*          0    00011be4    00000004     
                  00011be4    00000004     ping_tasks_pem4.oem4 (.const:ti_sysbios_hal_ammu_AMMU_numLinePages__C)

.text.72   0    00011be8    0000003c     
                  00011be8    00000014     sysbios.aem4 : BIOS.obj (.text:ti_sysbios_family_arm_m3_Hwi_switchFromBootStack__E)
                  00011bfc    00000014     ping_tasks_pem4.oem4 (.text:ti_sysbios_knl_Clock_Module_State_clockQ)
                  00011c10    00000014     ping_tasks_pem4.oem4 (.text:xdc_runtime_Memory_HeapProxy_free__E)

.const.72 
*          0    00011c24    00000004     
                  00011c24    00000004     ping_tasks_pem4.oem4 (.const:ti_sysbios_hal_ammu_AMMU_numMediumPages__C)

.text.73   0    00011c28    0000002a     
                  00011c28    00000012     sysbios.aem4 : BIOS.obj (.text:ti_sysbios_family_shared_vayu_TimerSupport_Module_startup__E)
                  00011c3a    00000006     ti.targets.arm.rtsarm.aem4 : System.oem4 (.text:xdc_runtime_System_Module_startup__E)
                  00011c40    00000012     sysbios.aem4 : BIOS.obj (.text:ti_sysbios_hal_Hwi_Module_startup__E)

.const.73 
*          0    00011c54    00000004     
                  00011c54    00000004     ping_tasks_pem4.oem4 (.const:ti_sysbios_hal_ammu_AMMU_numSmallPages__C)

.text.74   0    00011c58    00000012     
                  00011c58    00000012     sysbios.aem4 : BIOS.obj (.text:ti_sysbios_hal_Timer_Module_startup__E)

.const.74 
*          0    00011c6c    00000004     
                  00011c6c    00000004     ping_tasks_pem4.oem4 (.const:ti_sysbios_hal_unicache_Cache_Module__gateObj__C)

.text.75   0    00011c70    00000044     
                  00011c70    00000012     sysbios.aem4 : BIOS.obj (.text:ti_sysbios_knl_Clock_Module_startup__E)
                  00011c82    00000012     ti.targets.arm.rtsarm.aem4 : System.oem4 (.text:xdc_runtime_System_putch__E)
                  00011c94    00000010     ping_tasks_pem4.oem4 (.text:ti_deh_Deh_excHandler__E)
                  00011ca4    00000010     ping_tasks_pem4.oem4 (.text:ti_deh_Watchdog_taskSwitch__E)

.const.75 
*          0    00011cb4    00000004     
                  00011cb4    00000004     ping_tasks_pem4.oem4 (.const:ti_sysbios_hal_unicache_Cache_l1ocpConfig__C)

.text.76   0    00011cb8    000001dc     
                  00011cb8    00000010     ipc.aem4 : Ipc.obj (.text:ti_sdo_ipc_family_vayu_NotifySetup_interruptTable__F)
                  00011cc8    00000010     ping_tasks_pem4.oem4 (.text:ti_sysbios_BIOS_RtsGateProxy_leave__E)
                  00011cd8    00000010     sysbios.aem4 : BIOS.obj (.text:ti_sysbios_BIOS_start__E)
                  00011ce8    00000010                  : BIOS.obj (.text:ti_sysbios_family_arm_m3_Hwi_excHandler__I)
                  00011cf8    00000010                  : m3_TaskSupport_asm.obj (.text:ti_sysbios_family_arm_m3_TaskSupport_glue)
                  00011d08    00000010                  : m3_TaskSupport_asm.obj (.text:ti_sysbios_family_arm_m3_TaskSupport_swap__E)
                  00011d18    00000010                  : BIOS.obj (.text:ti_sysbios_gates_GateMutex_Instance_finalize__E)
                  00011d28    00000010     ping_tasks_pem4.oem4 (.text:ti_sysbios_hal_unicache_Cache_Module_GateProxy_leave__E)
                  00011d38    00000010     sysbios.aem4 : BIOS.obj (.text:ti_sysbios_heaps_HeapBuf_Instance_finalize__E)
                  00011d48    00000010     ping_tasks_pem4.oem4 (.text:ti_sysbios_heaps_HeapMem_Module_GateProxy_leave__E)
                  00011d58    00000010     sysbios.aem4 : BIOS.obj (.text:ti_sysbios_knl_Semaphore_Instance_finalize__E)
                  00011d68    00000010     ping_tasks_pem4.oem4 (.text:ti_sysbios_knl_Task_SupportProxy_checkStack__E)
                  00011d78    00000010     ping_tasks_pem4.oem4 (.text:ti_sysbios_knl_Task_SupportProxy_swap__E)
                  00011d88    00000010     ti.deh_vayu_smp.aem4 : Watchdog.oem4 (.text:ti_sysbios_timers_dmtimer_Timer_Object_get)
                  00011d98    00000010     ping_tasks_pem4.oem4 (.text:ti_sysbios_timers_dmtimer_Timer_TimerSupportProxy_enable__E)
                  00011da8    00000010     ti.trace_smp.aem4 : SysMin.oem4 (.text:ti_trace_SysMin_ready__E)
                  00011db8    00000010     ti.targets.arm.rtsarm.aem4 : Gate.oem4 (.text:xdc_runtime_Gate_leaveSystem__E)
                  00011dc8    00000010                                : Memory.oem4 (.text:xdc_runtime_Memory_free__E)
                  00011dd8    00000010     ping_tasks_pem4.oem4 (.text:xdc_runtime_System_Module_GateProxy_leave__E)
                  00011de8    00000010     ping_tasks_pem4.oem4 (.text:xdc_runtime_System_SupportProxy_putch__E)
                  00011df8    00000010     ti.targets.arm.rtsarm.aem4 : System.oem4 (.text:xdc_runtime_System_vsnprintf__E)
                  00011e08    0000000e     rtsv7M4_T_le_eabi.lib : copy_decompress_none.obj (.text:decompress:none)
                  00011e16    00000002     --HOLE-- [fill = 0]
                  00011e18    0000000e     sysbios.aem4 : BIOS.obj (.text:ti_sysbios_family_arm_ducati_GateSmp_Instance_init__E)
                  00011e26    00000002     --HOLE-- [fill = 0]
                  00011e28    0000000e                  : BIOS.obj (.text:ti_sysbios_family_shared_vayu_TimerSupport_enable__E)
                  00011e36    00000002     --HOLE-- [fill = 0]
                  00011e38    0000000e                  : BIOS.obj (.text:ti_sysbios_knl_Idle_loop__E)
                  00011e46    00000002     --HOLE-- [fill = 0]
                  00011e48    0000000e                  : BIOS.obj (.text:ti_sysbios_knl_Queue_empty__E)
                  00011e56    00000002     --HOLE-- [fill = 0]
                  00011e58    0000000c     ipc.aem4 : Ipc.obj (.text:MultiProc_self)
                  00011e64    0000000c     rtsv7M4_T_le_eabi.lib : copy_zero_init.obj (.text:decompress:ZI)
                  00011e70    0000000c     ping_tasks_pem4.oem4 (.text:ti_deh_Watchdog_init__E)
                  00011e7c    0000000c     ping_tasks_pem4.oem4 (.text:ti_deh_Watchdog_isException__E)
                  00011e88    0000000c     ping_tasks_pem4.oem4 (.text:ti_deh_Watchdog_swiPrehook__E)

.const.76 
*          0    00011e94    00000004     
                  00011e94    00000004     ping_tasks_pem4.oem4 (.const:ti_sysbios_hal_unicache_Cache_l1secConfig__C)

.text.77   0    00011e98    0000003c     
                  00011e98    0000000c     ipc.aem4 : Ipc.obj (.text:ti_ipc_remoteproc_Resource_Module_startup__E)
                  00011ea4    0000000c     ping_tasks_pem4.oem4 (.text:ti_sdo_ipc_family_vayu_NotifySetup_interruptTable__E)
                  00011eb0    0000000c     ping_tasks_pem4.oem4 (.text:ti_sdo_utils_List_delete)
                  00011ebc    0000000c     ping_tasks_pem4.oem4 (.text:ti_sysbios_BIOS_RtsGateProxy_enter__E)
                  00011ec8    0000000c     sysbios.aem4 : BIOS.obj (.text:ti_sysbios_family_arm_ducati_Core_getId__E)

.const.77 
*          0    00011ed4    00000004     
                  00011ed4    00000004     ping_tasks_pem4.oem4 (.const:ti_sysbios_hal_unicache_Cache_l2ocpConfig__C)

.text.78   0    00011ed8    0000000c     
                  00011ed8    0000000c     sysbios.aem4 : BIOS.obj (.text:ti_sysbios_family_arm_m3_Hwi_disableFxn__E)

.const.78 
*          0    00011ee4    00000004     
                  00011ee4    00000004     ping_tasks_pem4.oem4 (.const:ti_sysbios_hal_unicache_Cache_l2secConfig__C)

.text.79   0    00011ee8    0000000c     
                  00011ee8    0000000c     sysbios.aem4 : BIOS.obj (.text:ti_sysbios_family_arm_m3_TaskSupport_checkStack__E)

.const.79 
*          0    00011ef4    00000004     
                  00011ef4    00000004     ping_tasks_pem4.oem4 (.const:ti_sysbios_hal_unicache_Cache_maxLineModeBufSize__C)

.text.80   0    00011ef8    0000006c     
                  00011ef8    0000000c     sysbios.aem4 : BIOS.obj (.text:ti_sysbios_family_arm_m3_TaskSupport_getStackAlignment__E)
                  00011f04    0000000c     ping_tasks_pem4.oem4 (.text:ti_sysbios_gates_GateHwi_delete)
                  00011f10    0000000c     sysbios.aem4 : BIOS.obj (.text:ti_sysbios_gates_GateHwi_enter__E)
                  00011f1c    0000000c     ping_tasks_pem4.oem4 (.text:ti_sysbios_hal_Hwi_HwiProxy_clearInterrupt__E)
                  00011f28    0000000c     ping_tasks_pem4.oem4 (.text:ti_sysbios_hal_Hwi_HwiProxy_disableInterrupt__E)
                  00011f34    0000000c     ping_tasks_pem4.oem4 (.text:ti_sysbios_hal_Hwi_HwiProxy_enableInterrupt__E)
                  00011f40    0000000c     ping_tasks_pem4.oem4 (.text:ti_sysbios_hal_unicache_Cache_Module_GateProxy_enter__E)
                  00011f4c    0000000c     ping_tasks_pem4.oem4 (.text:ti_sysbios_heaps_HeapMem_Module_GateProxy_enter__E)
                  00011f58    0000000c     ping_tasks_pem4.oem4 (.text:ti_sysbios_heaps_HeapMem_Module_GateProxy_query__E)

.const.80 
*          0    00011f64    00000004     
                  00011f64    00000004     ping_tasks_pem4.oem4 (.const:ti_sysbios_heaps_HeapBuf_A_bufAlign__C)

.text.81   0    00011f68    000001dc     
                  00011f68    0000000c     sysbios.aem4 : BIOS.obj (.text:ti_sysbios_knl_Clock_getTicks__E)
                  00011f74    0000000c     ping_tasks_pem4.oem4 (.text:ti_sysbios_knl_Queue_destruct)
                  00011f80    0000000c     ping_tasks_pem4.oem4 (.text:ti_sysbios_knl_Semaphore_delete)
                  00011f8c    0000000c     ping_tasks_pem4.oem4 (.text:ti_sysbios_knl_Semaphore_destruct)
                  00011f98    0000000c     sysbios.aem4 : BIOS.obj (.text:ti_sysbios_knl_Swi_self__E)
                  00011fa4    0000000c     ping_tasks_pem4.oem4 (.text:xdc_iargToPtr)
                  00011fb0    0000000c     ti.targets.arm.rtsarm.aem4 : Error.oem4 (.text:xdc_runtime_Error_init__E)
                  00011fbc    0000000c                                : Gate.oem4 (.text:xdc_runtime_Gate_enterSystem__E)
                  00011fc8    0000000c     ping_tasks_pem4.oem4 (.text:xdc_runtime_LoggerSys_TimestampProxy_get64__E)
                  00011fd4    0000000c     ti.targets.arm.rtsarm.aem4 : Memory.oem4 (.text:xdc_runtime_Memory_calloc__E)
                  00011fe0    0000000c                                : Memory.oem4 (.text:xdc_runtime_Memory_getMaxDefaultTypeAlign__E)
                  00011fec    0000000c                                : Registry.oem4 (.text:xdc_runtime_Registry_findByName__E)
                  00011ff8    0000000c     ping_tasks_pem4.oem4 (.text:xdc_runtime_System_Module_GateProxy_enter__E)
                  00012004    0000000c     ping_tasks_pem4.oem4 (.text:xdc_runtime_System_SupportProxy_abort__E)
                  00012010    0000000c     ping_tasks_pem4.oem4 (.text:xdc_runtime_System_SupportProxy_exit__E)
                  0001201c    0000000c     ping_tasks_pem4.oem4 (.text:xdc_runtime_Timestamp_SupportProxy_getFreq__E)
                  00012028    0000000a     ipc.aem4 : Ipc.obj (.text:VirtQueue_postCrashToMailbox)
                  00012032    0000000a     ti.targets.arm.rtsarm.aem4 : LoggerSys.oem4 (.text:xdc_runtime_LoggerSys_disable__E)
                  0001203c    0000000a                                : LoggerSys.oem4 (.text:xdc_runtime_LoggerSys_enable__E)
                  00012046    00000008     ping_tasks_pem4.oem4 (.text:VirtQueue_cacheWb)
                  0001204e    00000008     ping_tasks_pem4.oem4 (.text:ti_deh_Deh_idleBegin__E)
                  00012056    00000008     ti.deh_vayu_smp.aem4 : Deh.oem4 (.text:ti_deh_Deh_idleBegin__F)
                  0001205e    00000008     ping_tasks_pem4.oem4 (.text:ti_deh_Watchdog_idleBegin__E)
                  00012066    00000008     ping_tasks_pem4.oem4 (.text:ti_sysbios_family_arm_ducati_Timer_Module__startupDone__S)
                  0001206e    00000008     ping_tasks_pem4.oem4 (.text:ti_sysbios_family_arm_ducati_Wugen_Module__startupDone__S)
                  00012076    00000008     ping_tasks_pem4.oem4 (.text:ti_sysbios_family_arm_m3_Hwi_Module__startupDone__S)
                  0001207e    00000002     --HOLE-- [fill = 0]
                  00012080    00000008     sysbios.aem4 : BIOS.obj (.text:ti_sysbios_family_arm_m3_Hwi_doSwiRestore__I)
                  00012088    00000008     ping_tasks_pem4.oem4 (.text:ti_sysbios_family_shared_vayu_TimerSupport_Module__startupDone__S)
                  00012090    00000008     ping_tasks_pem4.oem4 (.text:ti_sysbios_hal_Cache_CacheProxy_wbAll__E)
                  00012098    00000008     ping_tasks_pem4.oem4 (.text:ti_sysbios_hal_Core_CoreProxy_getId__E)
                  000120a0    00000008     ping_tasks_pem4.oem4 (.text:ti_sysbios_hal_Hwi_HwiProxy_Module__startupDone__S)
                  000120a8    00000008     ping_tasks_pem4.oem4 (.text:ti_sysbios_hal_Hwi_HwiProxy_startup__E)
                  000120b0    00000008     ping_tasks_pem4.oem4 (.text:ti_sysbios_hal_Hwi_HwiProxy_switchFromBootStack__E)
                  000120b8    00000008     ping_tasks_pem4.oem4 (.text:ti_sysbios_hal_Timer_TimerProxy_Module__startupDone__S)
                  000120c0    00000008     ping_tasks_pem4.oem4 (.text:ti_sysbios_knl_Clock_TimerProxy_Module__startupDone__S)
                  000120c8    00000008     ping_tasks_pem4.oem4 (.text:ti_sysbios_knl_Task_SupportProxy_Module__startupDone__S)
                  000120d0    00000008     ping_tasks_pem4.oem4 (.text:ti_sysbios_knl_Task_SupportProxy_getStackAlignment__E)
                  000120d8    00000008     ping_tasks_pem4.oem4 (.text:ti_sysbios_timers_dmtimer_Timer_Module__startupDone__S)
                  000120e0    00000008     ping_tasks_pem4.oem4 (.text:ti_sysbios_timers_dmtimer_Timer_TimerSupportProxy_Module__startupDone__S)
                  000120e8    00000008     ping_tasks_pem4.oem4 (.text:xdc_runtime_Startup_reset__I)
                  000120f0    00000008     ping_tasks_pem4.oem4 (.text:xdc_runtime_System_SupportProxy_ready__E)
                  000120f8    00000008     ping_tasks_pem4.oem4 (.text:xdc_runtime_Timestamp_SupportProxy_get32__E)
                  00012100    00000006     ipc.aem4 : Ipc.obj (.text:ti_sdo_utils_List_Instance_init__E)
                  00012106    00000002     --HOLE-- [fill = 0]
                  00012108    00000006     sysbios.aem4 : BIOS.obj (.text:ti_sysbios_family_arm_ducati_Wugen_Module_startup__E)
                  0001210e    00000002     --HOLE-- [fill = 0]
                  00012110    00000006                  : BIOS.obj (.text:ti_sysbios_family_arm_m3_Hwi_doTaskRestore__I)
                  00012116    00000002     --HOLE-- [fill = 0]
                  00012118    00000006                  : BIOS.obj (.text:ti_sysbios_gates_GateHwi_leave__E)
                  0001211e    00000002     --HOLE-- [fill = 0]
                  00012120    00000006                  : BIOS.obj (.text:ti_sysbios_heaps_HeapMem_isBlocking__E)
                  00012126    00000002     --HOLE-- [fill = 0]
                  00012128    00000006                  : BIOS.obj (.text:ti_sysbios_knl_Queue_Instance_init__E)
                  0001212e    00000002     --HOLE-- [fill = 0]
                  00012130    00000006                  : BIOS.obj (.text:ti_sysbios_knl_Swi_startup__E)
                  00012136    00000002     --HOLE-- [fill = 0]
                  00012138    00000006                  : BIOS.obj (.text:ti_sysbios_knl_Task_startup__E)
                  0001213e    00000002     --HOLE-- [fill = 0]
                  00012140    00000004                  : BIOS.obj (.text:ti_sysbios_family_arm_ducati_GateSmp_query__E)

.const.81 
*          0    00012144    00000004     
                  00012144    00000004     ping_tasks_pem4.oem4 (.const:ti_sysbios_heaps_HeapBuf_A_invalidAlign__C)

.text.82   0    00012148    00000004     
                  00012148    00000004     sysbios.aem4 : BIOS.obj (.text:ti_sysbios_family_arm_m3_Hwi_startup__E)

.const.82 
*          0    0001214c    00000004     
                  0001214c    00000004     ping_tasks_pem4.oem4 (.const:ti_sysbios_heaps_HeapBuf_A_invalidBufSize__C)

.text.83   0    00012150    00000004     
                  00012150    00000004     sysbios.aem4 : BIOS.obj (.text:ti_sysbios_gates_GateHwi_query__E)

.const.83 
*          0    00012154    00000004     
                  00012154    00000004     ping_tasks_pem4.oem4 (.const:ti_sysbios_heaps_HeapBuf_A_invalidFree__C)

.text.84   0    00012158    00000004     
                  00012158    00000004     sysbios.aem4 : BIOS.obj (.text:ti_sysbios_gates_GateMutex_query__E)

.const.84 
*          0    0001215c    00000004     
                  0001215c    00000004     ping_tasks_pem4.oem4 (.const:ti_sysbios_heaps_HeapBuf_A_invalidRequestedAlign__C)

.text.85   0    00012160    00000004     
                  00012160    00000004     sysbios.aem4 : BIOS.obj (.text:ti_sysbios_heaps_HeapBuf_isBlocking__E)

.const.85 
*          0    00012164    00000004     
                  00012164    00000004     ping_tasks_pem4.oem4 (.const:ti_sysbios_heaps_HeapBuf_A_noBlocksToFree__C)

.text.86   0    00012168    00000004     
                  00012168    00000004     sysbios.aem4 : BIOS.obj (.text:ti_sysbios_timers_dmtimer_Timer_restoreRegisters__E)

.const.86 
*          0    0001216c    00000004     
                  0001216c    00000004     ping_tasks_pem4.oem4 (.const:ti_sysbios_heaps_HeapBuf_A_nullBuf__C)

.text.87   0    00012170    00000002     
                  00012170    00000002     sysbios.aem4 : BIOS.obj (.text:ti_sysbios_gates_GateHwi_Instance_init__E)

.const.87 
*          0    00012174    00003c06     
                  00012174    000027ba     ping_tasks_pem4.oem4 (.const:xdc_runtime_Text_charTab__A)
                  0001492e    00000002     ping_tasks_pem4.oem4 (.const:ti_sdo_ipc_family_vayu_InterruptIpu_Module__id__C)
                  00014930    000004b8     ping_tasks_pem4.oem4 (.const:ti_sysbios_hal_ammu_AMMU_mmuInitConfig__C)
                  00014de8    000001e4     ping_tasks_pem4.oem4 (.const:ti_sdo_ipc_family_vayu_InterruptIpu_mailboxTable__C)
                  00014fcc    000001e4     ping_tasks_pem4.oem4 (.const:ti_sdo_ipc_family_vayu_NotifySetup_mailboxTable__C)
                  000151b0    0000015c     ping_tasks_pem4.oem4 (.const:xdc_runtime_Text_nodeTab__A)
                  0001530c    00000101     rtsv7M4_T_le_eabi.lib : ctype.obj (.const:.string:_ctypes_)
                  0001540d    00000001     ping_tasks_pem4.oem4 (.const:ti_sysbios_family_arm_ducati_TimestampProvider_inpsel__C)
                  0001540e    00000002     ping_tasks_pem4.oem4 (.const:ti_sdo_utils_MultiProc_Module__id__C)
                  00015410    00000070     ping_tasks_pem4.oem4 (.const:.string)
                  00015480    00000048     ping_tasks_pem4.oem4 (.const:xdc_runtime_Startup_sfxnTab__A)
                  000154c8    00000040     ping_tasks_pem4.oem4 (.const:ti_sdo_ipc_family_vayu_InterruptIpu_mailboxBaseAddr__C)
                  00015508    00000040     ping_tasks_pem4.oem4 (.const:ti_sdo_ipc_family_vayu_NotifySetup_mailboxBaseAddr__C)
                  00015548    0000003c     ping_tasks_pem4.oem4 (.const:ti_sysbios_knl_Task_Object__PARAMS__C)
                  00015584    00000034     ping_tasks_pem4.oem4 (.const:xdc_runtime_LoggerSys_Module__FXNS__C)
                  000155b8    00000030     ping_tasks_pem4.oem4 (.const:ti_sysbios_family_arm_m3_Hwi_Object__PARAMS__C)
                  000155e8    0000002c     ping_tasks_pem4.oem4 (.const:ti_sdo_ipc_family_vayu_InterruptIpu_procIdTable__C)
                  00015614    0000002c     ping_tasks_pem4.oem4 (.const:ti_sdo_ipc_family_vayu_NotifySetup_procIdTable__C)
                  00015640    0000002c     ping_tasks_pem4.oem4 (.const:ti_sysbios_heaps_HeapBuf_Object__PARAMS__C)
                  0001566c    00000028     ping_tasks_pem4.oem4 (.const:ti_sysbios_heaps_HeapBuf_Module__FXNS__C)
                  00015694    00000028     ping_tasks_pem4.oem4 (.const:ti_sysbios_heaps_HeapMem_Module__FXNS__C)
                  000156bc    00000028     ping_tasks_pem4.oem4 (.const:ti_sysbios_knl_Swi_Object__PARAMS__C)
                  000156e4    00000024     ping_tasks_pem4.oem4 (.const:ti_sysbios_family_arm_ducati_GateSmp_Module__FXNS__C)
                  00015708    00000024     ping_tasks_pem4.oem4 (.const:ti_sysbios_gates_GateHwi_Module__FXNS__C)
                  0001572c    00000024     ping_tasks_pem4.oem4 (.const:ti_sysbios_gates_GateMutex_Module__FXNS__C)
                  00015750    00000024     ping_tasks_pem4.oem4 (.const:ti_sysbios_heaps_HeapMem_Object__PARAMS__C)
                  00015774    00000024     ping_tasks_pem4.oem4 (.const:ti_sysbios_knl_Semaphore_Object__PARAMS__C)
                  00015798    00000024     ping_tasks_pem4.oem4 (.const:xdc_runtime_Startup_sfxnRts__A)
                  000157bc    00000020     ping_tasks_pem4.oem4 (.const:ti_sdo_utils_List_Object__DESC__C)
                  000157dc    00000020     ping_tasks_pem4.oem4 (.const:ti_sysbios_family_arm_ducati_GateSmp_Object__DESC__C)
                  000157fc    00000020     ping_tasks_pem4.oem4 (.const:ti_sysbios_family_arm_m3_Hwi_Object__DESC__C)
                  0001581c    00000020     ping_tasks_pem4.oem4 (.const:ti_sysbios_gates_GateHwi_Object__DESC__C)
                  0001583c    00000020     ping_tasks_pem4.oem4 (.const:ti_sysbios_gates_GateMutex_Object__DESC__C)
                  0001585c    00000020     ping_tasks_pem4.oem4 (.const:ti_sysbios_heaps_HeapBuf_Object__DESC__C)
                  0001587c    00000020     ping_tasks_pem4.oem4 (.const:ti_sysbios_heaps_HeapMem_Object__DESC__C)
                  0001589c    00000020     ping_tasks_pem4.oem4 (.const:ti_sysbios_knl_Idle_coreList__A)
                  000158bc    00000020     ping_tasks_pem4.oem4 (.const:ti_sysbios_knl_Idle_funcList__A)
                  000158dc    00000020     ping_tasks_pem4.oem4 (.const:ti_sysbios_knl_Queue_Object__DESC__C)
                  000158fc    00000020     ping_tasks_pem4.oem4 (.const:ti_sysbios_knl_Semaphore_Object__DESC__C)
                  0001591c    00000020     ping_tasks_pem4.oem4 (.const:ti_sysbios_knl_Swi_Object__DESC__C)
                  0001593c    00000020     ping_tasks_pem4.oem4 (.const:ti_sysbios_knl_Task_Object__DESC__C)
                  0001595c    00000020     ping_tasks_pem4.oem4 (.const:xdc_runtime_LoggerSys_Object__DESC__C)
                  0001597c    00000018     ping_tasks_pem4.oem4 (.const:ti_sdo_utils_List_Object__PARAMS__C)
                  00015994    00000018     ping_tasks_pem4.oem4 (.const:ti_sysbios_family_arm_ducati_GateSmp_Object__PARAMS__C)
                  000159ac    00000018     ping_tasks_pem4.oem4 (.const:ti_sysbios_gates_GateHwi_Object__PARAMS__C)
                  000159c4    00000018     ping_tasks_pem4.oem4 (.const:ti_sysbios_gates_GateMutex_Object__PARAMS__C)
                  000159dc    00000018     ping_tasks_pem4.oem4 (.const:ti_sysbios_knl_Queue_Object__PARAMS__C)
                  000159f4    00000018     ping_tasks_pem4.oem4 (.const:ti_sysbios_knl_Swi_hooks__A)
                  00015a0c    00000018     ping_tasks_pem4.oem4 (.const:ti_sysbios_knl_Task_hooks__A)
                  00015a24    00000018     ping_tasks_pem4.oem4 (.const:xdc_runtime_LoggerSys_Object__PARAMS__C)
                  00015a3c    00000014     ping_tasks_pem4.oem4 (.const:ti_sdo_utils_MultiProc_nameList__A)
                  00015a50    00000012     ti.trace_smp.aem4 : SysMin.oem4 (.const:.string)
                  00015a62    00000011     ti.targets.arm.rtsarm.aem4 : System.oem4 (.const:.string)
                  00015a73    00000001     ping_tasks_pem4.oem4 (.const:xdc_runtime_Error_policy__C)
                  00015a74    00000010     ping_tasks_pem4.oem4 (.const:xdc_runtime_Startup_firstFxns__A)
                  00015a84    00000008     ping_tasks_pem4.oem4 (.const)
                  00015a8c    00000008     ping_tasks_pem4.oem4 (.const:ti_sysbios_family_arm_ducati_smp_Power_postSuspendHooks__C)
                  00015a94    00000008     ping_tasks_pem4.oem4 (.const:ti_sysbios_family_arm_ducati_smp_Power_preSuspendHooks__C)
                  00015a9c    00000008     ping_tasks_pem4.oem4 (.const:ti_sysbios_knl_Idle_coreList__C)
                  00015aa4    00000008     ping_tasks_pem4.oem4 (.const:ti_sysbios_knl_Idle_funcList__C)
                  00015aac    00000008     ping_tasks_pem4.oem4 (.const:ti_sysbios_knl_Swi_hooks__C)
                  00015ab4    00000008     ping_tasks_pem4.oem4 (.const:ti_sysbios_knl_Task_hooks__C)
                  00015abc    00000008     ping_tasks_pem4.oem4 (.const:xdc_runtime_Startup_firstFxns__C)
                  00015ac4    00000008     ping_tasks_pem4.oem4 (.const:xdc_runtime_Startup_lastFxns__C)
                  00015acc    00000004     ping_tasks_pem4.oem4 (.const:ti_sysbios_heaps_HeapBuf_A_zeroBlockSize__C)
                  00015ad0    00000004     ping_tasks_pem4.oem4 (.const:ti_sysbios_heaps_HeapBuf_A_zeroBlocks__C)
                  00015ad4    00000004     ping_tasks_pem4.oem4 (.const:ti_sysbios_heaps_HeapBuf_A_zeroBufSize__C)
                  00015ad8    00000004     ping_tasks_pem4.oem4 (.const:ti_sysbios_heaps_HeapBuf_E_size__C)
                  00015adc    00000004     ping_tasks_pem4.oem4 (.const:ti_sysbios_heaps_HeapBuf_Instance_State_freeList__O)
                  00015ae0    00000004     ping_tasks_pem4.oem4 (.const:ti_sysbios_heaps_HeapBuf_Module__diagsEnabled__C)
                  00015ae4    00000004     ping_tasks_pem4.oem4 (.const:ti_sysbios_heaps_HeapBuf_Module__diagsIncluded__C)
                  00015ae8    00000004     ping_tasks_pem4.oem4 (.const:ti_sysbios_heaps_HeapBuf_Module__diagsMask__C)
                  00015aec    00000004     ping_tasks_pem4.oem4 (.const:ti_sysbios_heaps_HeapBuf_Object__count__C)
                  00015af0    00000004     ping_tasks_pem4.oem4 (.const:ti_sysbios_heaps_HeapBuf_Object__table__C)
                  00015af4    00000004     ping_tasks_pem4.oem4 (.const:ti_sysbios_heaps_HeapBuf_numConstructedHeaps__C)
                  00015af8    00000004     ping_tasks_pem4.oem4 (.const:ti_sysbios_heaps_HeapMem_A_align__C)
                  00015afc    00000004     ping_tasks_pem4.oem4 (.const:ti_sysbios_heaps_HeapMem_A_heapSize__C)
                  00015b00    00000004     ping_tasks_pem4.oem4 (.const:ti_sysbios_heaps_HeapMem_A_invalidFree__C)
                  00015b04    00000004     ping_tasks_pem4.oem4 (.const:ti_sysbios_heaps_HeapMem_A_zeroBlock__C)
                  00015b08    00000004     ping_tasks_pem4.oem4 (.const:ti_sysbios_heaps_HeapMem_E_memory__C)
                  00015b0c    00000004     ping_tasks_pem4.oem4 (.const:ti_sysbios_heaps_HeapMem_Module__diagsEnabled__C)
                  00015b10    00000004     ping_tasks_pem4.oem4 (.const:ti_sysbios_heaps_HeapMem_Module__diagsIncluded__C)
                  00015b14    00000004     ping_tasks_pem4.oem4 (.const:ti_sysbios_heaps_HeapMem_Module__diagsMask__C)
                  00015b18    00000004     ping_tasks_pem4.oem4 (.const:ti_sysbios_heaps_HeapMem_Module__gateObj__C)
                  00015b1c    00000004     ping_tasks_pem4.oem4 (.const:ti_sysbios_heaps_HeapMem_Object__count__C)
                  00015b20    00000004     ping_tasks_pem4.oem4 (.const:ti_sysbios_heaps_HeapMem_Object__table__C)
                  00015b24    00000004     ping_tasks_pem4.oem4 (.const:ti_sysbios_heaps_HeapMem_reqAlign__C)
                  00015b28    00000004     ping_tasks_pem4.oem4 (.const:ti_sysbios_knl_Clock_LM_begin__C)
                  00015b2c    00000004     ping_tasks_pem4.oem4 (.const:ti_sysbios_knl_Clock_LM_tick__C)
                  00015b30    00000004     ping_tasks_pem4.oem4 (.const:ti_sysbios_knl_Clock_LW_delayed__C)
                  00015b34    00000004     ping_tasks_pem4.oem4 (.const:ti_sysbios_knl_Clock_Module_State_clockQ__O)
                  00015b38    00000004     ping_tasks_pem4.oem4 (.const:ti_sysbios_knl_Clock_Module__diagsEnabled__C)
                  00015b3c    00000004     ping_tasks_pem4.oem4 (.const:ti_sysbios_knl_Clock_Module__diagsIncluded__C)
                  00015b40    00000004     ping_tasks_pem4.oem4 (.const:ti_sysbios_knl_Clock_Module__diagsMask__C)
                  00015b44    00000004     ping_tasks_pem4.oem4 (.const:ti_sysbios_knl_Clock_Module__loggerFxn1__C)
                  00015b48    00000004     ping_tasks_pem4.oem4 (.const:ti_sysbios_knl_Clock_Module__loggerFxn2__C)
                  00015b4c    00000004     ping_tasks_pem4.oem4 (.const:ti_sysbios_knl_Clock_Module__loggerObj__C)
                  00015b50    00000004     ping_tasks_pem4.oem4 (.const:ti_sysbios_knl_Clock_tickPeriod__C)
                  00015b54    00000004     ping_tasks_pem4.oem4 (.const:ti_sysbios_knl_Queue_Object__count__C)
                  00015b58    00000004     ping_tasks_pem4.oem4 (.const:ti_sysbios_knl_Queue_Object__table__C)
                  00015b5c    00000004     ping_tasks_pem4.oem4 (.const:ti_sysbios_knl_Semaphore_A_badContext__C)
                  00015b60    00000004     ping_tasks_pem4.oem4 (.const:ti_sysbios_knl_Semaphore_A_noEvents__C)
                  00015b64    00000004     ping_tasks_pem4.oem4 (.const:ti_sysbios_knl_Semaphore_A_overflow__C)
                  00015b68    00000004     ping_tasks_pem4.oem4 (.const:ti_sysbios_knl_Semaphore_A_pendTaskDisabled__C)
                  00015b6c    00000004     ping_tasks_pem4.oem4 (.const:ti_sysbios_knl_Semaphore_Instance_State_pendQ__O)
                  00015b70    00000004     ping_tasks_pem4.oem4 (.const:ti_sysbios_knl_Semaphore_LM_pend__C)
                  00015b74    00000004     ping_tasks_pem4.oem4 (.const:ti_sysbios_knl_Semaphore_LM_post__C)
                  00015b78    00000004     ping_tasks_pem4.oem4 (.const:ti_sysbios_knl_Semaphore_Module__diagsEnabled__C)
                  00015b7c    00000004     ping_tasks_pem4.oem4 (.const:ti_sysbios_knl_Semaphore_Module__diagsIncluded__C)
                  00015b80    00000004     ping_tasks_pem4.oem4 (.const:ti_sysbios_knl_Semaphore_Module__diagsMask__C)
                  00015b84    00000004     ping_tasks_pem4.oem4 (.const:ti_sysbios_knl_Semaphore_Module__loggerFxn2__C)
                  00015b88    00000004     ping_tasks_pem4.oem4 (.const:ti_sysbios_knl_Semaphore_Module__loggerFxn4__C)
                  00015b8c    00000004     ping_tasks_pem4.oem4 (.const:ti_sysbios_knl_Semaphore_Module__loggerObj__C)
                  00015b90    00000004     ping_tasks_pem4.oem4 (.const:ti_sysbios_knl_Swi_A_badPriority__C)
                  00015b94    00000004     ping_tasks_pem4.oem4 (.const:ti_sysbios_knl_Swi_LD_end__C)
                  00015b98    00000004     ping_tasks_pem4.oem4 (.const:ti_sysbios_knl_Swi_LM_begin__C)
                  00015b9c    00000004     ping_tasks_pem4.oem4 (.const:ti_sysbios_knl_Swi_LM_post__C)
                  00015ba0    00000004     ping_tasks_pem4.oem4 (.const:ti_sysbios_knl_Swi_Module__diagsEnabled__C)
                  00015ba4    00000004     ping_tasks_pem4.oem4 (.const:ti_sysbios_knl_Swi_Module__diagsIncluded__C)
                  00015ba8    00000004     ping_tasks_pem4.oem4 (.const:ti_sysbios_knl_Swi_Module__diagsMask__C)
                  00015bac    00000004     ping_tasks_pem4.oem4 (.const:ti_sysbios_knl_Swi_Module__loggerFxn1__C)
                  00015bb0    00000004     ping_tasks_pem4.oem4 (.const:ti_sysbios_knl_Swi_Module__loggerFxn4__C)
                  00015bb4    00000004     ping_tasks_pem4.oem4 (.const:ti_sysbios_knl_Swi_Module__loggerObj__C)
                  00015bb8    00000004     ping_tasks_pem4.oem4 (.const:ti_sysbios_knl_Swi_Object__count__C)
                  00015bbc    00000004     ping_tasks_pem4.oem4 (.const:ti_sysbios_knl_Swi_Object__heap__C)
                  00015bc0    00000004     ping_tasks_pem4.oem4 (.const:ti_sysbios_knl_Swi_Object__table__C)
                  00015bc4    00000004     ping_tasks_pem4.oem4 (.const:ti_sysbios_knl_Swi_numConstructedSwis__C)
                  00015bc8    00000004     ping_tasks_pem4.oem4 (.const:ti_sysbios_knl_Task_A_badPriority__C)
                  00015bcc    00000004     ping_tasks_pem4.oem4 (.const:ti_sysbios_knl_Task_A_badTaskState__C)
                  00015bd0    00000004     ping_tasks_pem4.oem4 (.const:ti_sysbios_knl_Task_A_badThreadType__C)
                  00015bd4    00000004     ping_tasks_pem4.oem4 (.const:ti_sysbios_knl_Task_A_noPendElem__C)
                  00015bd8    00000004     ping_tasks_pem4.oem4 (.const:ti_sysbios_knl_Task_E_spOutOfBounds__C)
                  00015bdc    00000004     ping_tasks_pem4.oem4 (.const:ti_sysbios_knl_Task_E_stackOverflow__C)
                  00015be0    00000004     ping_tasks_pem4.oem4 (.const:ti_sysbios_knl_Task_LD_block__C)
                  00015be4    00000004     ping_tasks_pem4.oem4 (.const:ti_sysbios_knl_Task_LD_exit__C)
                  00015be8    00000004     ping_tasks_pem4.oem4 (.const:ti_sysbios_knl_Task_LD_ready__C)
                  00015bec    00000004     ping_tasks_pem4.oem4 (.const:ti_sysbios_knl_Task_LM_noWork__C)
                  00015bf0    00000004     ping_tasks_pem4.oem4 (.const:ti_sysbios_knl_Task_LM_schedule__C)
                  00015bf4    00000004     ping_tasks_pem4.oem4 (.const:ti_sysbios_knl_Task_LM_switch__C)
                  00015bf8    00000004     ping_tasks_pem4.oem4 (.const:ti_sysbios_knl_Task_Module_State_inactiveQ__O)
                  00015bfc    00000004     ping_tasks_pem4.oem4 (.const:ti_sysbios_knl_Task_Module__diagsEnabled__C)
                  00015c00    00000004     ping_tasks_pem4.oem4 (.const:ti_sysbios_knl_Task_Module__diagsIncluded__C)
                  00015c04    00000004     ping_tasks_pem4.oem4 (.const:ti_sysbios_knl_Task_Module__diagsMask__C)
                  00015c08    00000004     ping_tasks_pem4.oem4 (.const:ti_sysbios_knl_Task_Module__loggerFxn2__C)
                  00015c0c    00000004     ping_tasks_pem4.oem4 (.const:ti_sysbios_knl_Task_Module__loggerFxn4__C)
                  00015c10    00000004     ping_tasks_pem4.oem4 (.const:ti_sysbios_knl_Task_Module__loggerFxn8__C)
                  00015c14    00000004     ping_tasks_pem4.oem4 (.const:ti_sysbios_knl_Task_Module__loggerObj__C)
                  00015c18    00000004     ping_tasks_pem4.oem4 (.const:ti_sysbios_knl_Task_Object__count__C)
                  00015c1c    00000004     ping_tasks_pem4.oem4 (.const:ti_sysbios_knl_Task_Object__heap__C)
                  00015c20    00000004     ping_tasks_pem4.oem4 (.const:ti_sysbios_knl_Task_Object__table__C)
                  00015c24    00000004     ping_tasks_pem4.oem4 (.const:ti_sysbios_knl_Task_allBlockedFunc__C)
                  00015c28    00000004     ping_tasks_pem4.oem4 (.const:ti_sysbios_knl_Task_defaultStackHeap__C)
                  00015c2c    00000004     ping_tasks_pem4.oem4 (.const:ti_sysbios_knl_Task_defaultStackSize__C)
                  00015c30    00000004     ping_tasks_pem4.oem4 (.const:ti_sysbios_knl_Task_numConstructedTasks__C)
                  00015c34    00000004     ping_tasks_pem4.oem4 (.const:ti_sysbios_knl_Task_startupHookFunc__C)
                  00015c38    00000004     ping_tasks_pem4.oem4 (.const:ti_sysbios_timers_dmtimer_Timer_E_cannotSupport__C)
                  00015c3c    00000004     ping_tasks_pem4.oem4 (.const:ti_sysbios_timers_dmtimer_Timer_E_freqMismatch__C)
                  00015c40    00000004     ping_tasks_pem4.oem4 (.const:ti_sysbios_timers_dmtimer_Timer_Module__diagsEnabled__C)
                  00015c44    00000004     ping_tasks_pem4.oem4 (.const:ti_sysbios_timers_dmtimer_Timer_Module__diagsIncluded__C)
                  00015c48    00000004     ping_tasks_pem4.oem4 (.const:ti_sysbios_timers_dmtimer_Timer_Module__diagsMask__C)
                  00015c4c    00000004     ping_tasks_pem4.oem4 (.const:ti_sysbios_timers_dmtimer_Timer_Object__count__C)
                  00015c50    00000004     ping_tasks_pem4.oem4 (.const:ti_sysbios_timers_dmtimer_Timer_Object__table__C)
                  00015c54    00000004     ping_tasks_pem4.oem4 (.const:ti_sysbios_timers_dmtimer_Timer_numTimerDevices__C)
                  00015c58    00000004     ping_tasks_pem4.oem4 (.const:ti_trace_SysMin_bufSize__C)
                  00015c5c    00000004     ping_tasks_pem4.oem4 (.const:xdc_runtime_Assert_E_assertFailed__C)
                  00015c60    00000004     ping_tasks_pem4.oem4 (.const:xdc_runtime_Core_A_initializedParams__C)
                  00015c64    00000004     ping_tasks_pem4.oem4 (.const:xdc_runtime_Core_Module__diagsEnabled__C)
                  00015c68    00000004     ping_tasks_pem4.oem4 (.const:xdc_runtime_Core_Module__diagsIncluded__C)
                  00015c6c    00000004     ping_tasks_pem4.oem4 (.const:xdc_runtime_Core_Module__diagsMask__C)
                  00015c70    00000004     ping_tasks_pem4.oem4 (.const:xdc_runtime_Error_E_generic__C)
                  00015c74    00000004     ping_tasks_pem4.oem4 (.const:xdc_runtime_Error_E_memory__C)
                  00015c78    00000004     ping_tasks_pem4.oem4 (.const:xdc_runtime_Error_Module__diagsEnabled__C)
                  00015c7c    00000004     ping_tasks_pem4.oem4 (.const:xdc_runtime_Error_Module__diagsIncluded__C)
                  00015c80    00000004     ping_tasks_pem4.oem4 (.const:xdc_runtime_Error_Module__diagsMask__C)
                  00015c84    00000004     ping_tasks_pem4.oem4 (.const:xdc_runtime_Error_Module__loggerFxn8__C)
                  00015c88    00000004     ping_tasks_pem4.oem4 (.const:xdc_runtime_Error_Module__loggerObj__C)
                  00015c8c    00000004     ping_tasks_pem4.oem4 (.const:xdc_runtime_Error_policyFxn__C)
                  00015c90    00000004     ping_tasks_pem4.oem4 (.const:xdc_runtime_Error_raiseHook__C)
                  00015c94    00000004     ping_tasks_pem4.oem4 (.const:xdc_runtime_IGateProvider_Interface__BASE__C)
                  00015c98    00000004     ping_tasks_pem4.oem4 (.const:xdc_runtime_IHeap_Interface__BASE__C)
                  00015c9c    00000004     ping_tasks_pem4.oem4 (.const:xdc_runtime_ILogger_Interface__BASE__C)
                  00015ca0    00000004     ping_tasks_pem4.oem4 (.const:xdc_runtime_IModule_Interface__BASE__C)
                  00015ca4    00000004     ping_tasks_pem4.oem4 (.const:xdc_runtime_Log_L_error__C)
                  00015ca8    00000004     ping_tasks_pem4.oem4 (.const:xdc_runtime_Main_Module__diagsEnabled__C)
                  00015cac    00000004     ping_tasks_pem4.oem4 (.const:xdc_runtime_Main_Module__diagsIncluded__C)
                  00015cb0    00000004     ping_tasks_pem4.oem4 (.const:xdc_runtime_Main_Module__diagsMask__C)
                  00015cb4    00000004     ping_tasks_pem4.oem4 (.const:xdc_runtime_Main_Module__loggerFxn1__C)
                  00015cb8    00000004     ping_tasks_pem4.oem4 (.const:xdc_runtime_Main_Module__loggerFxn2__C)
                  00015cbc    00000004     ping_tasks_pem4.oem4 (.const:xdc_runtime_Main_Module__loggerObj__C)
                  00015cc0    00000004     ping_tasks_pem4.oem4 (.const:xdc_runtime_Memory_defaultHeapInstance__C)
                  00015cc4    00000004     ping_tasks_pem4.oem4 (.const:xdc_runtime_Registry_Module__diagsEnabled__C)
                  00015cc8    00000004     ping_tasks_pem4.oem4 (.const:xdc_runtime_Registry_Module__diagsIncluded__C)
                  00015ccc    00000004     ping_tasks_pem4.oem4 (.const:xdc_runtime_Registry_Module__diagsMask__C)
                  00015cd0    00000004     ping_tasks_pem4.oem4 (.const:xdc_runtime_Registry_Module__loggerFxn1__C)
                  00015cd4    00000004     ping_tasks_pem4.oem4 (.const:xdc_runtime_Registry_Module__loggerFxn2__C)
                  00015cd8    00000004     ping_tasks_pem4.oem4 (.const:xdc_runtime_Registry_Module__loggerFxn4__C)
                  00015cdc    00000004     ping_tasks_pem4.oem4 (.const:xdc_runtime_Registry_Module__loggerFxn8__C)
                  00015ce0    00000004     ping_tasks_pem4.oem4 (.const:xdc_runtime_Registry_Module__loggerObj__C)
                  00015ce4    00000004     ping_tasks_pem4.oem4 (.const:xdc_runtime_Startup_execImpl__C)
                  00015ce8    00000004     ping_tasks_pem4.oem4 (.const:xdc_runtime_Startup_maxPasses__C)
                  00015cec    00000004     ping_tasks_pem4.oem4 (.const:xdc_runtime_Startup_sfxnRts__C)
                  00015cf0    00000004     ping_tasks_pem4.oem4 (.const:xdc_runtime_Startup_sfxnTab__C)
                  00015cf4    00000004     ping_tasks_pem4.oem4 (.const:xdc_runtime_Startup_startModsFxn__C)
                  00015cf8    00000004     ping_tasks_pem4.oem4 (.const:xdc_runtime_System_Module__gateObj__C)
                  00015cfc    00000004     ping_tasks_pem4.oem4 (.const:xdc_runtime_System_abortFxn__C)
                  00015d00    00000004     ping_tasks_pem4.oem4 (.const:xdc_runtime_System_exitFxn__C)
                  00015d04    00000004     ping_tasks_pem4.oem4 (.const:xdc_runtime_System_extendFxn__C)
                  00015d08    00000004     ping_tasks_pem4.oem4 (.const:xdc_runtime_System_maxAtexitHandlers__C)
                  00015d0c    00000004     ping_tasks_pem4.oem4 (.const:xdc_runtime_Text_charTab__C)
                  00015d10    00000004     ping_tasks_pem4.oem4 (.const:xdc_runtime_Text_nameEmpty__C)
                  00015d14    00000004     ping_tasks_pem4.oem4 (.const:xdc_runtime_Text_nameStatic__C)
                  00015d18    00000004     ping_tasks_pem4.oem4 (.const:xdc_runtime_Text_nameUnknown__C)
                  00015d1c    00000004     ping_tasks_pem4.oem4 (.const:xdc_runtime_Text_nodeTab__C)
                  00015d20    00000004     ping_tasks_pem4.oem4 (.const:xdc_runtime_Text_visitRopeFxn__C)
                  00015d24    00000002     ping_tasks_pem4.oem4 (.const:ti_sdo_utils_MultiProc_numProcessors__C)
                  00015d26    00000002     ping_tasks_pem4.oem4 (.const:ti_sdo_utils_MultiProc_numProcsInCluster__C)
                  00015d28    00000002     ping_tasks_pem4.oem4 (.const:ti_sysbios_BIOS_smpEnabled__C)
                  00015d2a    00000002     ping_tasks_pem4.oem4 (.const:ti_sysbios_BIOS_swiEnabled__C)
                  00015d2c    00000002     ping_tasks_pem4.oem4 (.const:ti_sysbios_BIOS_taskEnabled__C)
                  00015d2e    00000002     ping_tasks_pem4.oem4 (.const:ti_sysbios_family_arm_ducati_Core_syncExits__C)
                  00015d30    00000002     ping_tasks_pem4.oem4 (.const:ti_sysbios_family_arm_ducati_GateSmp_Module__id__C)
                  00015d32    00000002     ping_tasks_pem4.oem4 (.const:ti_sysbios_family_arm_m3_Hwi_Module__id__C)
                  00015d34    00000002     ping_tasks_pem4.oem4 (.const:ti_sysbios_family_arm_m3_Hwi_Module__loggerDefined__C)
                  00015d36    00000002     ping_tasks_pem4.oem4 (.const:ti_sysbios_family_shared_vayu_IntXbar_Module__id__C)
                  00015d38    00000002     ping_tasks_pem4.oem4 (.const:ti_sysbios_gates_GateMutex_Module__id__C)
                  00015d3a    00000002     ping_tasks_pem4.oem4 (.const:ti_sysbios_hal_Hwi_Module__id__C)
                  00015d3c    00000002     ping_tasks_pem4.oem4 (.const:ti_sysbios_hal_ammu_AMMU_configureAmmu__C)
                  00015d3e    00000002     ping_tasks_pem4.oem4 (.const:ti_sysbios_hal_unicache_Cache_configureCache__C)
                  00015d40    00000002     ping_tasks_pem4.oem4 (.const:ti_sysbios_hal_unicache_Cache_enableCache__C)
                  00015d42    00000002     ping_tasks_pem4.oem4 (.const:ti_sysbios_hal_unicache_Cache_l2CacheSupported__C)
                  00015d44    00000002     ping_tasks_pem4.oem4 (.const:ti_sysbios_heaps_HeapBuf_Module__id__C)
                  00015d46    00000002     ping_tasks_pem4.oem4 (.const:ti_sysbios_heaps_HeapBuf_trackMaxAllocs__C)
                  00015d48    00000002     ping_tasks_pem4.oem4 (.const:ti_sysbios_heaps_HeapMem_Module__id__C)
                  00015d4a    00000002     ping_tasks_pem4.oem4 (.const:ti_sysbios_knl_Clock_Module__id__C)
                  00015d4c    00000002     ping_tasks_pem4.oem4 (.const:ti_sysbios_knl_Clock_Module__loggerDefined__C)
                  00015d4e    00000002     ping_tasks_pem4.oem4 (.const:ti_sysbios_knl_Semaphore_Module__id__C)
                  00015d50    00000002     ping_tasks_pem4.oem4 (.const:ti_sysbios_knl_Semaphore_Module__loggerDefined__C)
                  00015d52    00000002     ping_tasks_pem4.oem4 (.const:ti_sysbios_knl_Swi_Module__id__C)
                  00015d54    00000002     ping_tasks_pem4.oem4 (.const:ti_sysbios_knl_Swi_Module__loggerDefined__C)
                  00015d56    00000002     ping_tasks_pem4.oem4 (.const:ti_sysbios_knl_Task_Module__id__C)
                  00015d58    00000002     ping_tasks_pem4.oem4 (.const:ti_sysbios_knl_Task_Module__loggerDefined__C)
                  00015d5a    00000002     ping_tasks_pem4.oem4 (.const:ti_sysbios_knl_Task_initStackFlag__C)
                  00015d5c    00000002     ping_tasks_pem4.oem4 (.const:ti_sysbios_timers_dmtimer_Timer_Module__id__C)
                  00015d5e    00000002     ping_tasks_pem4.oem4 (.const:ti_sysbios_timers_dmtimer_Timer_checkFrequency__C)
                  00015d60    00000002     ping_tasks_pem4.oem4 (.const:ti_sysbios_timers_dmtimer_Timer_startupNeeded__C)
                  00015d62    00000002     ping_tasks_pem4.oem4 (.const:ti_trace_SysMin_flushAtExit__C)
                  00015d64    00000002     ping_tasks_pem4.oem4 (.const:xdc_runtime_Core_Module__id__C)
                  00015d66    00000002     ping_tasks_pem4.oem4 (.const:xdc_runtime_Error_Module__loggerDefined__C)
                  00015d68    00000002     ping_tasks_pem4.oem4 (.const:xdc_runtime_Error_maxDepth__C)
                  00015d6a    00000002     ping_tasks_pem4.oem4 (.const:xdc_runtime_Main_Module__id__C)
                  00015d6c    00000002     ping_tasks_pem4.oem4 (.const:xdc_runtime_Main_Module__loggerDefined__C)
                  00015d6e    00000002     ping_tasks_pem4.oem4 (.const:xdc_runtime_Memory_Module__id__C)
                  00015d70    00000002     ping_tasks_pem4.oem4 (.const:xdc_runtime_Registry_Module__loggerDefined__C)
                  00015d72    00000002     ping_tasks_pem4.oem4 (.const:xdc_runtime_Text_charCnt__C)
                  00015d74    00000002     ping_tasks_pem4.oem4 (.const:xdc_runtime_Text_isLoaded__C)
                  00015d76    00000002     ping_tasks_pem4.oem4 (.const:xdc_runtime_Text_registryModsLastId__C)
                  00015d78    00000002     ping_tasks_pem4.oem4 (.const:xdc_runtime_Text_unnamedModsLastId__C)

.data      0    80064160    00001300     UNINITIALIZED
                  80064160    00000454     ipc.aem4 : Ipc.obj (.data)
                  800645b4    00000284     ping_tasks_pem4.oem4 (.data)
                  80064838    00000208     ping_tasks_pem4.oem4 (.data:ti_trace_SysMin_Module_State_0_lineBuffers__A)
                  80064a40    00000180     ping_tasks_pem4.oem4 (.data:ti_sysbios_knl_Task_Module_State_0_readyQ__A)
                  80064bc0    00000140     ping_tasks_pem4.oem4 (.data:ti_sysbios_knl_Task_Object__table__V)
                  80064d00    000000c0     ping_tasks_pem4.oem4 (.data:ti_sysbios_timers_dmtimer_Timer_Module_State_0_device__A)
                  80064dc0    000000b0     rtsv7M4_T_le_eabi.lib : signal.obj (.data:sigtable)
                  80064e70    00000080                           : xvalues.obj (.data)
                  80064ef0    00000080     ping_tasks_pem4.oem4 (.data:ti_sysbios_knl_Swi_Module_State_0_readyQ__A)
                  80064f70    00000080     ping_tasks_pem4.oem4 (.data:ti_sysbios_timers_dmtimer_Timer_Module_State_0_intFreqs__A)
                  80064ff0    00000072     ping_tasks_pem4.oem4 (.data:ti_sysbios_family_shared_vayu_IntXbar_Module_State_0_intXbar__A)
                  80065062    00000002     ti.deh_vayu_smp.aem4 : Watchdog.oem4 (.data)
                  80065064    0000005c     ping_tasks_pem4.oem4 (.data:ti_sysbios_timers_dmtimer_Timer_Object__table__V)
                  800650c0    00000058     ping_tasks_pem4.oem4 (.data:ti_sdo_ipc_family_vayu_InterruptIpu_Module__state__V)
                  80065118    00000050     ping_tasks_pem4.oem4 (.data:ti_sdo_ipc_family_vayu_NotifySetup_Module__state__V)
                  80065168    00000050     ping_tasks_pem4.oem4 (.data:ti_sysbios_family_arm_m3_Hwi_Module_State_0_intAffinity__A)
                  800651b8    00000048     ping_tasks_pem4.oem4 (.data:ti_sysbios_family_arm_m3_Hwi_Object__table__V)
                  80065200    00000044     ping_tasks_pem4.oem4 (.data:ti_sysbios_knl_Task_Module__state__V)
                  80065244    00000040     ping_tasks_pem4.oem4 (.data:ti_sysbios_timers_dmtimer_Timer_Module_State_0_handles__A)
                  80065284    00000038     ping_tasks_pem4.oem4 (.data:ti_sysbios_family_arm_ducati_GateSmp_Object__table__V)
                  800652bc    00000038     ping_tasks_pem4.oem4 (.data:ti_sysbios_gates_GateMutex_Object__table__V)
                  800652f4    00000034     ping_tasks_pem4.oem4 (.data:ti_sysbios_family_arm_m3_Hwi_Module__state__V)
                  80065328    00000030     ping_tasks_pem4.oem4 (.data:ti_sysbios_knl_Swi_Object__table__V)
                  80065358    0000002c     ping_tasks_pem4.oem4 (.data:ti_sysbios_knl_Clock_Module__state__V)
                  80065384    00000028     ping_tasks_pem4.oem4 (.data:ti_sysbios_heaps_HeapBuf_Object__table__V)
                  800653ac    00000028     ping_tasks_pem4.oem4 (.data:ti_sysbios_knl_Semaphore_Object__table__V)
                  800653d4    00000024     ping_tasks_pem4.oem4 (.data:ti_sysbios_BIOS_Module__state__V)
                  800653f8    00000024     ping_tasks_pem4.oem4 (.data:xdc_runtime_System_Module_State_0_atexitHandlers__A)
                  8006541c    00000022     ti.pm_smp_vayu.aem4 : IpcPower.oem4 (.data)
                  8006543e    00000002     ti.trace_smp.aem4 : SysMin.oem4 (.data)
                  80065440    00000008     rtsv7M4_T_le_eabi.lib : _lock.obj (.data)
                  80065448    00000008                           : exit.obj (.data)
                  80065450    00000008                           : feraiseexcept.obj (.data)
                  80065458    00000004                           : errno.obj (.data)
                  8006545c    00000004                           : stkdepth_vars.obj (.data)


LINKER GENERATED COPY TABLES

__TI_cinit_table @ 000170b0 records: 5, size/record: 8, table size: 40
	.data: load addr=00015d80, load size=00001308 bytes, run addr=80064160, run size=00001300 bytes, compression=copy
	.bss: load addr=00017088, load size=00000008 bytes, run addr=80000000, run size=00064160 bytes, compression=zero_init
	.errorbuf: load addr=00017090, load size=00000008 bytes, run addr=9f060000, run size=00000200 bytes, compression=zero_init
	.ti_sysbios_family_arm_ducati_smp_Power: load addr=00017098, load size=00000008 bytes, run addr=9f070000, run size=0001027c bytes, compression=zero_init
	.tracebuf: load addr=000170a0, load size=00000008 bytes, run addr=9f000000, run size=00008000 bytes, compression=zero_init


LINKER GENERATED HANDLER TABLE

__TI_handler_table @ 000170a8 records: 2, size/record: 4, table size: 8
	index: 0, handler: __TI_zero_init
	index: 1, handler: __TI_decompress_none


GLOBAL SYMBOLS: SORTED ALPHABETICALLY BY Name 

address   name                                                                    
-------   ----                                                                    
0000fdc1  C$$EXIT                                                                 
0000c569  IpcMgr_rpmsgStartup                                                     
8006542c  IpcPower_clockFxn                                                       
0000fff5  IpcPower_idle                                                           
8006541c  IpcPower_idleCount                                                      
00010ec5  IpcPower_postResume                                                     
00011a01  IpcPower_preSuspend                                                     
0000aa0d  IpcPower_registerCallback                                               
80065428  IpcPower_resumeCount                                                    
80065424  IpcPower_suspendCount                                                   
0000d451  MultiProc_getId                                                         
0000e259  MultiProc_getName                                                       
00011e59  MultiProc_self                                                          
0000f879  NameMap_register                                                        
000082f1  RPMessage_create                                                        
00008ef9  RPMessage_delete                                                        
00008061  RPMessage_init                                                          
00007869  RPMessage_recv                                                          
00005f09  RPMessage_send                                                          
UNDEFED   SHT$$INIT_ARRAY$$Base                                                   
UNDEFED   SHT$$INIT_ARRAY$$Limit                                                  
80064bc0  TSK_idle                                                                
00012047  VirtQueue_cacheWb                                                       
00006859  VirtQueue_create                                                        
0000a5a1  VirtQueue_isr                                                           
0000bee1  VirtQueue_kick                                                          
00012029  VirtQueue_postCrashToMailbox                                            
00007dc9  VirtQueue_startup                                                       
00011051  _Dclass                                                                 
80064e70  _Denorm                                                                 
0000d8df  _Dnorm                                                                  
0000c459  _Dscale                                                                 
0000eef1  _Dunscale                                                               
80064e80  _Eps                                                                    
80065458  _Errno                                                                  
80065450  _Fenv                                                                   
00010cb9  _Feraise                                                                
80064e90  _Hugeval                                                                
80064ea0  _Inf                                                                    
80064eb0  _Nan                                                                    
80064ed0  _Rteps                                                                  
80064ec0  _Snan                                                                   
80065454  _Tls_setup__Fenv                                                        
80064ee0  _Xbig                                                                   
80064ee8  _Zero                                                                   
00004000  __ASM__                                                                 
00004092  __ISA__                                                                 
000040a5  __PLAT__                                                                
80066460  __STACK_END                                                             
00001000  __STACK_SIZE                                                            
000040cb  __TARG__                                                                
000170b0  __TI_CINIT_Base                                                         
000170d8  __TI_CINIT_Limit                                                        
000170a8  __TI_Handler_Table_Base                                                 
000170b0  __TI_Handler_Table_Limit                                                
0000df35  __TI_auto_init                                                          
80065448  __TI_cleanup_ptr                                                        
00011e09  __TI_decompress_none                                                    
8006544c  __TI_dtors_ptr                                                          
00004da1  __TI_printfi                                                            
00015d80  __TI_static_base__                                                      
00011e65  __TI_zero_init                                                          
000040f0  __TRDR__                                                                
0000e7c1  __aeabi_cdcmpeq                                                         
0000e7c1  __aeabi_cdcmple                                                         
0000e847  __aeabi_cdrcmple                                                        
0000fbcf  __aeabi_d2iz                                                            
00009f23  __aeabi_dadd                                                            
0000bb51  __aeabi_ddiv                                                            
0000c981  __aeabi_dmul                                                            
00009f19  __aeabi_dsub                                                            
00010e69  __aeabi_i2d                                                             
000050a7  __aeabi_idiv0                                                           
0000e9d1  __aeabi_memclr                                                          
0000e9d1  __aeabi_memclr4                                                         
0000e9d1  __aeabi_memclr8                                                         
0000e2f5  __aeabi_memcpy                                                          
0000e2f5  __aeabi_memcpy4                                                         
0000e2f5  __aeabi_memcpy8                                                         
0000e9d3  __aeabi_memset                                                          
0000e9d3  __aeabi_memset4                                                         
0000e9d3  __aeabi_memset8                                                         
00010075  __aeabi_uidiv                                                           
00010075  __aeabi_uidivmod                                                        
0000997d  __aeabi_uldivmod                                                        
ffffffff  __binit__                                                               
ffffffff  __c_args__                                                              
80065460  __stack                                                                 
0000ea4b  __xdc__init                                                             
80064834  __xdc__init__addr                                                       
00011a19  _args_main                                                              
00000000  _argsize                                                                
0000fd7d  _c_int00                                                                
0001530c  _ctypes_                                                                
80065440  _lock                                                                   
00011b9b  _nop                                                                    
00011b93  _register_lock                                                          
00011b8d  _register_unlock                                                        
80065444  _unlock                                                                 
0000fdc5  abort                                                                   
0000f8c9  atoi                                                                    
ffffffff  binit                                                                   
0000c349  copyTaskFxn                                                             
0000f915  copy_in                                                                 
0000fdcd  exit                                                                    
00010aad  feraiseexcept                                                           
00011461  frexp                                                                   
80064184  intInfo                                                                 
0000fcf1  ldexp                                                                   
0000f4e9  ltoa                                                                    
00010a79  main                                                                    
8006545c  main_func_sp                                                            
0001182f  memccpy                                                                 
0000e2f5  memcpy                                                                  
0000e9d9  memset                                                                  
00010e97  raise                                                                   
00010035  signal                                                                  
0000f0e9  sprintf                                                                 
0000f1a9  start_ping_tasks                                                        
00011b09  strchr                                                                  
00011a31  strcmp                                                                  
00011ba1  strlen                                                                  
00010c87  strncpy                                                                 
9f060000  ti_deh_Deh_Module_State_0_outbuf__A                                     
800645c4  ti_deh_Deh_Module__state__V                                             
000115d9  ti_deh_Deh_Module_startup__E                                            
00011c95  ti_deh_Deh_excHandler__E                                                
000050a9  ti_deh_Deh_excHandler__F                                                
0001204f  ti_deh_Deh_idleBegin__E                                                 
00012057  ti_deh_Deh_idleBegin__F                                                 
800645d0  ti_deh_StackDbg_Module__state__V                                        
00011483  ti_deh_StackDbg_walkStack__E                                            
0000cf59  ti_deh_StackDbg_walkStack__F                                            
800645d8  ti_deh_Watchdog_Module_State_0_device__A                                
800645f8  ti_deh_Watchdog_Module_State_0_status__A                                
800645fc  ti_deh_Watchdog_Module__state__V                                        
0001205f  ti_deh_Watchdog_idleBegin__E                                            
000115f9  ti_deh_Watchdog_idleBegin__F                                            
00011e71  ti_deh_Watchdog_init__E                                                 
000087ed  ti_deh_Watchdog_init__F                                                 
00011e7d  ti_deh_Watchdog_isException__E                                          
0000fc19  ti_deh_Watchdog_isException__F                                          
00010811  ti_deh_Watchdog_kick__I                                                 
0000f205  ti_deh_Watchdog_restore__I                                              
0000f961  ti_deh_Watchdog_start__I                                                
00010475  ti_deh_Watchdog_stop__I                                                 
00011e89  ti_deh_Watchdog_swiPrehook__E                                           
000114a5  ti_deh_Watchdog_swiPrehook__F                                           
00011ca5  ti_deh_Watchdog_taskSwitch__E                                           
00011237  ti_deh_Watchdog_taskSwitch__F                                           
00011851  ti_ipc_family_vayu_VirtQueue_cacheWb                                    
80064178  ti_ipc_family_vayu__Desc                                                
00003000  ti_ipc_remoteproc_ResourceTable                                         
80064608  ti_ipc_remoteproc_Resource_Module__state__V                             
00011e99  ti_ipc_remoteproc_Resource_Module_startup__E                            
00010849  ti_ipc_remoteproc_Resource_init__I                                      
80064190  ti_ipc_rpmsg_RPMessage__Desc                                            
00015a88  ti_ipc_rpmsg_RPMessage_heap                                             
00015a84  ti_ipc_rpmsg_RPMessage_messageBufferSize                                
0000956c  ti_sdo_ipc_family_vayu_InterruptIpu_Module__diagsEnabled__C             
0000977c  ti_sdo_ipc_family_vayu_InterruptIpu_Module__diagsIncluded__C            
00009d5c  ti_sdo_ipc_family_vayu_InterruptIpu_Module__diagsMask__C                
0001492e  ti_sdo_ipc_family_vayu_InterruptIpu_Module__id__C                       
800650c0  ti_sdo_ipc_family_vayu_InterruptIpu_Module__state__V                    
0000a40c  ti_sdo_ipc_family_vayu_InterruptIpu_ducatiCtrlBaseAddr__C               
0000c679  ti_sdo_ipc_family_vayu_InterruptIpu_intClear__E                         
0000e569  ti_sdo_ipc_family_vayu_InterruptIpu_intEnable__E                        
0000b3c9  ti_sdo_ipc_family_vayu_InterruptIpu_intRegister__E                      
0000bc89  ti_sdo_ipc_family_vayu_InterruptIpu_intSend__E                          
0000f9b1  ti_sdo_ipc_family_vayu_InterruptIpu_intShmDucatiStub__I                 
00011871  ti_sdo_ipc_family_vayu_InterruptIpu_intShmMbxStub__I                    
0000a59c  ti_sdo_ipc_family_vayu_InterruptIpu_ipu1_0ProcId__C                     
0000a71c  ti_sdo_ipc_family_vayu_InterruptIpu_ipu1_1ProcId__C                     
0000a894  ti_sdo_ipc_family_vayu_InterruptIpu_ipu2_0ProcId__C                     
0000ab7c  ti_sdo_ipc_family_vayu_InterruptIpu_ipu2_1ProcId__C                     
000154c8  ti_sdo_ipc_family_vayu_InterruptIpu_mailboxBaseAddr__C                  
00014de8  ti_sdo_ipc_family_vayu_InterruptIpu_mailboxTable__C                     
000155e8  ti_sdo_ipc_family_vayu_InterruptIpu_procIdTable__C                      
8006460c  ti_sdo_ipc_family_vayu_NotifySetup_Module_State_0_numPlugged__A         
80065118  ti_sdo_ipc_family_vayu_NotifySetup_Module__state__V                     
00007b19  ti_sdo_ipc_family_vayu_NotifySetup_Module_startup__E                    
0000dfd9  ti_sdo_ipc_family_vayu_NotifySetup_dispatchIsr__I                       
00011ea5  ti_sdo_ipc_family_vayu_NotifySetup_interruptTable__E                    
00011cb9  ti_sdo_ipc_family_vayu_NotifySetup_interruptTable__F                    
00015508  ti_sdo_ipc_family_vayu_NotifySetup_mailboxBaseAddr__C                   
00014fcc  ti_sdo_ipc_family_vayu_NotifySetup_mailboxTable__C                      
00011a49  ti_sdo_ipc_family_vayu_NotifySetup_plugHwi__E                           
0000e391  ti_sdo_ipc_family_vayu_NotifySetup_plugHwi__F                           
00015614  ti_sdo_ipc_family_vayu_NotifySetup_procIdTable__C                       
00012101  ti_sdo_utils_List_Instance_init__E                                      
8006462c  ti_sdo_utils_List_Module__root__V                                       
000157bc  ti_sdo_utils_List_Object__DESC__C                                       
0001597c  ti_sdo_utils_List_Object__PARAMS__C                                     
0001125d  ti_sdo_utils_List_Object__delete__S                                     
000104b1  ti_sdo_utils_List_create                                                
00011eb1  ti_sdo_utils_List_delete                                                
0000acec  ti_sdo_utils_MultiProc_A_invalidMultiProcId__C                          
0000afbc  ti_sdo_utils_MultiProc_A_invalidProcName__C                             
80064634  ti_sdo_utils_MultiProc_Module_State_0_clusterProcList__A                
0000b11c  ti_sdo_utils_MultiProc_Module__diagsEnabled__C                          
0000b274  ti_sdo_utils_MultiProc_Module__diagsIncluded__C                         
0000b3c4  ti_sdo_utils_MultiProc_Module__diagsMask__C                             
0001540e  ti_sdo_utils_MultiProc_Module__id__C                                    
80064640  ti_sdo_utils_MultiProc_Module__state__V                                 
00015a3c  ti_sdo_utils_MultiProc_nameList__A                                      
0000b50c  ti_sdo_utils_MultiProc_nameList__C                                      
00015d24  ti_sdo_utils_MultiProc_numProcessors__C                                 
00015d26  ti_sdo_utils_MultiProc_numProcsInCluster__C                             
80064648  ti_sdo_utils_NameServerRemoteNull_Module__root__V                       
80064650  ti_sysbios_BIOS_Module_State_0_smpThreadType__A                         
800653d4  ti_sysbios_BIOS_Module__state__V                                        
00011ebd  ti_sysbios_BIOS_RtsGateProxy_enter__E                                   
00011cc9  ti_sysbios_BIOS_RtsGateProxy_leave__E                                   
00010ce9  ti_sysbios_BIOS_atExitFunc__I                                           
00010d19  ti_sysbios_BIOS_errorRaiseHook__I                                       
00011b1f  ti_sysbios_BIOS_exitFunc__I                                             
00011bb9  ti_sysbios_BIOS_getThreadType__E                                        
0000b654  ti_sysbios_BIOS_installedErrorHook__C                                   
00008cb5  ti_sysbios_BIOS_nullFunc__I                                             
00011281  ti_sysbios_BIOS_registerRTSLock__I                                      
00011619  ti_sysbios_BIOS_removeRTSLock__I                                        
00010d49  ti_sysbios_BIOS_rtsLock__I                                              
0000d515  ti_sysbios_BIOS_rtsUnlock__I                                            
00011a61  ti_sysbios_BIOS_setThreadType__E                                        
00015d28  ti_sysbios_BIOS_smpEnabled__C                                           
00010f1d  ti_sysbios_BIOS_startFunc__I                                            
00011cd9  ti_sysbios_BIOS_start__E                                                
00015d2a  ti_sysbios_BIOS_swiEnabled__C                                           
00015d2c  ti_sysbios_BIOS_taskEnabled__C                                          
40000400  ti_sysbios_family_arm_ducati_CTM_ctm                                    
80062000  ti_sysbios_family_arm_ducati_Core_Module_State_0_core1HwiStack__A       
80064654  ti_sysbios_family_arm_ducati_Core_Module__state__V                      
00011bd1  ti_sysbios_family_arm_ducati_Core_Module_startup__E                     
0000d041  ti_sysbios_family_arm_ducati_Core_atexit__I                             
0000b8d4  ti_sysbios_family_arm_ducati_Core_core1HwiStackSize__C                  
0000ca81  ti_sysbios_family_arm_ducati_Core_core1Startup__I                       
0000ba14  ti_sysbios_family_arm_ducati_Core_gate__C                               
00011ec9  ti_sysbios_family_arm_ducati_Core_getId__E                              
0000a721  ti_sysbios_family_arm_ducati_Core_hwiFunc__I                            
0000bdbc  ti_sysbios_family_arm_ducati_Core_ipuId__C                              
00010d79  ti_sysbios_family_arm_ducati_Core_startCore1__I                         
00015d2e  ti_sysbios_family_arm_ducati_Core_syncExits__C                          
000100b9  ti_sysbios_family_arm_ducati_Core_unlock__E                             
0000bffc  ti_sysbios_family_arm_ducati_GateSmp_A_nestedEnter__C                   
000114c7  ti_sysbios_family_arm_ducati_GateSmp_Handle__label__S                   
00011e19  ti_sysbios_family_arm_ducati_GateSmp_Instance_init__E                   
000156e4  ti_sysbios_family_arm_ducati_GateSmp_Module__FXNS__C                    
0000c234  ti_sysbios_family_arm_ducati_GateSmp_Module__diagsEnabled__C            
0000c674  ti_sysbios_family_arm_ducati_GateSmp_Module__diagsIncluded__C           
0000ca7c  ti_sysbios_family_arm_ducati_GateSmp_Module__diagsMask__C               
00015d30  ti_sysbios_family_arm_ducati_GateSmp_Module__id__C                      
80064668  ti_sysbios_family_arm_ducati_GateSmp_Module__root__V                    
000157dc  ti_sysbios_family_arm_ducati_GateSmp_Object__DESC__C                    
00015994  ti_sysbios_family_arm_ducati_GateSmp_Object__PARAMS__C                  
000100f9  ti_sysbios_family_arm_ducati_GateSmp_Object__create__S                  
000112a5  ti_sysbios_family_arm_ducati_GateSmp_Object__delete__S                  
80065284  ti_sysbios_family_arm_ducati_GateSmp_Object__table__V                   
0000dd39  ti_sysbios_family_arm_ducati_GateSmp_enter__E                           
00011891  ti_sysbios_family_arm_ducati_GateSmp_leave__E                           
00012141  ti_sysbios_family_arm_ducati_GateSmp_query__E                           
0000de91  ti_sysbios_family_arm_ducati_GateSmp_sync__E                            
80064670  ti_sysbios_family_arm_ducati_Timer_Module__root__V                      
000118ad  ti_sysbios_family_arm_ducati_Timer_Module__startupDone__F               
00012067  ti_sysbios_family_arm_ducati_Timer_Module__startupDone__S               
80064678  ti_sysbios_family_arm_ducati_Timer_Module__state__V                     
0000eba1  ti_sysbios_family_arm_ducati_Timer_Module_startup__E                    
000104f1  ti_sysbios_family_arm_ducati_Timer_initDevice__I                        
00011639  ti_sysbios_family_arm_ducati_Timer_setPeriod__E                         
0000fe09  ti_sysbios_family_arm_ducati_Timer_start__E                             
0000d1e4  ti_sysbios_family_arm_ducati_Timer_startupNeeded__C                     
00010da9  ti_sysbios_family_arm_ducati_Timer_startup__E                           
00011659  ti_sysbios_family_arm_ducati_Timer_stop__E                              
0000fa01  ti_sysbios_family_arm_ducati_TimestampProvider_Module_startup__E        
0000fe51  ti_sysbios_family_arm_ducati_TimestampProvider_get32__E                 
00010881  ti_sysbios_family_arm_ducati_TimestampProvider_get64__E                 
000110a9  ti_sysbios_family_arm_ducati_TimestampProvider_getFreq__E               
0001540d  ti_sysbios_family_arm_ducati_TimestampProvider_inpsel__C                
000118c9  ti_sysbios_family_arm_ducati_Wugen_Module__startupDone__F               
0001206f  ti_sysbios_family_arm_ducati_Wugen_Module__startupDone__S               
00012109  ti_sysbios_family_arm_ducati_Wugen_Module_startup__E                    
0000fe99  ti_sysbios_family_arm_ducati_Wugen_enableInterrupt__E                   
80064684  ti_sysbios_family_arm_ducati_smp_Power_Module__state__V                 
000057e1  ti_sysbios_family_arm_ducati_smp_Power_doSuspend__I                     
0000d384  ti_sysbios_family_arm_ducati_smp_Power_gate__C                          
0000d69c  ti_sysbios_family_arm_ducati_smp_Power_postSuspendHooks__A              
00015a8c  ti_sysbios_family_arm_ducati_smp_Power_postSuspendHooks__C              
0000da54  ti_sysbios_family_arm_ducati_smp_Power_preSuspendHooks__A               
00015a94  ti_sysbios_family_arm_ducati_smp_Power_preSuspendHooks__C               
00000011  ti_sysbios_family_arm_ducati_smp_Power_reset                            
00010c55  ti_sysbios_family_arm_ducati_smp_Power_saveCpuRegs__I                   
9f070000  ti_sysbios_family_arm_ducati_smp_Power_savedContext                     
9f07027c  ti_sysbios_family_arm_ducati_smp_Power_savedRAM                         
0000db0c  ti_sysbios_family_arm_ducati_smp_Power_sdmaRegs__C                      
0000dbc4  ti_sysbios_family_arm_ducati_smp_Power_semCore0__C                      
0000dc7c  ti_sysbios_family_arm_ducati_smp_Power_semCore1__C                      
00005ba9  ti_sysbios_family_arm_ducati_smp_Power_suspend_RESUME                   
0000f439  ti_sysbios_family_arm_ducati_smp_Power_taskFxnCore0__I                  
0000f261  ti_sysbios_family_arm_ducati_smp_Power_taskFxnCore1__I                  
000000dc  ti_sysbios_family_arm_ducati_smp_contextL2RAM                           
000000d0  ti_sysbios_family_arm_ducati_smp_doRestoreL2Core0                       
000000d4  ti_sysbios_family_arm_ducati_smp_doRestoreL2Core1                       
000000a0  ti_sysbios_family_arm_ducati_smp_doResumeCore0                          
000000a4  ti_sysbios_family_arm_ducati_smp_doResumeCore1                          
000000c8  ti_sysbios_family_arm_ducati_smp_doneCore0                              
000000cc  ti_sysbios_family_arm_ducati_smp_doneCore1                              
000000b0  ti_sysbios_family_arm_ducati_smp_readyGoCore0                           
000000b4  ti_sysbios_family_arm_ducati_smp_readyGoCore1                           
000000a8  ti_sysbios_family_arm_ducati_smp_readyIdleCore0                         
000000ac  ti_sysbios_family_arm_ducati_smp_readyIdleCore1                         
000000b8  ti_sysbios_family_arm_ducati_smp_readySyncCore0                         
000000bc  ti_sysbios_family_arm_ducati_smp_readySyncCore1                         
000000d8  ti_sysbios_family_arm_ducati_smp_startL2RAM                             
000000c0  ti_sysbios_family_arm_ducati_smp_waitResumeCore0                        
000000c4  ti_sysbios_family_arm_ducati_smp_waitResumeCore1                        
0000dd34  ti_sysbios_family_arm_m3_Hwi_E_NMI__C                                   
0000de8c  ti_sysbios_family_arm_m3_Hwi_E_alreadyDefined__C                        
0000dfd4  ti_sysbios_family_arm_m3_Hwi_E_busFault__C                              
0000e42c  ti_sysbios_family_arm_m3_Hwi_E_debugMon__C                              
0000e694  ti_sysbios_family_arm_m3_Hwi_E_hardFault__C                             
0000e72c  ti_sysbios_family_arm_m3_Hwi_E_memFault__C                              
0000e8cc  ti_sysbios_family_arm_m3_Hwi_E_noIsr__C                                 
0000edb4  ti_sysbios_family_arm_m3_Hwi_E_reserved__C                              
0000f2bc  ti_sysbios_family_arm_m3_Hwi_E_svCall__C                                
0000f31c  ti_sysbios_family_arm_m3_Hwi_E_usageFault__C                            
00010f49  ti_sysbios_family_arm_m3_Hwi_Instance_finalize__E                       
0000e601  ti_sysbios_family_arm_m3_Hwi_Instance_init__E                           
0000f434  ti_sysbios_family_arm_m3_Hwi_LD_end__C                                  
0000f594  ti_sysbios_family_arm_m3_Hwi_LM_begin__C                                
800646a4  ti_sysbios_family_arm_m3_Hwi_Module_State_0_excActive__A                
800646a8  ti_sysbios_family_arm_m3_Hwi_Module_State_0_excContext__A               
800646b0  ti_sysbios_family_arm_m3_Hwi_Module_State_0_excStack__A                 
800646b8  ti_sysbios_family_arm_m3_Hwi_Module_State_0_intAffinityMasks_0__A       
800646c0  ti_sysbios_family_arm_m3_Hwi_Module_State_0_intAffinityMasks_1__A       
800646c8  ti_sysbios_family_arm_m3_Hwi_Module_State_0_intAffinityMasks__A         
80065168  ti_sysbios_family_arm_m3_Hwi_Module_State_0_intAffinity__A              
0000f5ec  ti_sysbios_family_arm_m3_Hwi_Module__diagsEnabled__C                    
0000f9ac  ti_sysbios_family_arm_m3_Hwi_Module__diagsIncluded__C                   
0000f9fc  ti_sysbios_family_arm_m3_Hwi_Module__diagsMask__C                       
00015d32  ti_sysbios_family_arm_m3_Hwi_Module__id__C                              
00015d34  ti_sysbios_family_arm_m3_Hwi_Module__loggerDefined__C                   
0000fae4  ti_sysbios_family_arm_m3_Hwi_Module__loggerFxn1__C                      
0000fb34  ti_sysbios_family_arm_m3_Hwi_Module__loggerFxn8__C                      
0000fe04  ti_sysbios_family_arm_m3_Hwi_Module__loggerObj__C                       
8006469c  ti_sysbios_family_arm_m3_Hwi_Module__root__V                            
000118e5  ti_sysbios_family_arm_m3_Hwi_Module__startupDone__F                     
00012077  ti_sysbios_family_arm_m3_Hwi_Module__startupDone__S                     
800652f4  ti_sysbios_family_arm_m3_Hwi_Module__state__V                           
0000afc1  ti_sysbios_family_arm_m3_Hwi_Module_startup__E                          
0000fe4c  ti_sysbios_family_arm_m3_Hwi_NUM_INTERRUPTS__C                          
000157fc  ti_sysbios_family_arm_m3_Hwi_Object__DESC__C                            
000155b8  ti_sysbios_family_arm_m3_Hwi_Object__PARAMS__C                          
0000fe94  ti_sysbios_family_arm_m3_Hwi_Object__count__C                           
00010139  ti_sysbios_family_arm_m3_Hwi_Object__get__S                             
0000fedc  ti_sysbios_family_arm_m3_Hwi_Object__table__C                           
800651b8  ti_sysbios_family_arm_m3_Hwi_Object__table__V                           
00010f75  ti_sysbios_family_arm_m3_Hwi_Params__init__S                            
0000ff24  ti_sysbios_family_arm_m3_Hwi_ccr__C                                     
0000a271  ti_sysbios_family_arm_m3_Hwi_clearInterrupt__E                          
0000ece5  ti_sysbios_family_arm_m3_Hwi_create                                     
00011ed9  ti_sysbios_family_arm_m3_Hwi_disableFxn__E                              
0000ea51  ti_sysbios_family_arm_m3_Hwi_disableInterrupt__E                        
000100b4  ti_sysbios_family_arm_m3_Hwi_disablePriority__C                         
0000b799  ti_sysbios_family_arm_m3_Hwi_dispatchC__I                               
80064000  ti_sysbios_family_arm_m3_Hwi_dispatchTable                              
0000d115  ti_sysbios_family_arm_m3_Hwi_dispatch__I                                
00012081  ti_sysbios_family_arm_m3_Hwi_doSwiRestore__I                            
00012111  ti_sysbios_family_arm_m3_Hwi_doTaskRestore__I                           
0000f699  ti_sysbios_family_arm_m3_Hwi_enableFxn__E                               
0000eac1  ti_sysbios_family_arm_m3_Hwi_enableInterrupt__E                         
0000a899  ti_sysbios_family_arm_m3_Hwi_excBusFault__I                             
0000da59  ti_sysbios_family_arm_m3_Hwi_excDebugMon__I                             
00011679  ti_sysbios_family_arm_m3_Hwi_excHandlerAsm__I                           
000104ec  ti_sysbios_family_arm_m3_Hwi_excHandlerFunc__C                          
00011ce9  ti_sysbios_family_arm_m3_Hwi_excHandler__I                              
0000db11  ti_sysbios_family_arm_m3_Hwi_excHardFault__I                            
0000ba19  ti_sysbios_family_arm_m3_Hwi_excMemFault__I                             
00010ae1  ti_sysbios_family_arm_m3_Hwi_excNmi__I                                  
000108b9  ti_sysbios_family_arm_m3_Hwi_excNoIsr__I                                
0000fc61  ti_sysbios_family_arm_m3_Hwi_excReserved__I                             
00010531  ti_sysbios_family_arm_m3_Hwi_excSvCall__I                               
0000b121  ti_sysbios_family_arm_m3_Hwi_excUsageFault__I                           
0000f541  ti_sysbios_family_arm_m3_Hwi_getCoreStackInfo__E                        
0000d6a1  ti_sysbios_family_arm_m3_Hwi_initNVIC__E                                
0000fca9  ti_sysbios_family_arm_m3_Hwi_initStacks__E                              
0001052c  ti_sysbios_family_arm_m3_Hwi_nullIsrFunc__C                             
e000e000  ti_sysbios_family_arm_m3_Hwi_nvic                                       
000112c9  ti_sysbios_family_arm_m3_Hwi_pendSV__I                                  
0000f2c1  ti_sysbios_family_arm_m3_Hwi_postInit__I                                
0001056c  ti_sysbios_family_arm_m3_Hwi_priGroup__C                                
00000400  ti_sysbios_family_arm_m3_Hwi_resetVectors                               
0000f6e9  ti_sysbios_family_arm_m3_Hwi_restoreFxn__E                              
000112e1  ti_sysbios_family_arm_m3_Hwi_return                                     
0000f739  ti_sysbios_family_arm_m3_Hwi_setPriority__E                             
00012149  ti_sysbios_family_arm_m3_Hwi_startup__E                                 
00011be9  ti_sysbios_family_arm_m3_Hwi_switchFromBootStack__E                     
0000ab81  ti_sysbios_family_arm_m3_Hwi_updateNvic__I                              
80063000  ti_sysbios_family_arm_m3_Hwi_vnvic                                      
000057dd  ti_sysbios_family_arm_m3_TaskSupport_Module__startupDone__S             
0000fa4d  ti_sysbios_family_arm_m3_TaskSupport_buildTaskStack                     
00011ee9  ti_sysbios_family_arm_m3_TaskSupport_checkStack__E                      
00011ef9  ti_sysbios_family_arm_m3_TaskSupport_getStackAlignment__E               
00011cf9  ti_sysbios_family_arm_m3_TaskSupport_glue                               
00010624  ti_sysbios_family_arm_m3_TaskSupport_stackAlignment__C                  
00010571  ti_sysbios_family_arm_m3_TaskSupport_start__E                           
00011d09  ti_sysbios_family_arm_m3_TaskSupport_swap__E                            
00010664  ti_sysbios_family_shared_vayu_IntXbar_A_badBenelliIpuId__C              
000106a4  ti_sysbios_family_shared_vayu_IntXbar_A_badBenelliXbarInstanceNum__C    
000106e4  ti_sysbios_family_shared_vayu_IntXbar_A_badIntSourceIdx__C              
80064ff0  ti_sysbios_family_shared_vayu_IntXbar_Module_State_0_intXbar__A         
00010b14  ti_sysbios_family_shared_vayu_IntXbar_Module__diagsEnabled__C           
00010bb4  ti_sysbios_family_shared_vayu_IntXbar_Module__diagsIncluded__C          
000110a4  ti_sysbios_family_shared_vayu_IntXbar_Module__diagsMask__C              
00015d36  ti_sysbios_family_shared_vayu_IntXbar_Module__id__C                     
00005f05  ti_sysbios_family_shared_vayu_IntXbar_Module__startupDone__S            
800646d0  ti_sysbios_family_shared_vayu_IntXbar_Module__state__V                  
0000b279  ti_sysbios_family_shared_vayu_IntXbar_connect__E                        
0000e8d1  ti_sysbios_family_shared_vayu_IntXbar_initIntXbar__I                    
0000dbc9  ti_sysbios_family_shared_vayu_IntXbar_initXbarRegs__I                   
00011334  ti_sysbios_family_shared_vayu_IntXbar_mmrBaseAddr__C                    
00011901  ti_sysbios_family_shared_vayu_TimerSupport_Module__startupDone__F       
00012089  ti_sysbios_family_shared_vayu_TimerSupport_Module__startupDone__S       
00011c29  ti_sysbios_family_shared_vayu_TimerSupport_Module_startup__E            
00011e29  ti_sysbios_family_shared_vayu_TimerSupport_enable__E                    
00011799  ti_sysbios_family_xxx_Hwi_switchAndRunFunc                              
000114e9  ti_sysbios_gates_GateHwi_Handle__label__S                               
00012171  ti_sysbios_gates_GateHwi_Instance_init__E                               
00015708  ti_sysbios_gates_GateHwi_Module__FXNS__C                                
800646d4  ti_sysbios_gates_GateHwi_Module__root__V                                
0001581c  ti_sysbios_gates_GateHwi_Object__DESC__C                                
000159ac  ti_sysbios_gates_GateHwi_Object__PARAMS__C                              
00010179  ti_sysbios_gates_GateHwi_Object__create__S                              
000112ed  ti_sysbios_gates_GateHwi_Object__delete__S                              
800646dc  ti_sysbios_gates_GateHwi_Object__table__V                               
00010fa1  ti_sysbios_gates_GateHwi_Params__init__S                                
000105ad  ti_sysbios_gates_GateHwi_create                                         
00011f05  ti_sysbios_gates_GateHwi_delete                                         
00011f11  ti_sysbios_gates_GateHwi_enter__E                                       
00012119  ti_sysbios_gates_GateHwi_leave__E                                       
00012151  ti_sysbios_gates_GateHwi_query__E                                       
800646ec  ti_sysbios_gates_GateMutexPri_Module__root__V                           
0001135c  ti_sysbios_gates_GateMutex_A_badContext__C                              
0001150b  ti_sysbios_gates_GateMutex_Handle__label__S                             
000113cc  ti_sysbios_gates_GateMutex_Instance_State_sem__O                        
00011d19  ti_sysbios_gates_GateMutex_Instance_finalize__E                         
00011921  ti_sysbios_gates_GateMutex_Instance_init__E                             
0001572c  ti_sysbios_gates_GateMutex_Module__FXNS__C                              
0001186c  ti_sysbios_gates_GateMutex_Module__diagsEnabled__C                      
0001188c  ti_sysbios_gates_GateMutex_Module__diagsIncluded__C                     
0001191c  ti_sysbios_gates_GateMutex_Module__diagsMask__C                         
00015d38  ti_sysbios_gates_GateMutex_Module__id__C                                
800646e4  ti_sysbios_gates_GateMutex_Module__root__V                              
0001583c  ti_sysbios_gates_GateMutex_Object__DESC__C                              
000159c4  ti_sysbios_gates_GateMutex_Object__PARAMS__C                            
000101b9  ti_sysbios_gates_GateMutex_Object__create__S                            
000110d1  ti_sysbios_gates_GateMutex_Object__delete__S                            
800652bc  ti_sysbios_gates_GateMutex_Object__table__V                             
0000d761  ti_sysbios_gates_GateMutex_enter__E                                     
00011a79  ti_sysbios_gates_GateMutex_leave__E                                     
00012159  ti_sysbios_gates_GateMutex_query__E                                     
800646f4  ti_sysbios_gates_GateSwi_Module__root__V                                
00011699  ti_sysbios_hal_Cache_CacheProxy_inv__E                                  
00012091  ti_sysbios_hal_Cache_CacheProxy_wbAll__E                                
00011699  ti_sysbios_hal_Cache_inv__E                                             
00012091  ti_sysbios_hal_Cache_wbAll__E                                           
00012099  ti_sysbios_hal_Core_CoreProxy_getId__E                                  
00011bb4  ti_sysbios_hal_Hwi_E_stackOverflow__C                                   
000120a1  ti_sysbios_hal_Hwi_HwiProxy_Module__startupDone__S                      
00011f1d  ti_sysbios_hal_Hwi_HwiProxy_clearInterrupt__E                           
00011f29  ti_sysbios_hal_Hwi_HwiProxy_disableInterrupt__E                         
00011f35  ti_sysbios_hal_Hwi_HwiProxy_enableInterrupt__E                          
00011a91  ti_sysbios_hal_Hwi_HwiProxy_getCoreStackInfo__E                         
000120a9  ti_sysbios_hal_Hwi_HwiProxy_startup__E                                  
000120b1  ti_sysbios_hal_Hwi_HwiProxy_switchFromBootStack__E                      
00015d3a  ti_sysbios_hal_Hwi_Module__id__C                                        
800646fc  ti_sysbios_hal_Hwi_Module__root__V                                      
00011c41  ti_sysbios_hal_Hwi_Module_startup__E                                    
80064704  ti_sysbios_hal_Hwi_Object__table__V                                     
000105e9  ti_sysbios_hal_Hwi_checkStack                                           
00011f1d  ti_sysbios_hal_Hwi_clearInterrupt__E                                    
00011f29  ti_sysbios_hal_Hwi_disableInterrupt__E                                  
00011f35  ti_sysbios_hal_Hwi_enableInterrupt__E                                   
00011a91  ti_sysbios_hal_Hwi_getCoreStackInfo__E                                  
000108f1  ti_sysbios_hal_Hwi_initStack                                            
000120a9  ti_sysbios_hal_Hwi_startup__E                                           
000120b1  ti_sysbios_hal_Hwi_switchFromBootStack__E                               
80064714  ti_sysbios_hal_Timer_Module__root__V                                    
00011c59  ti_sysbios_hal_Timer_Module_startup__E                                  
000120b9  ti_sysbios_hal_Timer_TimerProxy_Module__startupDone__S                  
000064bd  ti_sysbios_hal_ammu_AMMU_Module__startupDone__S                         
00015d3c  ti_sysbios_hal_ammu_AMMU_configureAmmu__C                               
40000800  ti_sysbios_hal_ammu_AMMU_mmu                                            
00014930  ti_sysbios_hal_ammu_AMMU_mmuInitConfig__C                               
00011bcc  ti_sysbios_hal_ammu_AMMU_numLargePages__C                               
00011be4  ti_sysbios_hal_ammu_AMMU_numLinePages__C                                
00011c24  ti_sysbios_hal_ammu_AMMU_numMediumPages__C                              
00011c54  ti_sysbios_hal_ammu_AMMU_numSmallPages__C                               
00011f41  ti_sysbios_hal_unicache_Cache_Module_GateProxy_enter__E                 
00011d29  ti_sysbios_hal_unicache_Cache_Module_GateProxy_leave__E                 
00011c6c  ti_sysbios_hal_unicache_Cache_Module__gateObj__C                        
40000000  ti_sysbios_hal_unicache_Cache_cache                                     
00015d3e  ti_sysbios_hal_unicache_Cache_configureCache__C                         
00015d40  ti_sysbios_hal_unicache_Cache_enableCache__C                            
00010929  ti_sysbios_hal_unicache_Cache_invAll__E                                 
0000c001  ti_sysbios_hal_unicache_Cache_inv__E                                    
00011cb4  ti_sysbios_hal_unicache_Cache_l1ocpConfig__C                            
00011e94  ti_sysbios_hal_unicache_Cache_l1secConfig__C                            
00015d42  ti_sysbios_hal_unicache_Cache_l2CacheSupported__C                       
00011ed4  ti_sysbios_hal_unicache_Cache_l2ocpConfig__C                            
00011ee4  ti_sysbios_hal_unicache_Cache_l2secConfig__C                            
00011ef4  ti_sysbios_hal_unicache_Cache_maxLineModeBufSize__C                     
000101f9  ti_sysbios_hal_unicache_Cache_seizeRegs__I                              
00009b71  ti_sysbios_hal_unicache_Cache_startup__I                                
00010961  ti_sysbios_hal_unicache_Cache_wbAll__E                                  
00011f64  ti_sysbios_heaps_HeapBuf_A_bufAlign__C                                  
00012144  ti_sysbios_heaps_HeapBuf_A_invalidAlign__C                              
0001214c  ti_sysbios_heaps_HeapBuf_A_invalidBufSize__C                            
00012154  ti_sysbios_heaps_HeapBuf_A_invalidFree__C                               
0001215c  ti_sysbios_heaps_HeapBuf_A_invalidRequestedAlign__C                     
00012164  ti_sysbios_heaps_HeapBuf_A_noBlocksToFree__C                            
0001216c  ti_sysbios_heaps_HeapBuf_A_nullBuf__C                                   
00015acc  ti_sysbios_heaps_HeapBuf_A_zeroBlockSize__C                             
00015ad0  ti_sysbios_heaps_HeapBuf_A_zeroBlocks__C                                
00015ad4  ti_sysbios_heaps_HeapBuf_A_zeroBufSize__C                               
00015ad8  ti_sysbios_heaps_HeapBuf_E_size__C                                      
0001152d  ti_sysbios_heaps_HeapBuf_Handle__label__S                               
80000000  ti_sysbios_heaps_HeapBuf_Instance_State_0_buf__A                        
00015adc  ti_sysbios_heaps_HeapBuf_Instance_State_freeList__O                     
00011d39  ti_sysbios_heaps_HeapBuf_Instance_finalize__E                           
000064c1  ti_sysbios_heaps_HeapBuf_Instance_init__E                               
0001566c  ti_sysbios_heaps_HeapBuf_Module__FXNS__C                                
00015ae0  ti_sysbios_heaps_HeapBuf_Module__diagsEnabled__C                        
00015ae4  ti_sysbios_heaps_HeapBuf_Module__diagsIncluded__C                       
00015ae8  ti_sysbios_heaps_HeapBuf_Module__diagsMask__C                           
00015d44  ti_sysbios_heaps_HeapBuf_Module__id__C                                  
8006471c  ti_sysbios_heaps_HeapBuf_Module__root__V                                
80064724  ti_sysbios_heaps_HeapBuf_Module__state__V                               
0000f599  ti_sysbios_heaps_HeapBuf_Module_startup__E                              
0001585c  ti_sysbios_heaps_HeapBuf_Object__DESC__C                                
00015640  ti_sysbios_heaps_HeapBuf_Object__PARAMS__C                              
00015aec  ti_sysbios_heaps_HeapBuf_Object__count__C                               
0000ed4d  ti_sysbios_heaps_HeapBuf_Object__create__S                              
000110f9  ti_sysbios_heaps_HeapBuf_Object__delete__S                              
00010239  ti_sysbios_heaps_HeapBuf_Object__get__S                                 
00015af0  ti_sysbios_heaps_HeapBuf_Object__table__C                               
80065384  ti_sysbios_heaps_HeapBuf_Object__table__V                               
0000acf1  ti_sysbios_heaps_HeapBuf_alloc__E                                       
00009781  ti_sysbios_heaps_HeapBuf_free__E                                        
00010b19  ti_sysbios_heaps_HeapBuf_getStats__E                                    
00012161  ti_sysbios_heaps_HeapBuf_isBlocking__E                                  
00015af4  ti_sysbios_heaps_HeapBuf_numConstructedHeaps__C                         
00010629  ti_sysbios_heaps_HeapBuf_postInit__I                                    
00015d46  ti_sysbios_heaps_HeapBuf_trackMaxAllocs__C                              
00015af8  ti_sysbios_heaps_HeapMem_A_align__C                                     
00015afc  ti_sysbios_heaps_HeapMem_A_heapSize__C                                  
00015b00  ti_sysbios_heaps_HeapMem_A_invalidFree__C                               
00015b04  ti_sysbios_heaps_HeapMem_A_zeroBlock__C                                 
00015b08  ti_sysbios_heaps_HeapMem_E_memory__C                                    
0001154f  ti_sysbios_heaps_HeapMem_Handle__label__S                               
80040000  ti_sysbios_heaps_HeapMem_Instance_State_0_buf__A                        
0000b8d9  ti_sysbios_heaps_HeapMem_Instance_init__E                               
00011f4d  ti_sysbios_heaps_HeapMem_Module_GateProxy_enter__E                      
00011d49  ti_sysbios_heaps_HeapMem_Module_GateProxy_leave__E                      
00011f59  ti_sysbios_heaps_HeapMem_Module_GateProxy_query__E                      
00015694  ti_sysbios_heaps_HeapMem_Module__FXNS__C                                
00015b0c  ti_sysbios_heaps_HeapMem_Module__diagsEnabled__C                        
00015b10  ti_sysbios_heaps_HeapMem_Module__diagsIncluded__C                       
00015b14  ti_sysbios_heaps_HeapMem_Module__diagsMask__C                           
00015b18  ti_sysbios_heaps_HeapMem_Module__gateObj__C                             
00015d48  ti_sysbios_heaps_HeapMem_Module__id__C                                  
80064728  ti_sysbios_heaps_HeapMem_Module__root__V                                
0001587c  ti_sysbios_heaps_HeapMem_Object__DESC__C                                
00015750  ti_sysbios_heaps_HeapMem_Object__PARAMS__C                              
00015b1c  ti_sysbios_heaps_HeapMem_Object__count__C                               
00010279  ti_sysbios_heaps_HeapMem_Object__create__S                              
00011311  ti_sysbios_heaps_HeapMem_Object__delete__S                              
000102b9  ti_sysbios_heaps_HeapMem_Object__get__S                                 
00015b20  ti_sysbios_heaps_HeapMem_Object__table__C                               
80064730  ti_sysbios_heaps_HeapMem_Object__table__V                               
00008cb9  ti_sysbios_heaps_HeapMem_alloc__E                                       
00008a61  ti_sysbios_heaps_HeapMem_free__E                                        
0000fa99  ti_sysbios_heaps_HeapMem_getStats__E                                    
00010669  ti_sysbios_heaps_HeapMem_init__I                                        
00012121  ti_sysbios_heaps_HeapMem_isBlocking__E                                  
00015b24  ti_sysbios_heaps_HeapMem_reqAlign__C                                    
00015b28  ti_sysbios_knl_Clock_LM_begin__C                                        
00015b2c  ti_sysbios_knl_Clock_LM_tick__C                                         
00015b30  ti_sysbios_knl_Clock_LW_delayed__C                                      
00015b34  ti_sysbios_knl_Clock_Module_State_clockQ__O                             
00015b38  ti_sysbios_knl_Clock_Module__diagsEnabled__C                            
00015b3c  ti_sysbios_knl_Clock_Module__diagsIncluded__C                           
00015b40  ti_sysbios_knl_Clock_Module__diagsMask__C                               
00015d4a  ti_sysbios_knl_Clock_Module__id__C                                      
00015d4c  ti_sysbios_knl_Clock_Module__loggerDefined__C                           
00015b44  ti_sysbios_knl_Clock_Module__loggerFxn1__C                              
00015b48  ti_sysbios_knl_Clock_Module__loggerFxn2__C                              
00015b4c  ti_sysbios_knl_Clock_Module__loggerObj__C                               
80064748  ti_sysbios_knl_Clock_Module__root__V                                    
80065358  ti_sysbios_knl_Clock_Module__state__V                                   
00011c71  ti_sysbios_knl_Clock_Module_startup__E                                  
000120c1  ti_sysbios_knl_Clock_TimerProxy_Module__startupDone__S                  
00011121  ti_sysbios_knl_Clock_addI__E                                            
00010999  ti_sysbios_knl_Clock_doTick__I                                          
00011f69  ti_sysbios_knl_Clock_getTicks__E                                        
0000f149  ti_sysbios_knl_Clock_logTick__E                                         
00015b50  ti_sysbios_knl_Clock_tickPeriod__C                                      
0000b659  ti_sysbios_knl_Clock_workFunc__E                                        
0001589c  ti_sysbios_knl_Idle_coreList__A                                         
00015a9c  ti_sysbios_knl_Idle_coreList__C                                         
000158bc  ti_sysbios_knl_Idle_funcList__A                                         
00015aa4  ti_sysbios_knl_Idle_funcList__C                                         
00011e39  ti_sysbios_knl_Idle_loop__E                                             
0000fee1  ti_sysbios_knl_Idle_run__E                                              
00012129  ti_sysbios_knl_Queue_Instance_init__E                                   
80064750  ti_sysbios_knl_Queue_Module__root__V                                    
000158dc  ti_sysbios_knl_Queue_Object__DESC__C                                    
000159dc  ti_sysbios_knl_Queue_Object__PARAMS__C                                  
00015b54  ti_sysbios_knl_Queue_Object__count__C                                   
0001193d  ti_sysbios_knl_Queue_Object__destruct__S                                
000109d1  ti_sysbios_knl_Queue_Object__get__S                                     
00015b58  ti_sysbios_knl_Queue_Object__table__C                                   
00010dd9  ti_sysbios_knl_Queue_construct                                          
00011f75  ti_sysbios_knl_Queue_destruct                                           
00011e49  ti_sysbios_knl_Queue_empty__E                                           
00011339  ti_sysbios_knl_Queue_get__E                                             
00011149  ti_sysbios_knl_Queue_put__E                                             
00015b5c  ti_sysbios_knl_Semaphore_A_badContext__C                                
00015b60  ti_sysbios_knl_Semaphore_A_noEvents__C                                  
00015b64  ti_sysbios_knl_Semaphore_A_overflow__C                                  
00015b68  ti_sysbios_knl_Semaphore_A_pendTaskDisabled__C                          
00015b6c  ti_sysbios_knl_Semaphore_Instance_State_pendQ__O                        
00011d59  ti_sysbios_knl_Semaphore_Instance_finalize__E                           
0000e431  ti_sysbios_knl_Semaphore_Instance_init__E                               
00015b70  ti_sysbios_knl_Semaphore_LM_pend__C                                     
00015b74  ti_sysbios_knl_Semaphore_LM_post__C                                     
00015b78  ti_sysbios_knl_Semaphore_Module__diagsEnabled__C                        
00015b7c  ti_sysbios_knl_Semaphore_Module__diagsIncluded__C                       
00015b80  ti_sysbios_knl_Semaphore_Module__diagsMask__C                           
00015d4e  ti_sysbios_knl_Semaphore_Module__id__C                                  
00015d50  ti_sysbios_knl_Semaphore_Module__loggerDefined__C                       
00015b84  ti_sysbios_knl_Semaphore_Module__loggerFxn2__C                          
00015b88  ti_sysbios_knl_Semaphore_Module__loggerFxn4__C                          
00015b8c  ti_sysbios_knl_Semaphore_Module__loggerObj__C                           
80064758  ti_sysbios_knl_Semaphore_Module__root__V                                
000158fc  ti_sysbios_knl_Semaphore_Object__DESC__C                                
00015774  ti_sysbios_knl_Semaphore_Object__PARAMS__C                              
00011171  ti_sysbios_knl_Semaphore_Object__delete__S                              
000116b9  ti_sysbios_knl_Semaphore_Object__destruct__S                            
800653ac  ti_sysbios_knl_Semaphore_Object__table__V                               
00010fcd  ti_sysbios_knl_Semaphore_Params__init__S                                
00010b4d  ti_sysbios_knl_Semaphore_construct                                      
000102f9  ti_sysbios_knl_Semaphore_create                                         
00011f81  ti_sysbios_knl_Semaphore_delete                                         
00011f8d  ti_sysbios_knl_Semaphore_destruct                                       
000106a9  ti_sysbios_knl_Semaphore_pendTimeout__I                                 
00007561  ti_sysbios_knl_Semaphore_pend__E                                        
0000b511  ti_sysbios_knl_Semaphore_post__E                                        
00015b90  ti_sysbios_knl_Swi_A_badPriority__C                                     
00011571  ti_sysbios_knl_Swi_Handle__label__S                                     
80064148  ti_sysbios_knl_Swi_Instance_State_0_hookEnv__A                          
0000e079  ti_sysbios_knl_Swi_Instance_finalize__E                                 
0000c781  ti_sysbios_knl_Swi_Instance_init__E                                     
00015b94  ti_sysbios_knl_Swi_LD_end__C                                            
00015b98  ti_sysbios_knl_Swi_LM_begin__C                                          
00015b9c  ti_sysbios_knl_Swi_LM_post__C                                           
80064ef0  ti_sysbios_knl_Swi_Module_State_0_readyQ__A                             
00015ba0  ti_sysbios_knl_Swi_Module__diagsEnabled__C                              
00015ba4  ti_sysbios_knl_Swi_Module__diagsIncluded__C                             
00015ba8  ti_sysbios_knl_Swi_Module__diagsMask__C                                 
00015d52  ti_sysbios_knl_Swi_Module__id__C                                        
00015d54  ti_sysbios_knl_Swi_Module__loggerDefined__C                             
00015bac  ti_sysbios_knl_Swi_Module__loggerFxn1__C                                
00015bb0  ti_sysbios_knl_Swi_Module__loggerFxn4__C                                
00015bb4  ti_sysbios_knl_Swi_Module__loggerObj__C                                 
80064760  ti_sysbios_knl_Swi_Module__root__V                                      
80064768  ti_sysbios_knl_Swi_Module__state__V                                     
0000e951  ti_sysbios_knl_Swi_Module_startup__E                                    
0001591c  ti_sysbios_knl_Swi_Object__DESC__C                                      
000156bc  ti_sysbios_knl_Swi_Object__PARAMS__C                                    
00015bb8  ti_sysbios_knl_Swi_Object__count__C                                     
00010339  ti_sysbios_knl_Swi_Object__get__S                                       
00015bbc  ti_sysbios_knl_Swi_Object__heap__C                                      
00015bc0  ti_sysbios_knl_Swi_Object__table__C                                     
80065328  ti_sysbios_knl_Swi_Object__table__V                                     
0000efbd  ti_sysbios_knl_Swi_create                                               
00011361  ti_sysbios_knl_Swi_disable__E                                           
000159f4  ti_sysbios_knl_Swi_hooks__A                                             
00015aac  ti_sysbios_knl_Swi_hooks__C                                             
00015bc4  ti_sysbios_knl_Swi_numConstructedSwis__C                                
0000f491  ti_sysbios_knl_Swi_postInit__I                                          
0000cb79  ti_sysbios_knl_Swi_post__E                                              
0000edb9  ti_sysbios_knl_Swi_restoreHwi__E                                        
00010b81  ti_sysbios_knl_Swi_restoreSMP__I                                        
0000fae9  ti_sysbios_knl_Swi_restore__E                                           
0000fb39  ti_sysbios_knl_Swi_runLoop__I                                           
0000a0d1  ti_sysbios_knl_Swi_run__I                                               
0000f321  ti_sysbios_knl_Swi_schedule__I                                          
00011f99  ti_sysbios_knl_Swi_self__E                                              
00012131  ti_sysbios_knl_Swi_startup__E                                           
00015bc8  ti_sysbios_knl_Task_A_badPriority__C                                    
00015bcc  ti_sysbios_knl_Task_A_badTaskState__C                                   
00015bd0  ti_sysbios_knl_Task_A_badThreadType__C                                  
00015bd4  ti_sysbios_knl_Task_A_noPendElem__C                                     
00015bd8  ti_sysbios_knl_Task_E_spOutOfBounds__C                                  
00015bdc  ti_sysbios_knl_Task_E_stackOverflow__C                                  
00011385  ti_sysbios_knl_Task_Handle__label__S                                    
8006414c  ti_sysbios_knl_Task_Instance_State_0_hookEnv__A                         
80060000  ti_sysbios_knl_Task_Instance_State_0_stack__A                           
80064150  ti_sysbios_knl_Task_Instance_State_1_hookEnv__A                         
80060800  ti_sysbios_knl_Task_Instance_State_1_stack__A                           
80064154  ti_sysbios_knl_Task_Instance_State_2_hookEnv__A                         
80061000  ti_sysbios_knl_Task_Instance_State_2_stack__A                           
80064158  ti_sysbios_knl_Task_Instance_State_3_hookEnv__A                         
80061800  ti_sysbios_knl_Task_Instance_State_3_stack__A                           
00008571  ti_sysbios_knl_Task_Instance_finalize__E                                
00009571  ti_sysbios_knl_Task_Instance_init__E                                    
00015be0  ti_sysbios_knl_Task_LD_block__C                                         
00015be4  ti_sysbios_knl_Task_LD_exit__C                                          
00015be8  ti_sysbios_knl_Task_LD_ready__C                                         
00015bec  ti_sysbios_knl_Task_LM_noWork__C                                        
00015bf0  ti_sysbios_knl_Task_LM_schedule__C                                      
00015bf4  ti_sysbios_knl_Task_LM_switch__C                                        
800647b4  ti_sysbios_knl_Task_Module_State_0_idleTask__A                          
80064a40  ti_sysbios_knl_Task_Module_State_0_readyQ__A                            
80064798  ti_sysbios_knl_Task_Module_State_0_smpCurMask__A                        
8006478c  ti_sysbios_knl_Task_Module_State_0_smpCurSet__A                         
800647a0  ti_sysbios_knl_Task_Module_State_0_smpCurTask__A                        
800647a8  ti_sysbios_knl_Task_Module_State_0_smpReadyQ__A                         
00015bf8  ti_sysbios_knl_Task_Module_State_inactiveQ__O                           
00015bfc  ti_sysbios_knl_Task_Module__diagsEnabled__C                             
00015c00  ti_sysbios_knl_Task_Module__diagsIncluded__C                            
00015c04  ti_sysbios_knl_Task_Module__diagsMask__C                                
00015d56  ti_sysbios_knl_Task_Module__id__C                                       
00015d58  ti_sysbios_knl_Task_Module__loggerDefined__C                            
00015c08  ti_sysbios_knl_Task_Module__loggerFxn2__C                               
00015c0c  ti_sysbios_knl_Task_Module__loggerFxn4__C                               
00015c10  ti_sysbios_knl_Task_Module__loggerFxn8__C                               
00015c14  ti_sysbios_knl_Task_Module__loggerObj__C                                
80064784  ti_sysbios_knl_Task_Module__root__V                                     
80065200  ti_sysbios_knl_Task_Module__state__V                                    
0000e119  ti_sysbios_knl_Task_Module_startup__E                                   
0001593c  ti_sysbios_knl_Task_Object__DESC__C                                     
00015548  ti_sysbios_knl_Task_Object__PARAMS__C                                   
00015c18  ti_sysbios_knl_Task_Object__count__C                                    
00010379  ti_sysbios_knl_Task_Object__get__S                                      
00015c1c  ti_sysbios_knl_Task_Object__heap__C                                     
00015c20  ti_sysbios_knl_Task_Object__table__C                                    
80064bc0  ti_sysbios_knl_Task_Object__table__V                                    
00010ff9  ti_sysbios_knl_Task_Params__init__S                                     
000120c9  ti_sysbios_knl_Task_SupportProxy_Module__startupDone__S                 
00011d69  ti_sysbios_knl_Task_SupportProxy_checkStack__E                          
000120d1  ti_sysbios_knl_Task_SupportProxy_getStackAlignment__E                   
000117b7  ti_sysbios_knl_Task_SupportProxy_start__E                               
00011d79  ti_sysbios_knl_Task_SupportProxy_swap__E                                
00015c24  ti_sysbios_knl_Task_allBlockedFunc__C                                   
0000f789  ti_sysbios_knl_Task_allBlockedFunction__I                               
0000e699  ti_sysbios_knl_Task_blockI__E                                           
0000dc81  ti_sysbios_knl_Task_checkStacks__E                                      
0000f021  ti_sysbios_knl_Task_create                                              
00015c28  ti_sysbios_knl_Task_defaultStackHeap__C                                 
00015c2c  ti_sysbios_knl_Task_defaultStackSize__C                                 
000113a9  ti_sysbios_knl_Task_disable__E                                          
00011aa9  ti_sysbios_knl_Task_enter__I                                            
0000d5d9  ti_sysbios_knl_Task_exit__E                                             
00015a0c  ti_sysbios_knl_Task_hooks__A                                            
00015ab4  ti_sysbios_knl_Task_hooks__C                                            
00015d5a  ti_sysbios_knl_Task_initStackFlag__C                                    
00015c30  ti_sysbios_knl_Task_numConstructedTasks__C                              
0000cc71  ti_sysbios_knl_Task_postInit__I                                         
000103b9  ti_sysbios_knl_Task_processVitalTaskFlag__I                             
00010bb9  ti_sysbios_knl_Task_restoreHwi__E                                       
000106e9  ti_sysbios_knl_Task_restore__E                                          
00006bb1  ti_sysbios_knl_Task_schedule__I                                         
00010e09  ti_sysbios_knl_Task_self__E                                             
00009d61  ti_sysbios_knl_Task_startCore__E                                        
00015c34  ti_sysbios_knl_Task_startupHookFunc__C                                  
00012139  ti_sysbios_knl_Task_startup__E                                          
00011d11  ti_sysbios_knl_Task_swapReturn                                          
0000d1e9  ti_sysbios_knl_Task_unblockI__E                                         
00015c38  ti_sysbios_timers_dmtimer_Timer_E_cannotSupport__C                      
00015c3c  ti_sysbios_timers_dmtimer_Timer_E_freqMismatch__C                       
80064d00  ti_sysbios_timers_dmtimer_Timer_Module_State_0_device__A                
80065244  ti_sysbios_timers_dmtimer_Timer_Module_State_0_handles__A               
80064f70  ti_sysbios_timers_dmtimer_Timer_Module_State_0_intFreqs__A              
00015c40  ti_sysbios_timers_dmtimer_Timer_Module__diagsEnabled__C                 
00015c44  ti_sysbios_timers_dmtimer_Timer_Module__diagsIncluded__C                
00015c48  ti_sysbios_timers_dmtimer_Timer_Module__diagsMask__C                    
00015d5c  ti_sysbios_timers_dmtimer_Timer_Module__id__C                           
800647bc  ti_sysbios_timers_dmtimer_Timer_Module__root__V                         
00011959  ti_sysbios_timers_dmtimer_Timer_Module__startupDone__F                  
000120d9  ti_sysbios_timers_dmtimer_Timer_Module__startupDone__S                  
800647c4  ti_sysbios_timers_dmtimer_Timer_Module__state__V                        
0000f5f1  ti_sysbios_timers_dmtimer_Timer_Module_startup__E                       
00015c4c  ti_sysbios_timers_dmtimer_Timer_Object__count__C                        
00010725  ti_sysbios_timers_dmtimer_Timer_Object__get__S                          
00015c50  ti_sysbios_timers_dmtimer_Timer_Object__table__C                        
80065064  ti_sysbios_timers_dmtimer_Timer_Object__table__V                        
000120e1  ti_sysbios_timers_dmtimer_Timer_TimerSupportProxy_Module__startupDone__S
00011d99  ti_sysbios_timers_dmtimer_Timer_TimerSupportProxy_enable__E             
0000a411  ti_sysbios_timers_dmtimer_Timer_checkFreq__I                            
00015d5e  ti_sysbios_timers_dmtimer_Timer_checkFrequency__C                       
0000bdc1  ti_sysbios_timers_dmtimer_Timer_deviceConfig__I                         
000116d9  ti_sysbios_timers_dmtimer_Timer_getFreq__E                              
0000ee21  ti_sysbios_timers_dmtimer_Timer_getHandle__E                            
0000ee89  ti_sysbios_timers_dmtimer_Timer_initDevice__I                           
00015c54  ti_sysbios_timers_dmtimer_Timer_numTimerDevices__C                      
00010a09  ti_sysbios_timers_dmtimer_Timer_postInit__I                             
00012169  ti_sysbios_timers_dmtimer_Timer_restoreRegisters__E                     
0000d389  ti_sysbios_timers_dmtimer_Timer_setPeriodMicroSecs__E                   
0000e731  ti_sysbios_timers_dmtimer_Timer_start__E                                
00015d60  ti_sysbios_timers_dmtimer_Timer_startupNeeded__C                        
0000ff29  ti_sysbios_timers_dmtimer_Timer_startup__E                              
00010761  ti_sysbios_timers_dmtimer_Timer_stop__E                                 
000113d1  ti_sysbios_timers_dmtimer_Timer_stub__E                                 
800647d8  ti_sysbios_xdcruntime_GateThreadSupport_Module__root__V                 
80064838  ti_trace_SysMin_Module_State_0_lineBuffers__A                           
9f000000  ti_trace_SysMin_Module_State_0_outbuf__A                                
9f007ffc  ti_trace_SysMin_Module_State_0_readidx__A                               
9f007ff8  ti_trace_SysMin_Module_State_0_writeidx__A                              
800647e0  ti_trace_SysMin_Module__state__V                                        
00011199  ti_trace_SysMin_Module_startup__E                                       
0001079d  ti_trace_SysMin_abort__E                                                
00015c58  ti_trace_SysMin_bufSize__C                                              
000116f9  ti_trace_SysMin_exit__E                                                 
00015d62  ti_trace_SysMin_flushAtExit__C                                          
00008cb7  ti_trace_SysMin_flush__E                                                
00009129  ti_trace_SysMin_putch__E                                                
00011da9  ti_trace_SysMin_ready__E                                                
00015c5c  xdc_runtime_Assert_E_assertFailed__C                                    
0000f645  xdc_runtime_Assert_raise__I                                             
00015c60  xdc_runtime_Core_A_initializedParams__C                                 
00015c64  xdc_runtime_Core_Module__diagsEnabled__C                                
00015c68  xdc_runtime_Core_Module__diagsIncluded__C                               
00015c6c  xdc_runtime_Core_Module__diagsMask__C                                   
00015d64  xdc_runtime_Core_Module__id__C                                          
00010bed  xdc_runtime_Core_assignLabel__I                                         
0000fd37  xdc_runtime_Core_assignParams__I                                        
0000d2b9  xdc_runtime_Core_constructObject__I                                     
0000c881  xdc_runtime_Core_createObject__I                                        
0000ef57  xdc_runtime_Core_deleteObject__I                                        
800645b4  xdc_runtime_Diags_dictElems                                             
00015c70  xdc_runtime_Error_E_generic__C                                          
00015c74  xdc_runtime_Error_E_memory__C                                           
00015c78  xdc_runtime_Error_Module__diagsEnabled__C                               
00015c7c  xdc_runtime_Error_Module__diagsIncluded__C                              
00015c80  xdc_runtime_Error_Module__diagsMask__C                                  
00015d66  xdc_runtime_Error_Module__loggerDefined__C                              
00015c84  xdc_runtime_Error_Module__loggerFxn8__C                                 
00015c88  xdc_runtime_Error_Module__loggerObj__C                                  
800647f8  xdc_runtime_Error_Module__state__V                                      
00011ac1  xdc_runtime_Error_check__E                                              
00006855  xdc_runtime_Error_getSite__E                                            
00011fb1  xdc_runtime_Error_init__E                                               
00015d68  xdc_runtime_Error_maxDepth__C                                           
0000c11d  xdc_runtime_Error_policyDefault__E                                      
00015c8c  xdc_runtime_Error_policyFxn__C                                          
00015a73  xdc_runtime_Error_policy__C                                             
0000ec0d  xdc_runtime_Error_print__E                                              
00015c90  xdc_runtime_Error_raiseHook__C                                          
00011975  xdc_runtime_Error_raiseX__E                                             
0000ff6d  xdc_runtime_Error_setX__E                                               
00011fbd  xdc_runtime_Gate_enterSystem__E                                         
00011db9  xdc_runtime_Gate_leaveSystem__E                                         
00015c94  xdc_runtime_IGateProvider_Interface__BASE__C                            
00015c98  xdc_runtime_IHeap_Interface__BASE__C                                    
00015c9c  xdc_runtime_ILogger_Interface__BASE__C                                  
00015ca0  xdc_runtime_IModule_Interface__BASE__C                                  
00015ca4  xdc_runtime_Log_L_error__C                                              
0000cd69  xdc_runtime_Log_doPrint__E                                              
00011593  xdc_runtime_LoggerSys_Handle__label__S                                  
0001184b  xdc_runtime_LoggerSys_Instance_init__E                                  
00015584  xdc_runtime_LoggerSys_Module__FXNS__C                                   
800647fc  xdc_runtime_LoggerSys_Module__root__V                                   
0001595c  xdc_runtime_LoggerSys_Object__DESC__C                                   
00015a24  xdc_runtime_LoggerSys_Object__PARAMS__C                                 
000103f9  xdc_runtime_LoggerSys_Object__create__S                                 
000113f5  xdc_runtime_LoggerSys_Object__delete__S                                 
80064804  xdc_runtime_LoggerSys_Object__table__V                                  
00011fc9  xdc_runtime_LoggerSys_TimestampProxy_get64__E                           
00012033  xdc_runtime_LoggerSys_disable__E                                        
0001203d  xdc_runtime_LoggerSys_enable__E                                         
000117d5  xdc_runtime_LoggerSys_write0__E                                         
000117f3  xdc_runtime_LoggerSys_write1__E                                         
00011739  xdc_runtime_LoggerSys_write2__E                                         
00011419  xdc_runtime_LoggerSys_write4__E                                         
0000fb85  xdc_runtime_LoggerSys_write8__E                                         
00015ca8  xdc_runtime_Main_Module__diagsEnabled__C                                
00015cac  xdc_runtime_Main_Module__diagsIncluded__C                               
00015cb0  xdc_runtime_Main_Module__diagsMask__C                                   
00015d6a  xdc_runtime_Main_Module__id__C                                          
00015d6c  xdc_runtime_Main_Module__loggerDefined__C                               
00015cb4  xdc_runtime_Main_Module__loggerFxn1__C                                  
00015cb8  xdc_runtime_Main_Module__loggerFxn2__C                                  
00015cbc  xdc_runtime_Main_Module__loggerObj__C                                   
00011811  xdc_runtime_Memory_HeapProxy_alloc__E                                   
00011c11  xdc_runtime_Memory_HeapProxy_free__E                                    
00015d6e  xdc_runtime_Memory_Module__id__C                                        
8006480c  xdc_runtime_Memory_Module__state__V                                     
0000ec79  xdc_runtime_Memory_alloc__E                                             
00011fd5  xdc_runtime_Memory_calloc__E                                            
00015cc0  xdc_runtime_Memory_defaultHeapInstance__C                               
00011dc9  xdc_runtime_Memory_free__E                                              
00011fe1  xdc_runtime_Memory_getMaxDefaultTypeAlign__E                            
00011991  xdc_runtime_Memory_valloc__E                                            
00015cc4  xdc_runtime_Registry_Module__diagsEnabled__C                            
00015cc8  xdc_runtime_Registry_Module__diagsIncluded__C                           
00015ccc  xdc_runtime_Registry_Module__diagsMask__C                               
00015d70  xdc_runtime_Registry_Module__loggerDefined__C                           
00015cd0  xdc_runtime_Registry_Module__loggerFxn1__C                              
00015cd4  xdc_runtime_Registry_Module__loggerFxn2__C                              
00015cd8  xdc_runtime_Registry_Module__loggerFxn4__C                              
00015cdc  xdc_runtime_Registry_Module__loggerFxn8__C                              
00015ce0  xdc_runtime_Registry_Module__loggerObj__C                               
80064810  xdc_runtime_Registry_Module__root__V                                    
80064814  xdc_runtime_Registry_Module__state__V                                   
0000f37d  xdc_runtime_Registry_addModule__E                                       
00011759  xdc_runtime_Registry_findById__E                                        
000115b5  xdc_runtime_Registry_findByNameInList__I                                
00011fed  xdc_runtime_Registry_findByName__E                                      
8006481c  xdc_runtime_Startup_Module__state__V                                    
00000001  xdc_runtime_Startup__EXECFXN__C                                         
00000001  xdc_runtime_Startup__RESETFXN__C                                        
00015ce4  xdc_runtime_Startup_execImpl__C                                         
0000f7d9  xdc_runtime_Startup_exec__E                                             
000119ad  xdc_runtime_Startup_exec__I                                             
00015a74  xdc_runtime_Startup_firstFxns__A                                        
00015abc  xdc_runtime_Startup_firstFxns__C                                        
00015ac4  xdc_runtime_Startup_lastFxns__C                                         
00015ce8  xdc_runtime_Startup_maxPasses__C                                        
000120e9  xdc_runtime_Startup_reset__I                                            
00015798  xdc_runtime_Startup_sfxnRts__A                                          
00015cec  xdc_runtime_Startup_sfxnRts__C                                          
00015480  xdc_runtime_Startup_sfxnTab__A                                          
00015cf0  xdc_runtime_Startup_sfxnTab__C                                          
00015cf4  xdc_runtime_Startup_startModsFxn__C                                     
0000ce61  xdc_runtime_Startup_startMods__I                                        
00011ff9  xdc_runtime_System_Module_GateProxy_enter__E                            
00011dd9  xdc_runtime_System_Module_GateProxy_leave__E                            
800653f8  xdc_runtime_System_Module_State_0_atexitHandlers__A                     
00015cf8  xdc_runtime_System_Module__gateObj__C                                   
80064824  xdc_runtime_System_Module__state__V                                     
00011c3b  xdc_runtime_System_Module_startup__E                                    
00012005  xdc_runtime_System_SupportProxy_abort__E                                
00012011  xdc_runtime_System_SupportProxy_exit__E                                 
00011de9  xdc_runtime_System_SupportProxy_putch__E                                
000120f1  xdc_runtime_System_SupportProxy_ready__E                                
00015cfc  xdc_runtime_System_abortFxn__C                                          
0000fdc5  xdc_runtime_System_abortStd__E                                          
000119c9  xdc_runtime_System_abort__E                                             
000111c1  xdc_runtime_System_aprintf__E                                           
0000755d  xdc_runtime_System_aprintf_va__F                                        
00010a41  xdc_runtime_System_atexit__E                                            
00011211  xdc_runtime_System_avprintf__E                                          
00006f05  xdc_runtime_System_doPrint__I                                           
00015d00  xdc_runtime_System_exitFxn__C                                           
0000fdcd  xdc_runtime_System_exitStd__E                                           
00011ad9  xdc_runtime_System_exit__E                                              
00015d04  xdc_runtime_System_extendFxn__C                                         
0000f085  xdc_runtime_System_formatNum__I                                         
00015d08  xdc_runtime_System_maxAtexitHandlers__C                                 
00009351  xdc_runtime_System_printfExtend__I                                      
000111e9  xdc_runtime_System_printf__E                                            
0000856d  xdc_runtime_System_printf_va__F                                         
00010e39  xdc_runtime_System_processAtExit__E                                     
00011c83  xdc_runtime_System_putch__E                                             
0001107b  xdc_runtime_System_putchar__I                                           
0001143d  xdc_runtime_System_vprintf__E                                           
00011df9  xdc_runtime_System_vsnprintf__E                                         
8006482c  xdc_runtime_Text_Module__state__V                                       
00015d72  xdc_runtime_Text_charCnt__C                                             
00012174  xdc_runtime_Text_charTab__A                                             
00015d0c  xdc_runtime_Text_charTab__C                                             
00011025  xdc_runtime_Text_cordText__E                                            
00015d74  xdc_runtime_Text_isLoaded__C                                            
00015d10  xdc_runtime_Text_nameEmpty__C                                           
00015d14  xdc_runtime_Text_nameStatic__C                                          
00015d18  xdc_runtime_Text_nameUnknown__C                                         
000151b0  xdc_runtime_Text_nodeTab__A                                             
00015d1c  xdc_runtime_Text_nodeTab__C                                             
00010c21  xdc_runtime_Text_printVisFxn__I                                         
0000f3d9  xdc_runtime_Text_putLab__E                                              
0000e1b9  xdc_runtime_Text_putMod__E                                              
0000e4cd  xdc_runtime_Text_putSite__E                                             
00015d76  xdc_runtime_Text_registryModsLastId__C                                  
00011af1  xdc_runtime_Text_ropeText__E                                            
00015d78  xdc_runtime_Text_unnamedModsLastId__C                                   
0000f829  xdc_runtime_Text_visitRope2__I                                          
00015d20  xdc_runtime_Text_visitRopeFxn__C                                        
00011779  xdc_runtime_Text_visitRope__I                                           
0000ffb1  xdc_runtime_Text_xprintf__I                                             
000120f9  xdc_runtime_Timestamp_SupportProxy_get32__E                             
0001201d  xdc_runtime_Timestamp_SupportProxy_getFreq__E                           
000120f9  xdc_runtime_Timestamp_get32__E                                          
0001201d  xdc_runtime_Timestamp_getFreq__E                                        


GLOBAL SYMBOLS: SORTED BY Symbol Address 

address   name                                                                    
-------   ----                                                                    
00000000  _argsize                                                                
00000001  xdc_runtime_Startup__EXECFXN__C                                         
00000001  xdc_runtime_Startup__RESETFXN__C                                        
00000011  ti_sysbios_family_arm_ducati_smp_Power_reset                            
000000a0  ti_sysbios_family_arm_ducati_smp_doResumeCore0                          
000000a4  ti_sysbios_family_arm_ducati_smp_doResumeCore1                          
000000a8  ti_sysbios_family_arm_ducati_smp_readyIdleCore0                         
000000ac  ti_sysbios_family_arm_ducati_smp_readyIdleCore1                         
000000b0  ti_sysbios_family_arm_ducati_smp_readyGoCore0                           
000000b4  ti_sysbios_family_arm_ducati_smp_readyGoCore1                           
000000b8  ti_sysbios_family_arm_ducati_smp_readySyncCore0                         
000000bc  ti_sysbios_family_arm_ducati_smp_readySyncCore1                         
000000c0  ti_sysbios_family_arm_ducati_smp_waitResumeCore0                        
000000c4  ti_sysbios_family_arm_ducati_smp_waitResumeCore1                        
000000c8  ti_sysbios_family_arm_ducati_smp_doneCore0                              
000000cc  ti_sysbios_family_arm_ducati_smp_doneCore1                              
000000d0  ti_sysbios_family_arm_ducati_smp_doRestoreL2Core0                       
000000d4  ti_sysbios_family_arm_ducati_smp_doRestoreL2Core1                       
000000d8  ti_sysbios_family_arm_ducati_smp_startL2RAM                             
000000dc  ti_sysbios_family_arm_ducati_smp_contextL2RAM                           
00000400  ti_sysbios_family_arm_m3_Hwi_resetVectors                               
00001000  __STACK_SIZE                                                            
00003000  ti_ipc_remoteproc_ResourceTable                                         
00004000  __ASM__                                                                 
00004092  __ISA__                                                                 
000040a5  __PLAT__                                                                
000040cb  __TARG__                                                                
000040f0  __TRDR__                                                                
00004da1  __TI_printfi                                                            
000050a7  __aeabi_idiv0                                                           
000050a9  ti_deh_Deh_excHandler__F                                                
000057dd  ti_sysbios_family_arm_m3_TaskSupport_Module__startupDone__S             
000057e1  ti_sysbios_family_arm_ducati_smp_Power_doSuspend__I                     
00005ba9  ti_sysbios_family_arm_ducati_smp_Power_suspend_RESUME                   
00005f05  ti_sysbios_family_shared_vayu_IntXbar_Module__startupDone__S            
00005f09  RPMessage_send                                                          
000064bd  ti_sysbios_hal_ammu_AMMU_Module__startupDone__S                         
000064c1  ti_sysbios_heaps_HeapBuf_Instance_init__E                               
00006855  xdc_runtime_Error_getSite__E                                            
00006859  VirtQueue_create                                                        
00006bb1  ti_sysbios_knl_Task_schedule__I                                         
00006f05  xdc_runtime_System_doPrint__I                                           
0000755d  xdc_runtime_System_aprintf_va__F                                        
00007561  ti_sysbios_knl_Semaphore_pend__E                                        
00007869  RPMessage_recv                                                          
00007b19  ti_sdo_ipc_family_vayu_NotifySetup_Module_startup__E                    
00007dc9  VirtQueue_startup                                                       
00008061  RPMessage_init                                                          
000082f1  RPMessage_create                                                        
0000856d  xdc_runtime_System_printf_va__F                                         
00008571  ti_sysbios_knl_Task_Instance_finalize__E                                
000087ed  ti_deh_Watchdog_init__F                                                 
00008a61  ti_sysbios_heaps_HeapMem_free__E                                        
00008cb5  ti_sysbios_BIOS_nullFunc__I                                             
00008cb7  ti_trace_SysMin_flush__E                                                
00008cb9  ti_sysbios_heaps_HeapMem_alloc__E                                       
00008ef9  RPMessage_delete                                                        
00009129  ti_trace_SysMin_putch__E                                                
00009351  xdc_runtime_System_printfExtend__I                                      
0000956c  ti_sdo_ipc_family_vayu_InterruptIpu_Module__diagsEnabled__C             
00009571  ti_sysbios_knl_Task_Instance_init__E                                    
0000977c  ti_sdo_ipc_family_vayu_InterruptIpu_Module__diagsIncluded__C            
00009781  ti_sysbios_heaps_HeapBuf_free__E                                        
0000997d  __aeabi_uldivmod                                                        
00009b71  ti_sysbios_hal_unicache_Cache_startup__I                                
00009d5c  ti_sdo_ipc_family_vayu_InterruptIpu_Module__diagsMask__C                
00009d61  ti_sysbios_knl_Task_startCore__E                                        
00009f19  __aeabi_dsub                                                            
00009f23  __aeabi_dadd                                                            
0000a0d1  ti_sysbios_knl_Swi_run__I                                               
0000a271  ti_sysbios_family_arm_m3_Hwi_clearInterrupt__E                          
0000a40c  ti_sdo_ipc_family_vayu_InterruptIpu_ducatiCtrlBaseAddr__C               
0000a411  ti_sysbios_timers_dmtimer_Timer_checkFreq__I                            
0000a59c  ti_sdo_ipc_family_vayu_InterruptIpu_ipu1_0ProcId__C                     
0000a5a1  VirtQueue_isr                                                           
0000a71c  ti_sdo_ipc_family_vayu_InterruptIpu_ipu1_1ProcId__C                     
0000a721  ti_sysbios_family_arm_ducati_Core_hwiFunc__I                            
0000a894  ti_sdo_ipc_family_vayu_InterruptIpu_ipu2_0ProcId__C                     
0000a899  ti_sysbios_family_arm_m3_Hwi_excBusFault__I                             
0000aa0d  IpcPower_registerCallback                                               
0000ab7c  ti_sdo_ipc_family_vayu_InterruptIpu_ipu2_1ProcId__C                     
0000ab81  ti_sysbios_family_arm_m3_Hwi_updateNvic__I                              
0000acec  ti_sdo_utils_MultiProc_A_invalidMultiProcId__C                          
0000acf1  ti_sysbios_heaps_HeapBuf_alloc__E                                       
0000afbc  ti_sdo_utils_MultiProc_A_invalidProcName__C                             
0000afc1  ti_sysbios_family_arm_m3_Hwi_Module_startup__E                          
0000b11c  ti_sdo_utils_MultiProc_Module__diagsEnabled__C                          
0000b121  ti_sysbios_family_arm_m3_Hwi_excUsageFault__I                           
0000b274  ti_sdo_utils_MultiProc_Module__diagsIncluded__C                         
0000b279  ti_sysbios_family_shared_vayu_IntXbar_connect__E                        
0000b3c4  ti_sdo_utils_MultiProc_Module__diagsMask__C                             
0000b3c9  ti_sdo_ipc_family_vayu_InterruptIpu_intRegister__E                      
0000b50c  ti_sdo_utils_MultiProc_nameList__C                                      
0000b511  ti_sysbios_knl_Semaphore_post__E                                        
0000b654  ti_sysbios_BIOS_installedErrorHook__C                                   
0000b659  ti_sysbios_knl_Clock_workFunc__E                                        
0000b799  ti_sysbios_family_arm_m3_Hwi_dispatchC__I                               
0000b8d4  ti_sysbios_family_arm_ducati_Core_core1HwiStackSize__C                  
0000b8d9  ti_sysbios_heaps_HeapMem_Instance_init__E                               
0000ba14  ti_sysbios_family_arm_ducati_Core_gate__C                               
0000ba19  ti_sysbios_family_arm_m3_Hwi_excMemFault__I                             
0000bb51  __aeabi_ddiv                                                            
0000bc89  ti_sdo_ipc_family_vayu_InterruptIpu_intSend__E                          
0000bdbc  ti_sysbios_family_arm_ducati_Core_ipuId__C                              
0000bdc1  ti_sysbios_timers_dmtimer_Timer_deviceConfig__I                         
0000bee1  VirtQueue_kick                                                          
0000bffc  ti_sysbios_family_arm_ducati_GateSmp_A_nestedEnter__C                   
0000c001  ti_sysbios_hal_unicache_Cache_inv__E                                    
0000c11d  xdc_runtime_Error_policyDefault__E                                      
0000c234  ti_sysbios_family_arm_ducati_GateSmp_Module__diagsEnabled__C            
0000c349  copyTaskFxn                                                             
0000c459  _Dscale                                                                 
0000c569  IpcMgr_rpmsgStartup                                                     
0000c674  ti_sysbios_family_arm_ducati_GateSmp_Module__diagsIncluded__C           
0000c679  ti_sdo_ipc_family_vayu_InterruptIpu_intClear__E                         
0000c781  ti_sysbios_knl_Swi_Instance_init__E                                     
0000c881  xdc_runtime_Core_createObject__I                                        
0000c981  __aeabi_dmul                                                            
0000ca7c  ti_sysbios_family_arm_ducati_GateSmp_Module__diagsMask__C               
0000ca81  ti_sysbios_family_arm_ducati_Core_core1Startup__I                       
0000cb79  ti_sysbios_knl_Swi_post__E                                              
0000cc71  ti_sysbios_knl_Task_postInit__I                                         
0000cd69  xdc_runtime_Log_doPrint__E                                              
0000ce61  xdc_runtime_Startup_startMods__I                                        
0000cf59  ti_deh_StackDbg_walkStack__F                                            
0000d041  ti_sysbios_family_arm_ducati_Core_atexit__I                             
0000d115  ti_sysbios_family_arm_m3_Hwi_dispatch__I                                
0000d1e4  ti_sysbios_family_arm_ducati_Timer_startupNeeded__C                     
0000d1e9  ti_sysbios_knl_Task_unblockI__E                                         
0000d2b9  xdc_runtime_Core_constructObject__I                                     
0000d384  ti_sysbios_family_arm_ducati_smp_Power_gate__C                          
0000d389  ti_sysbios_timers_dmtimer_Timer_setPeriodMicroSecs__E                   
0000d451  MultiProc_getId                                                         
0000d515  ti_sysbios_BIOS_rtsUnlock__I                                            
0000d5d9  ti_sysbios_knl_Task_exit__E                                             
0000d69c  ti_sysbios_family_arm_ducati_smp_Power_postSuspendHooks__A              
0000d6a1  ti_sysbios_family_arm_m3_Hwi_initNVIC__E                                
0000d761  ti_sysbios_gates_GateMutex_enter__E                                     
0000d8df  _Dnorm                                                                  
0000da54  ti_sysbios_family_arm_ducati_smp_Power_preSuspendHooks__A               
0000da59  ti_sysbios_family_arm_m3_Hwi_excDebugMon__I                             
0000db0c  ti_sysbios_family_arm_ducati_smp_Power_sdmaRegs__C                      
0000db11  ti_sysbios_family_arm_m3_Hwi_excHardFault__I                            
0000dbc4  ti_sysbios_family_arm_ducati_smp_Power_semCore0__C                      
0000dbc9  ti_sysbios_family_shared_vayu_IntXbar_initXbarRegs__I                   
0000dc7c  ti_sysbios_family_arm_ducati_smp_Power_semCore1__C                      
0000dc81  ti_sysbios_knl_Task_checkStacks__E                                      
0000dd34  ti_sysbios_family_arm_m3_Hwi_E_NMI__C                                   
0000dd39  ti_sysbios_family_arm_ducati_GateSmp_enter__E                           
0000de8c  ti_sysbios_family_arm_m3_Hwi_E_alreadyDefined__C                        
0000de91  ti_sysbios_family_arm_ducati_GateSmp_sync__E                            
0000df35  __TI_auto_init                                                          
0000dfd4  ti_sysbios_family_arm_m3_Hwi_E_busFault__C                              
0000dfd9  ti_sdo_ipc_family_vayu_NotifySetup_dispatchIsr__I                       
0000e079  ti_sysbios_knl_Swi_Instance_finalize__E                                 
0000e119  ti_sysbios_knl_Task_Module_startup__E                                   
0000e1b9  xdc_runtime_Text_putMod__E                                              
0000e259  MultiProc_getName                                                       
0000e2f5  __aeabi_memcpy                                                          
0000e2f5  __aeabi_memcpy4                                                         
0000e2f5  __aeabi_memcpy8                                                         
0000e2f5  memcpy                                                                  
0000e391  ti_sdo_ipc_family_vayu_NotifySetup_plugHwi__F                           
0000e42c  ti_sysbios_family_arm_m3_Hwi_E_debugMon__C                              
0000e431  ti_sysbios_knl_Semaphore_Instance_init__E                               
0000e4cd  xdc_runtime_Text_putSite__E                                             
0000e569  ti_sdo_ipc_family_vayu_InterruptIpu_intEnable__E                        
0000e601  ti_sysbios_family_arm_m3_Hwi_Instance_init__E                           
0000e694  ti_sysbios_family_arm_m3_Hwi_E_hardFault__C                             
0000e699  ti_sysbios_knl_Task_blockI__E                                           
0000e72c  ti_sysbios_family_arm_m3_Hwi_E_memFault__C                              
0000e731  ti_sysbios_timers_dmtimer_Timer_start__E                                
0000e7c1  __aeabi_cdcmpeq                                                         
0000e7c1  __aeabi_cdcmple                                                         
0000e847  __aeabi_cdrcmple                                                        
0000e8cc  ti_sysbios_family_arm_m3_Hwi_E_noIsr__C                                 
0000e8d1  ti_sysbios_family_shared_vayu_IntXbar_initIntXbar__I                    
0000e951  ti_sysbios_knl_Swi_Module_startup__E                                    
0000e9d1  __aeabi_memclr                                                          
0000e9d1  __aeabi_memclr4                                                         
0000e9d1  __aeabi_memclr8                                                         
0000e9d3  __aeabi_memset                                                          
0000e9d3  __aeabi_memset4                                                         
0000e9d3  __aeabi_memset8                                                         
0000e9d9  memset                                                                  
0000ea4b  __xdc__init                                                             
0000ea51  ti_sysbios_family_arm_m3_Hwi_disableInterrupt__E                        
0000eac1  ti_sysbios_family_arm_m3_Hwi_enableInterrupt__E                         
0000eba1  ti_sysbios_family_arm_ducati_Timer_Module_startup__E                    
0000ec0d  xdc_runtime_Error_print__E                                              
0000ec79  xdc_runtime_Memory_alloc__E                                             
0000ece5  ti_sysbios_family_arm_m3_Hwi_create                                     
0000ed4d  ti_sysbios_heaps_HeapBuf_Object__create__S                              
0000edb4  ti_sysbios_family_arm_m3_Hwi_E_reserved__C                              
0000edb9  ti_sysbios_knl_Swi_restoreHwi__E                                        
0000ee21  ti_sysbios_timers_dmtimer_Timer_getHandle__E                            
0000ee89  ti_sysbios_timers_dmtimer_Timer_initDevice__I                           
0000eef1  _Dunscale                                                               
0000ef57  xdc_runtime_Core_deleteObject__I                                        
0000efbd  ti_sysbios_knl_Swi_create                                               
0000f021  ti_sysbios_knl_Task_create                                              
0000f085  xdc_runtime_System_formatNum__I                                         
0000f0e9  sprintf                                                                 
0000f149  ti_sysbios_knl_Clock_logTick__E                                         
0000f1a9  start_ping_tasks                                                        
0000f205  ti_deh_Watchdog_restore__I                                              
0000f261  ti_sysbios_family_arm_ducati_smp_Power_taskFxnCore1__I                  
0000f2bc  ti_sysbios_family_arm_m3_Hwi_E_svCall__C                                
0000f2c1  ti_sysbios_family_arm_m3_Hwi_postInit__I                                
0000f31c  ti_sysbios_family_arm_m3_Hwi_E_usageFault__C                            
0000f321  ti_sysbios_knl_Swi_schedule__I                                          
0000f37d  xdc_runtime_Registry_addModule__E                                       
0000f3d9  xdc_runtime_Text_putLab__E                                              
0000f434  ti_sysbios_family_arm_m3_Hwi_LD_end__C                                  
0000f439  ti_sysbios_family_arm_ducati_smp_Power_taskFxnCore0__I                  
0000f491  ti_sysbios_knl_Swi_postInit__I                                          
0000f4e9  ltoa                                                                    
0000f541  ti_sysbios_family_arm_m3_Hwi_getCoreStackInfo__E                        
0000f594  ti_sysbios_family_arm_m3_Hwi_LM_begin__C                                
0000f599  ti_sysbios_heaps_HeapBuf_Module_startup__E                              
0000f5ec  ti_sysbios_family_arm_m3_Hwi_Module__diagsEnabled__C                    
0000f5f1  ti_sysbios_timers_dmtimer_Timer_Module_startup__E                       
0000f645  xdc_runtime_Assert_raise__I                                             
0000f699  ti_sysbios_family_arm_m3_Hwi_enableFxn__E                               
0000f6e9  ti_sysbios_family_arm_m3_Hwi_restoreFxn__E                              
0000f739  ti_sysbios_family_arm_m3_Hwi_setPriority__E                             
0000f789  ti_sysbios_knl_Task_allBlockedFunction__I                               
0000f7d9  xdc_runtime_Startup_exec__E                                             
0000f829  xdc_runtime_Text_visitRope2__I                                          
0000f879  NameMap_register                                                        
0000f8c9  atoi                                                                    
0000f915  copy_in                                                                 
0000f961  ti_deh_Watchdog_start__I                                                
0000f9ac  ti_sysbios_family_arm_m3_Hwi_Module__diagsIncluded__C                   
0000f9b1  ti_sdo_ipc_family_vayu_InterruptIpu_intShmDucatiStub__I                 
0000f9fc  ti_sysbios_family_arm_m3_Hwi_Module__diagsMask__C                       
0000fa01  ti_sysbios_family_arm_ducati_TimestampProvider_Module_startup__E        
0000fa4d  ti_sysbios_family_arm_m3_TaskSupport_buildTaskStack                     
0000fa99  ti_sysbios_heaps_HeapMem_getStats__E                                    
0000fae4  ti_sysbios_family_arm_m3_Hwi_Module__loggerFxn1__C                      
0000fae9  ti_sysbios_knl_Swi_restore__E                                           
0000fb34  ti_sysbios_family_arm_m3_Hwi_Module__loggerFxn8__C                      
0000fb39  ti_sysbios_knl_Swi_runLoop__I                                           
0000fb85  xdc_runtime_LoggerSys_write8__E                                         
0000fbcf  __aeabi_d2iz                                                            
0000fc19  ti_deh_Watchdog_isException__F                                          
0000fc61  ti_sysbios_family_arm_m3_Hwi_excReserved__I                             
0000fca9  ti_sysbios_family_arm_m3_Hwi_initStacks__E                              
0000fcf1  ldexp                                                                   
0000fd37  xdc_runtime_Core_assignParams__I                                        
0000fd7d  _c_int00                                                                
0000fdc1  C$$EXIT                                                                 
0000fdc5  abort                                                                   
0000fdc5  xdc_runtime_System_abortStd__E                                          
0000fdcd  exit                                                                    
0000fdcd  xdc_runtime_System_exitStd__E                                           
0000fe04  ti_sysbios_family_arm_m3_Hwi_Module__loggerObj__C                       
0000fe09  ti_sysbios_family_arm_ducati_Timer_start__E                             
0000fe4c  ti_sysbios_family_arm_m3_Hwi_NUM_INTERRUPTS__C                          
0000fe51  ti_sysbios_family_arm_ducati_TimestampProvider_get32__E                 
0000fe94  ti_sysbios_family_arm_m3_Hwi_Object__count__C                           
0000fe99  ti_sysbios_family_arm_ducati_Wugen_enableInterrupt__E                   
0000fedc  ti_sysbios_family_arm_m3_Hwi_Object__table__C                           
0000fee1  ti_sysbios_knl_Idle_run__E                                              
0000ff24  ti_sysbios_family_arm_m3_Hwi_ccr__C                                     
0000ff29  ti_sysbios_timers_dmtimer_Timer_startup__E                              
0000ff6d  xdc_runtime_Error_setX__E                                               
0000ffb1  xdc_runtime_Text_xprintf__I                                             
0000fff5  IpcPower_idle                                                           
00010035  signal                                                                  
00010075  __aeabi_uidiv                                                           
00010075  __aeabi_uidivmod                                                        
000100b4  ti_sysbios_family_arm_m3_Hwi_disablePriority__C                         
000100b9  ti_sysbios_family_arm_ducati_Core_unlock__E                             
000100f9  ti_sysbios_family_arm_ducati_GateSmp_Object__create__S                  
00010139  ti_sysbios_family_arm_m3_Hwi_Object__get__S                             
00010179  ti_sysbios_gates_GateHwi_Object__create__S                              
000101b9  ti_sysbios_gates_GateMutex_Object__create__S                            
000101f9  ti_sysbios_hal_unicache_Cache_seizeRegs__I                              
00010239  ti_sysbios_heaps_HeapBuf_Object__get__S                                 
00010279  ti_sysbios_heaps_HeapMem_Object__create__S                              
000102b9  ti_sysbios_heaps_HeapMem_Object__get__S                                 
000102f9  ti_sysbios_knl_Semaphore_create                                         
00010339  ti_sysbios_knl_Swi_Object__get__S                                       
00010379  ti_sysbios_knl_Task_Object__get__S                                      
000103b9  ti_sysbios_knl_Task_processVitalTaskFlag__I                             
000103f9  xdc_runtime_LoggerSys_Object__create__S                                 
00010475  ti_deh_Watchdog_stop__I                                                 
000104b1  ti_sdo_utils_List_create                                                
000104ec  ti_sysbios_family_arm_m3_Hwi_excHandlerFunc__C                          
000104f1  ti_sysbios_family_arm_ducati_Timer_initDevice__I                        
0001052c  ti_sysbios_family_arm_m3_Hwi_nullIsrFunc__C                             
00010531  ti_sysbios_family_arm_m3_Hwi_excSvCall__I                               
0001056c  ti_sysbios_family_arm_m3_Hwi_priGroup__C                                
00010571  ti_sysbios_family_arm_m3_TaskSupport_start__E                           
000105ad  ti_sysbios_gates_GateHwi_create                                         
000105e9  ti_sysbios_hal_Hwi_checkStack                                           
00010624  ti_sysbios_family_arm_m3_TaskSupport_stackAlignment__C                  
00010629  ti_sysbios_heaps_HeapBuf_postInit__I                                    
00010664  ti_sysbios_family_shared_vayu_IntXbar_A_badBenelliIpuId__C              
00010669  ti_sysbios_heaps_HeapMem_init__I                                        
000106a4  ti_sysbios_family_shared_vayu_IntXbar_A_badBenelliXbarInstanceNum__C    
000106a9  ti_sysbios_knl_Semaphore_pendTimeout__I                                 
000106e4  ti_sysbios_family_shared_vayu_IntXbar_A_badIntSourceIdx__C              
000106e9  ti_sysbios_knl_Task_restore__E                                          
00010725  ti_sysbios_timers_dmtimer_Timer_Object__get__S                          
00010761  ti_sysbios_timers_dmtimer_Timer_stop__E                                 
0001079d  ti_trace_SysMin_abort__E                                                
00010811  ti_deh_Watchdog_kick__I                                                 
00010849  ti_ipc_remoteproc_Resource_init__I                                      
00010881  ti_sysbios_family_arm_ducati_TimestampProvider_get64__E                 
000108b9  ti_sysbios_family_arm_m3_Hwi_excNoIsr__I                                
000108f1  ti_sysbios_hal_Hwi_initStack                                            
00010929  ti_sysbios_hal_unicache_Cache_invAll__E                                 
00010961  ti_sysbios_hal_unicache_Cache_wbAll__E                                  
00010999  ti_sysbios_knl_Clock_doTick__I                                          
000109d1  ti_sysbios_knl_Queue_Object__get__S                                     
00010a09  ti_sysbios_timers_dmtimer_Timer_postInit__I                             
00010a41  xdc_runtime_System_atexit__E                                            
00010a79  main                                                                    
00010aad  feraiseexcept                                                           
00010ae1  ti_sysbios_family_arm_m3_Hwi_excNmi__I                                  
00010b14  ti_sysbios_family_shared_vayu_IntXbar_Module__diagsEnabled__C           
00010b19  ti_sysbios_heaps_HeapBuf_getStats__E                                    
00010b4d  ti_sysbios_knl_Semaphore_construct                                      
00010b81  ti_sysbios_knl_Swi_restoreSMP__I                                        
00010bb4  ti_sysbios_family_shared_vayu_IntXbar_Module__diagsIncluded__C          
00010bb9  ti_sysbios_knl_Task_restoreHwi__E                                       
00010bed  xdc_runtime_Core_assignLabel__I                                         
00010c21  xdc_runtime_Text_printVisFxn__I                                         
00010c55  ti_sysbios_family_arm_ducati_smp_Power_saveCpuRegs__I                   
00010c87  strncpy                                                                 
00010cb9  _Feraise                                                                
00010ce9  ti_sysbios_BIOS_atExitFunc__I                                           
00010d19  ti_sysbios_BIOS_errorRaiseHook__I                                       
00010d49  ti_sysbios_BIOS_rtsLock__I                                              
00010d79  ti_sysbios_family_arm_ducati_Core_startCore1__I                         
00010da9  ti_sysbios_family_arm_ducati_Timer_startup__E                           
00010dd9  ti_sysbios_knl_Queue_construct                                          
00010e09  ti_sysbios_knl_Task_self__E                                             
00010e39  xdc_runtime_System_processAtExit__E                                     
00010e69  __aeabi_i2d                                                             
00010e97  raise                                                                   
00010ec5  IpcPower_postResume                                                     
00010f1d  ti_sysbios_BIOS_startFunc__I                                            
00010f49  ti_sysbios_family_arm_m3_Hwi_Instance_finalize__E                       
00010f75  ti_sysbios_family_arm_m3_Hwi_Params__init__S                            
00010fa1  ti_sysbios_gates_GateHwi_Params__init__S                                
00010fcd  ti_sysbios_knl_Semaphore_Params__init__S                                
00010ff9  ti_sysbios_knl_Task_Params__init__S                                     
00011025  xdc_runtime_Text_cordText__E                                            
00011051  _Dclass                                                                 
0001107b  xdc_runtime_System_putchar__I                                           
000110a4  ti_sysbios_family_shared_vayu_IntXbar_Module__diagsMask__C              
000110a9  ti_sysbios_family_arm_ducati_TimestampProvider_getFreq__E               
000110d1  ti_sysbios_gates_GateMutex_Object__delete__S                            
000110f9  ti_sysbios_heaps_HeapBuf_Object__delete__S                              
00011121  ti_sysbios_knl_Clock_addI__E                                            
00011149  ti_sysbios_knl_Queue_put__E                                             
00011171  ti_sysbios_knl_Semaphore_Object__delete__S                              
00011199  ti_trace_SysMin_Module_startup__E                                       
000111c1  xdc_runtime_System_aprintf__E                                           
000111e9  xdc_runtime_System_printf__E                                            
00011211  xdc_runtime_System_avprintf__E                                          
00011237  ti_deh_Watchdog_taskSwitch__F                                           
0001125d  ti_sdo_utils_List_Object__delete__S                                     
00011281  ti_sysbios_BIOS_registerRTSLock__I                                      
000112a5  ti_sysbios_family_arm_ducati_GateSmp_Object__delete__S                  
000112c9  ti_sysbios_family_arm_m3_Hwi_pendSV__I                                  
000112e1  ti_sysbios_family_arm_m3_Hwi_return                                     
000112ed  ti_sysbios_gates_GateHwi_Object__delete__S                              
00011311  ti_sysbios_heaps_HeapMem_Object__delete__S                              
00011334  ti_sysbios_family_shared_vayu_IntXbar_mmrBaseAddr__C                    
00011339  ti_sysbios_knl_Queue_get__E                                             
0001135c  ti_sysbios_gates_GateMutex_A_badContext__C                              
00011361  ti_sysbios_knl_Swi_disable__E                                           
00011385  ti_sysbios_knl_Task_Handle__label__S                                    
000113a9  ti_sysbios_knl_Task_disable__E                                          
000113cc  ti_sysbios_gates_GateMutex_Instance_State_sem__O                        
000113d1  ti_sysbios_timers_dmtimer_Timer_stub__E                                 
000113f5  xdc_runtime_LoggerSys_Object__delete__S                                 
00011419  xdc_runtime_LoggerSys_write4__E                                         
0001143d  xdc_runtime_System_vprintf__E                                           
00011461  frexp                                                                   
00011483  ti_deh_StackDbg_walkStack__E                                            
000114a5  ti_deh_Watchdog_swiPrehook__F                                           
000114c7  ti_sysbios_family_arm_ducati_GateSmp_Handle__label__S                   
000114e9  ti_sysbios_gates_GateHwi_Handle__label__S                               
0001150b  ti_sysbios_gates_GateMutex_Handle__label__S                             
0001152d  ti_sysbios_heaps_HeapBuf_Handle__label__S                               
0001154f  ti_sysbios_heaps_HeapMem_Handle__label__S                               
00011571  ti_sysbios_knl_Swi_Handle__label__S                                     
00011593  xdc_runtime_LoggerSys_Handle__label__S                                  
000115b5  xdc_runtime_Registry_findByNameInList__I                                
000115d9  ti_deh_Deh_Module_startup__E                                            
000115f9  ti_deh_Watchdog_idleBegin__F                                            
00011619  ti_sysbios_BIOS_removeRTSLock__I                                        
00011639  ti_sysbios_family_arm_ducati_Timer_setPeriod__E                         
00011659  ti_sysbios_family_arm_ducati_Timer_stop__E                              
00011679  ti_sysbios_family_arm_m3_Hwi_excHandlerAsm__I                           
00011699  ti_sysbios_hal_Cache_CacheProxy_inv__E                                  
00011699  ti_sysbios_hal_Cache_inv__E                                             
000116b9  ti_sysbios_knl_Semaphore_Object__destruct__S                            
000116d9  ti_sysbios_timers_dmtimer_Timer_getFreq__E                              
000116f9  ti_trace_SysMin_exit__E                                                 
00011739  xdc_runtime_LoggerSys_write2__E                                         
00011759  xdc_runtime_Registry_findById__E                                        
00011779  xdc_runtime_Text_visitRope__I                                           
00011799  ti_sysbios_family_xxx_Hwi_switchAndRunFunc                              
000117b7  ti_sysbios_knl_Task_SupportProxy_start__E                               
000117d5  xdc_runtime_LoggerSys_write0__E                                         
000117f3  xdc_runtime_LoggerSys_write1__E                                         
00011811  xdc_runtime_Memory_HeapProxy_alloc__E                                   
0001182f  memccpy                                                                 
0001184b  xdc_runtime_LoggerSys_Instance_init__E                                  
00011851  ti_ipc_family_vayu_VirtQueue_cacheWb                                    
0001186c  ti_sysbios_gates_GateMutex_Module__diagsEnabled__C                      
00011871  ti_sdo_ipc_family_vayu_InterruptIpu_intShmMbxStub__I                    
0001188c  ti_sysbios_gates_GateMutex_Module__diagsIncluded__C                     
00011891  ti_sysbios_family_arm_ducati_GateSmp_leave__E                           
000118ad  ti_sysbios_family_arm_ducati_Timer_Module__startupDone__F               
000118c9  ti_sysbios_family_arm_ducati_Wugen_Module__startupDone__F               
000118e5  ti_sysbios_family_arm_m3_Hwi_Module__startupDone__F                     
00011901  ti_sysbios_family_shared_vayu_TimerSupport_Module__startupDone__F       
0001191c  ti_sysbios_gates_GateMutex_Module__diagsMask__C                         
00011921  ti_sysbios_gates_GateMutex_Instance_init__E                             
0001193d  ti_sysbios_knl_Queue_Object__destruct__S                                
00011959  ti_sysbios_timers_dmtimer_Timer_Module__startupDone__F                  
00011975  xdc_runtime_Error_raiseX__E                                             
00011991  xdc_runtime_Memory_valloc__E                                            
000119ad  xdc_runtime_Startup_exec__I                                             
000119c9  xdc_runtime_System_abort__E                                             
00011a01  IpcPower_preSuspend                                                     
00011a19  _args_main                                                              
00011a31  strcmp                                                                  
00011a49  ti_sdo_ipc_family_vayu_NotifySetup_plugHwi__E                           
00011a61  ti_sysbios_BIOS_setThreadType__E                                        
00011a79  ti_sysbios_gates_GateMutex_leave__E                                     
00011a91  ti_sysbios_hal_Hwi_HwiProxy_getCoreStackInfo__E                         
00011a91  ti_sysbios_hal_Hwi_getCoreStackInfo__E                                  
00011aa9  ti_sysbios_knl_Task_enter__I                                            
00011ac1  xdc_runtime_Error_check__E                                              
00011ad9  xdc_runtime_System_exit__E                                              
00011af1  xdc_runtime_Text_ropeText__E                                            
00011b09  strchr                                                                  
00011b1f  ti_sysbios_BIOS_exitFunc__I                                             
00011b8d  _register_unlock                                                        
00011b93  _register_lock                                                          
00011b9b  _nop                                                                    
00011ba1  strlen                                                                  
00011bb4  ti_sysbios_hal_Hwi_E_stackOverflow__C                                   
00011bb9  ti_sysbios_BIOS_getThreadType__E                                        
00011bcc  ti_sysbios_hal_ammu_AMMU_numLargePages__C                               
00011bd1  ti_sysbios_family_arm_ducati_Core_Module_startup__E                     
00011be4  ti_sysbios_hal_ammu_AMMU_numLinePages__C                                
00011be9  ti_sysbios_family_arm_m3_Hwi_switchFromBootStack__E                     
00011c11  xdc_runtime_Memory_HeapProxy_free__E                                    
00011c24  ti_sysbios_hal_ammu_AMMU_numMediumPages__C                              
00011c29  ti_sysbios_family_shared_vayu_TimerSupport_Module_startup__E            
00011c3b  xdc_runtime_System_Module_startup__E                                    
00011c41  ti_sysbios_hal_Hwi_Module_startup__E                                    
00011c54  ti_sysbios_hal_ammu_AMMU_numSmallPages__C                               
00011c59  ti_sysbios_hal_Timer_Module_startup__E                                  
00011c6c  ti_sysbios_hal_unicache_Cache_Module__gateObj__C                        
00011c71  ti_sysbios_knl_Clock_Module_startup__E                                  
00011c83  xdc_runtime_System_putch__E                                             
00011c95  ti_deh_Deh_excHandler__E                                                
00011ca5  ti_deh_Watchdog_taskSwitch__E                                           
00011cb4  ti_sysbios_hal_unicache_Cache_l1ocpConfig__C                            
00011cb9  ti_sdo_ipc_family_vayu_NotifySetup_interruptTable__F                    
00011cc9  ti_sysbios_BIOS_RtsGateProxy_leave__E                                   
00011cd9  ti_sysbios_BIOS_start__E                                                
00011ce9  ti_sysbios_family_arm_m3_Hwi_excHandler__I                              
00011cf9  ti_sysbios_family_arm_m3_TaskSupport_glue                               
00011d09  ti_sysbios_family_arm_m3_TaskSupport_swap__E                            
00011d11  ti_sysbios_knl_Task_swapReturn                                          
00011d19  ti_sysbios_gates_GateMutex_Instance_finalize__E                         
00011d29  ti_sysbios_hal_unicache_Cache_Module_GateProxy_leave__E                 
00011d39  ti_sysbios_heaps_HeapBuf_Instance_finalize__E                           
00011d49  ti_sysbios_heaps_HeapMem_Module_GateProxy_leave__E                      
00011d59  ti_sysbios_knl_Semaphore_Instance_finalize__E                           
00011d69  ti_sysbios_knl_Task_SupportProxy_checkStack__E                          
00011d79  ti_sysbios_knl_Task_SupportProxy_swap__E                                
00011d99  ti_sysbios_timers_dmtimer_Timer_TimerSupportProxy_enable__E             
00011da9  ti_trace_SysMin_ready__E                                                
00011db9  xdc_runtime_Gate_leaveSystem__E                                         
00011dc9  xdc_runtime_Memory_free__E                                              
00011dd9  xdc_runtime_System_Module_GateProxy_leave__E                            
00011de9  xdc_runtime_System_SupportProxy_putch__E                                
00011df9  xdc_runtime_System_vsnprintf__E                                         
00011e09  __TI_decompress_none                                                    
00011e19  ti_sysbios_family_arm_ducati_GateSmp_Instance_init__E                   
00011e29  ti_sysbios_family_shared_vayu_TimerSupport_enable__E                    
00011e39  ti_sysbios_knl_Idle_loop__E                                             
00011e49  ti_sysbios_knl_Queue_empty__E                                           
00011e59  MultiProc_self                                                          
00011e65  __TI_zero_init                                                          
00011e71  ti_deh_Watchdog_init__E                                                 
00011e7d  ti_deh_Watchdog_isException__E                                          
00011e89  ti_deh_Watchdog_swiPrehook__E                                           
00011e94  ti_sysbios_hal_unicache_Cache_l1secConfig__C                            
00011e99  ti_ipc_remoteproc_Resource_Module_startup__E                            
00011ea5  ti_sdo_ipc_family_vayu_NotifySetup_interruptTable__E                    
00011eb1  ti_sdo_utils_List_delete                                                
00011ebd  ti_sysbios_BIOS_RtsGateProxy_enter__E                                   
00011ec9  ti_sysbios_family_arm_ducati_Core_getId__E                              
00011ed4  ti_sysbios_hal_unicache_Cache_l2ocpConfig__C                            
00011ed9  ti_sysbios_family_arm_m3_Hwi_disableFxn__E                              
00011ee4  ti_sysbios_hal_unicache_Cache_l2secConfig__C                            
00011ee9  ti_sysbios_family_arm_m3_TaskSupport_checkStack__E                      
00011ef4  ti_sysbios_hal_unicache_Cache_maxLineModeBufSize__C                     
00011ef9  ti_sysbios_family_arm_m3_TaskSupport_getStackAlignment__E               
00011f05  ti_sysbios_gates_GateHwi_delete                                         
00011f11  ti_sysbios_gates_GateHwi_enter__E                                       
00011f1d  ti_sysbios_hal_Hwi_HwiProxy_clearInterrupt__E                           
00011f1d  ti_sysbios_hal_Hwi_clearInterrupt__E                                    
00011f29  ti_sysbios_hal_Hwi_HwiProxy_disableInterrupt__E                         
00011f29  ti_sysbios_hal_Hwi_disableInterrupt__E                                  
00011f35  ti_sysbios_hal_Hwi_HwiProxy_enableInterrupt__E                          
00011f35  ti_sysbios_hal_Hwi_enableInterrupt__E                                   
00011f41  ti_sysbios_hal_unicache_Cache_Module_GateProxy_enter__E                 
00011f4d  ti_sysbios_heaps_HeapMem_Module_GateProxy_enter__E                      
00011f59  ti_sysbios_heaps_HeapMem_Module_GateProxy_query__E                      
00011f64  ti_sysbios_heaps_HeapBuf_A_bufAlign__C                                  
00011f69  ti_sysbios_knl_Clock_getTicks__E                                        
00011f75  ti_sysbios_knl_Queue_destruct                                           
00011f81  ti_sysbios_knl_Semaphore_delete                                         
00011f8d  ti_sysbios_knl_Semaphore_destruct                                       
00011f99  ti_sysbios_knl_Swi_self__E                                              
00011fb1  xdc_runtime_Error_init__E                                               
00011fbd  xdc_runtime_Gate_enterSystem__E                                         
00011fc9  xdc_runtime_LoggerSys_TimestampProxy_get64__E                           
00011fd5  xdc_runtime_Memory_calloc__E                                            
00011fe1  xdc_runtime_Memory_getMaxDefaultTypeAlign__E                            
00011fed  xdc_runtime_Registry_findByName__E                                      
00011ff9  xdc_runtime_System_Module_GateProxy_enter__E                            
00012005  xdc_runtime_System_SupportProxy_abort__E                                
00012011  xdc_runtime_System_SupportProxy_exit__E                                 
0001201d  xdc_runtime_Timestamp_SupportProxy_getFreq__E                           
0001201d  xdc_runtime_Timestamp_getFreq__E                                        
00012029  VirtQueue_postCrashToMailbox                                            
00012033  xdc_runtime_LoggerSys_disable__E                                        
0001203d  xdc_runtime_LoggerSys_enable__E                                         
00012047  VirtQueue_cacheWb                                                       
0001204f  ti_deh_Deh_idleBegin__E                                                 
00012057  ti_deh_Deh_idleBegin__F                                                 
0001205f  ti_deh_Watchdog_idleBegin__E                                            
00012067  ti_sysbios_family_arm_ducati_Timer_Module__startupDone__S               
0001206f  ti_sysbios_family_arm_ducati_Wugen_Module__startupDone__S               
00012077  ti_sysbios_family_arm_m3_Hwi_Module__startupDone__S                     
00012081  ti_sysbios_family_arm_m3_Hwi_doSwiRestore__I                            
00012089  ti_sysbios_family_shared_vayu_TimerSupport_Module__startupDone__S       
00012091  ti_sysbios_hal_Cache_CacheProxy_wbAll__E                                
00012091  ti_sysbios_hal_Cache_wbAll__E                                           
00012099  ti_sysbios_hal_Core_CoreProxy_getId__E                                  
000120a1  ti_sysbios_hal_Hwi_HwiProxy_Module__startupDone__S                      
000120a9  ti_sysbios_hal_Hwi_HwiProxy_startup__E                                  
000120a9  ti_sysbios_hal_Hwi_startup__E                                           
000120b1  ti_sysbios_hal_Hwi_HwiProxy_switchFromBootStack__E                      
000120b1  ti_sysbios_hal_Hwi_switchFromBootStack__E                               
000120b9  ti_sysbios_hal_Timer_TimerProxy_Module__startupDone__S                  
000120c1  ti_sysbios_knl_Clock_TimerProxy_Module__startupDone__S                  
000120c9  ti_sysbios_knl_Task_SupportProxy_Module__startupDone__S                 
000120d1  ti_sysbios_knl_Task_SupportProxy_getStackAlignment__E                   
000120d9  ti_sysbios_timers_dmtimer_Timer_Module__startupDone__S                  
000120e1  ti_sysbios_timers_dmtimer_Timer_TimerSupportProxy_Module__startupDone__S
000120e9  xdc_runtime_Startup_reset__I                                            
000120f1  xdc_runtime_System_SupportProxy_ready__E                                
000120f9  xdc_runtime_Timestamp_SupportProxy_get32__E                             
000120f9  xdc_runtime_Timestamp_get32__E                                          
00012101  ti_sdo_utils_List_Instance_init__E                                      
00012109  ti_sysbios_family_arm_ducati_Wugen_Module_startup__E                    
00012111  ti_sysbios_family_arm_m3_Hwi_doTaskRestore__I                           
00012119  ti_sysbios_gates_GateHwi_leave__E                                       
00012121  ti_sysbios_heaps_HeapMem_isBlocking__E                                  
00012129  ti_sysbios_knl_Queue_Instance_init__E                                   
00012131  ti_sysbios_knl_Swi_startup__E                                           
00012139  ti_sysbios_knl_Task_startup__E                                          
00012141  ti_sysbios_family_arm_ducati_GateSmp_query__E                           
00012144  ti_sysbios_heaps_HeapBuf_A_invalidAlign__C                              
00012149  ti_sysbios_family_arm_m3_Hwi_startup__E                                 
0001214c  ti_sysbios_heaps_HeapBuf_A_invalidBufSize__C                            
00012151  ti_sysbios_gates_GateHwi_query__E                                       
00012154  ti_sysbios_heaps_HeapBuf_A_invalidFree__C                               
00012159  ti_sysbios_gates_GateMutex_query__E                                     
0001215c  ti_sysbios_heaps_HeapBuf_A_invalidRequestedAlign__C                     
00012161  ti_sysbios_heaps_HeapBuf_isBlocking__E                                  
00012164  ti_sysbios_heaps_HeapBuf_A_noBlocksToFree__C                            
00012169  ti_sysbios_timers_dmtimer_Timer_restoreRegisters__E                     
0001216c  ti_sysbios_heaps_HeapBuf_A_nullBuf__C                                   
00012171  ti_sysbios_gates_GateHwi_Instance_init__E                               
00012174  xdc_runtime_Text_charTab__A                                             
0001492e  ti_sdo_ipc_family_vayu_InterruptIpu_Module__id__C                       
00014930  ti_sysbios_hal_ammu_AMMU_mmuInitConfig__C                               
00014de8  ti_sdo_ipc_family_vayu_InterruptIpu_mailboxTable__C                     
00014fcc  ti_sdo_ipc_family_vayu_NotifySetup_mailboxTable__C                      
000151b0  xdc_runtime_Text_nodeTab__A                                             
0001530c  _ctypes_                                                                
0001540d  ti_sysbios_family_arm_ducati_TimestampProvider_inpsel__C                
0001540e  ti_sdo_utils_MultiProc_Module__id__C                                    
00015480  xdc_runtime_Startup_sfxnTab__A                                          
000154c8  ti_sdo_ipc_family_vayu_InterruptIpu_mailboxBaseAddr__C                  
00015508  ti_sdo_ipc_family_vayu_NotifySetup_mailboxBaseAddr__C                   
00015548  ti_sysbios_knl_Task_Object__PARAMS__C                                   
00015584  xdc_runtime_LoggerSys_Module__FXNS__C                                   
000155b8  ti_sysbios_family_arm_m3_Hwi_Object__PARAMS__C                          
000155e8  ti_sdo_ipc_family_vayu_InterruptIpu_procIdTable__C                      
00015614  ti_sdo_ipc_family_vayu_NotifySetup_procIdTable__C                       
00015640  ti_sysbios_heaps_HeapBuf_Object__PARAMS__C                              
0001566c  ti_sysbios_heaps_HeapBuf_Module__FXNS__C                                
00015694  ti_sysbios_heaps_HeapMem_Module__FXNS__C                                
000156bc  ti_sysbios_knl_Swi_Object__PARAMS__C                                    
000156e4  ti_sysbios_family_arm_ducati_GateSmp_Module__FXNS__C                    
00015708  ti_sysbios_gates_GateHwi_Module__FXNS__C                                
0001572c  ti_sysbios_gates_GateMutex_Module__FXNS__C                              
00015750  ti_sysbios_heaps_HeapMem_Object__PARAMS__C                              
00015774  ti_sysbios_knl_Semaphore_Object__PARAMS__C                              
00015798  xdc_runtime_Startup_sfxnRts__A                                          
000157bc  ti_sdo_utils_List_Object__DESC__C                                       
000157dc  ti_sysbios_family_arm_ducati_GateSmp_Object__DESC__C                    
000157fc  ti_sysbios_family_arm_m3_Hwi_Object__DESC__C                            
0001581c  ti_sysbios_gates_GateHwi_Object__DESC__C                                
0001583c  ti_sysbios_gates_GateMutex_Object__DESC__C                              
0001585c  ti_sysbios_heaps_HeapBuf_Object__DESC__C                                
0001587c  ti_sysbios_heaps_HeapMem_Object__DESC__C                                
0001589c  ti_sysbios_knl_Idle_coreList__A                                         
000158bc  ti_sysbios_knl_Idle_funcList__A                                         
000158dc  ti_sysbios_knl_Queue_Object__DESC__C                                    
000158fc  ti_sysbios_knl_Semaphore_Object__DESC__C                                
0001591c  ti_sysbios_knl_Swi_Object__DESC__C                                      
0001593c  ti_sysbios_knl_Task_Object__DESC__C                                     
0001595c  xdc_runtime_LoggerSys_Object__DESC__C                                   
0001597c  ti_sdo_utils_List_Object__PARAMS__C                                     
00015994  ti_sysbios_family_arm_ducati_GateSmp_Object__PARAMS__C                  
000159ac  ti_sysbios_gates_GateHwi_Object__PARAMS__C                              
000159c4  ti_sysbios_gates_GateMutex_Object__PARAMS__C                            
000159dc  ti_sysbios_knl_Queue_Object__PARAMS__C                                  
000159f4  ti_sysbios_knl_Swi_hooks__A                                             
00015a0c  ti_sysbios_knl_Task_hooks__A                                            
00015a24  xdc_runtime_LoggerSys_Object__PARAMS__C                                 
00015a3c  ti_sdo_utils_MultiProc_nameList__A                                      
00015a73  xdc_runtime_Error_policy__C                                             
00015a74  xdc_runtime_Startup_firstFxns__A                                        
00015a84  ti_ipc_rpmsg_RPMessage_messageBufferSize                                
00015a88  ti_ipc_rpmsg_RPMessage_heap                                             
00015a8c  ti_sysbios_family_arm_ducati_smp_Power_postSuspendHooks__C              
00015a94  ti_sysbios_family_arm_ducati_smp_Power_preSuspendHooks__C               
00015a9c  ti_sysbios_knl_Idle_coreList__C                                         
00015aa4  ti_sysbios_knl_Idle_funcList__C                                         
00015aac  ti_sysbios_knl_Swi_hooks__C                                             
00015ab4  ti_sysbios_knl_Task_hooks__C                                            
00015abc  xdc_runtime_Startup_firstFxns__C                                        
00015ac4  xdc_runtime_Startup_lastFxns__C                                         
00015acc  ti_sysbios_heaps_HeapBuf_A_zeroBlockSize__C                             
00015ad0  ti_sysbios_heaps_HeapBuf_A_zeroBlocks__C                                
00015ad4  ti_sysbios_heaps_HeapBuf_A_zeroBufSize__C                               
00015ad8  ti_sysbios_heaps_HeapBuf_E_size__C                                      
00015adc  ti_sysbios_heaps_HeapBuf_Instance_State_freeList__O                     
00015ae0  ti_sysbios_heaps_HeapBuf_Module__diagsEnabled__C                        
00015ae4  ti_sysbios_heaps_HeapBuf_Module__diagsIncluded__C                       
00015ae8  ti_sysbios_heaps_HeapBuf_Module__diagsMask__C                           
00015aec  ti_sysbios_heaps_HeapBuf_Object__count__C                               
00015af0  ti_sysbios_heaps_HeapBuf_Object__table__C                               
00015af4  ti_sysbios_heaps_HeapBuf_numConstructedHeaps__C                         
00015af8  ti_sysbios_heaps_HeapMem_A_align__C                                     
00015afc  ti_sysbios_heaps_HeapMem_A_heapSize__C                                  
00015b00  ti_sysbios_heaps_HeapMem_A_invalidFree__C                               
00015b04  ti_sysbios_heaps_HeapMem_A_zeroBlock__C                                 
00015b08  ti_sysbios_heaps_HeapMem_E_memory__C                                    
00015b0c  ti_sysbios_heaps_HeapMem_Module__diagsEnabled__C                        
00015b10  ti_sysbios_heaps_HeapMem_Module__diagsIncluded__C                       
00015b14  ti_sysbios_heaps_HeapMem_Module__diagsMask__C                           
00015b18  ti_sysbios_heaps_HeapMem_Module__gateObj__C                             
00015b1c  ti_sysbios_heaps_HeapMem_Object__count__C                               
00015b20  ti_sysbios_heaps_HeapMem_Object__table__C                               
00015b24  ti_sysbios_heaps_HeapMem_reqAlign__C                                    
00015b28  ti_sysbios_knl_Clock_LM_begin__C                                        
00015b2c  ti_sysbios_knl_Clock_LM_tick__C                                         
00015b30  ti_sysbios_knl_Clock_LW_delayed__C                                      
00015b34  ti_sysbios_knl_Clock_Module_State_clockQ__O                             
00015b38  ti_sysbios_knl_Clock_Module__diagsEnabled__C                            
00015b3c  ti_sysbios_knl_Clock_Module__diagsIncluded__C                           
00015b40  ti_sysbios_knl_Clock_Module__diagsMask__C                               
00015b44  ti_sysbios_knl_Clock_Module__loggerFxn1__C                              
00015b48  ti_sysbios_knl_Clock_Module__loggerFxn2__C                              
00015b4c  ti_sysbios_knl_Clock_Module__loggerObj__C                               
00015b50  ti_sysbios_knl_Clock_tickPeriod__C                                      
00015b54  ti_sysbios_knl_Queue_Object__count__C                                   
00015b58  ti_sysbios_knl_Queue_Object__table__C                                   
00015b5c  ti_sysbios_knl_Semaphore_A_badContext__C                                
00015b60  ti_sysbios_knl_Semaphore_A_noEvents__C                                  
00015b64  ti_sysbios_knl_Semaphore_A_overflow__C                                  
00015b68  ti_sysbios_knl_Semaphore_A_pendTaskDisabled__C                          
00015b6c  ti_sysbios_knl_Semaphore_Instance_State_pendQ__O                        
00015b70  ti_sysbios_knl_Semaphore_LM_pend__C                                     
00015b74  ti_sysbios_knl_Semaphore_LM_post__C                                     
00015b78  ti_sysbios_knl_Semaphore_Module__diagsEnabled__C                        
00015b7c  ti_sysbios_knl_Semaphore_Module__diagsIncluded__C                       
00015b80  ti_sysbios_knl_Semaphore_Module__diagsMask__C                           
00015b84  ti_sysbios_knl_Semaphore_Module__loggerFxn2__C                          
00015b88  ti_sysbios_knl_Semaphore_Module__loggerFxn4__C                          
00015b8c  ti_sysbios_knl_Semaphore_Module__loggerObj__C                           
00015b90  ti_sysbios_knl_Swi_A_badPriority__C                                     
00015b94  ti_sysbios_knl_Swi_LD_end__C                                            
00015b98  ti_sysbios_knl_Swi_LM_begin__C                                          
00015b9c  ti_sysbios_knl_Swi_LM_post__C                                           
00015ba0  ti_sysbios_knl_Swi_Module__diagsEnabled__C                              
00015ba4  ti_sysbios_knl_Swi_Module__diagsIncluded__C                             
00015ba8  ti_sysbios_knl_Swi_Module__diagsMask__C                                 
00015bac  ti_sysbios_knl_Swi_Module__loggerFxn1__C                                
00015bb0  ti_sysbios_knl_Swi_Module__loggerFxn4__C                                
00015bb4  ti_sysbios_knl_Swi_Module__loggerObj__C                                 
00015bb8  ti_sysbios_knl_Swi_Object__count__C                                     
00015bbc  ti_sysbios_knl_Swi_Object__heap__C                                      
00015bc0  ti_sysbios_knl_Swi_Object__table__C                                     
00015bc4  ti_sysbios_knl_Swi_numConstructedSwis__C                                
00015bc8  ti_sysbios_knl_Task_A_badPriority__C                                    
00015bcc  ti_sysbios_knl_Task_A_badTaskState__C                                   
00015bd0  ti_sysbios_knl_Task_A_badThreadType__C                                  
00015bd4  ti_sysbios_knl_Task_A_noPendElem__C                                     
00015bd8  ti_sysbios_knl_Task_E_spOutOfBounds__C                                  
00015bdc  ti_sysbios_knl_Task_E_stackOverflow__C                                  
00015be0  ti_sysbios_knl_Task_LD_block__C                                         
00015be4  ti_sysbios_knl_Task_LD_exit__C                                          
00015be8  ti_sysbios_knl_Task_LD_ready__C                                         
00015bec  ti_sysbios_knl_Task_LM_noWork__C                                        
00015bf0  ti_sysbios_knl_Task_LM_schedule__C                                      
00015bf4  ti_sysbios_knl_Task_LM_switch__C                                        
00015bf8  ti_sysbios_knl_Task_Module_State_inactiveQ__O                           
00015bfc  ti_sysbios_knl_Task_Module__diagsEnabled__C                             
00015c00  ti_sysbios_knl_Task_Module__diagsIncluded__C                            
00015c04  ti_sysbios_knl_Task_Module__diagsMask__C                                
00015c08  ti_sysbios_knl_Task_Module__loggerFxn2__C                               
00015c0c  ti_sysbios_knl_Task_Module__loggerFxn4__C                               
00015c10  ti_sysbios_knl_Task_Module__loggerFxn8__C                               
00015c14  ti_sysbios_knl_Task_Module__loggerObj__C                                
00015c18  ti_sysbios_knl_Task_Object__count__C                                    
00015c1c  ti_sysbios_knl_Task_Object__heap__C                                     
00015c20  ti_sysbios_knl_Task_Object__table__C                                    
00015c24  ti_sysbios_knl_Task_allBlockedFunc__C                                   
00015c28  ti_sysbios_knl_Task_defaultStackHeap__C                                 
00015c2c  ti_sysbios_knl_Task_defaultStackSize__C                                 
00015c30  ti_sysbios_knl_Task_numConstructedTasks__C                              
00015c34  ti_sysbios_knl_Task_startupHookFunc__C                                  
00015c38  ti_sysbios_timers_dmtimer_Timer_E_cannotSupport__C                      
00015c3c  ti_sysbios_timers_dmtimer_Timer_E_freqMismatch__C                       
00015c40  ti_sysbios_timers_dmtimer_Timer_Module__diagsEnabled__C                 
00015c44  ti_sysbios_timers_dmtimer_Timer_Module__diagsIncluded__C                
00015c48  ti_sysbios_timers_dmtimer_Timer_Module__diagsMask__C                    
00015c4c  ti_sysbios_timers_dmtimer_Timer_Object__count__C                        
00015c50  ti_sysbios_timers_dmtimer_Timer_Object__table__C                        
00015c54  ti_sysbios_timers_dmtimer_Timer_numTimerDevices__C                      
00015c58  ti_trace_SysMin_bufSize__C                                              
00015c5c  xdc_runtime_Assert_E_assertFailed__C                                    
00015c60  xdc_runtime_Core_A_initializedParams__C                                 
00015c64  xdc_runtime_Core_Module__diagsEnabled__C                                
00015c68  xdc_runtime_Core_Module__diagsIncluded__C                               
00015c6c  xdc_runtime_Core_Module__diagsMask__C                                   
00015c70  xdc_runtime_Error_E_generic__C                                          
00015c74  xdc_runtime_Error_E_memory__C                                           
00015c78  xdc_runtime_Error_Module__diagsEnabled__C                               
00015c7c  xdc_runtime_Error_Module__diagsIncluded__C                              
00015c80  xdc_runtime_Error_Module__diagsMask__C                                  
00015c84  xdc_runtime_Error_Module__loggerFxn8__C                                 
00015c88  xdc_runtime_Error_Module__loggerObj__C                                  
00015c8c  xdc_runtime_Error_policyFxn__C                                          
00015c90  xdc_runtime_Error_raiseHook__C                                          
00015c94  xdc_runtime_IGateProvider_Interface__BASE__C                            
00015c98  xdc_runtime_IHeap_Interface__BASE__C                                    
00015c9c  xdc_runtime_ILogger_Interface__BASE__C                                  
00015ca0  xdc_runtime_IModule_Interface__BASE__C                                  
00015ca4  xdc_runtime_Log_L_error__C                                              
00015ca8  xdc_runtime_Main_Module__diagsEnabled__C                                
00015cac  xdc_runtime_Main_Module__diagsIncluded__C                               
00015cb0  xdc_runtime_Main_Module__diagsMask__C                                   
00015cb4  xdc_runtime_Main_Module__loggerFxn1__C                                  
00015cb8  xdc_runtime_Main_Module__loggerFxn2__C                                  
00015cbc  xdc_runtime_Main_Module__loggerObj__C                                   
00015cc0  xdc_runtime_Memory_defaultHeapInstance__C                               
00015cc4  xdc_runtime_Registry_Module__diagsEnabled__C                            
00015cc8  xdc_runtime_Registry_Module__diagsIncluded__C                           
00015ccc  xdc_runtime_Registry_Module__diagsMask__C                               
00015cd0  xdc_runtime_Registry_Module__loggerFxn1__C                              
00015cd4  xdc_runtime_Registry_Module__loggerFxn2__C                              
00015cd8  xdc_runtime_Registry_Module__loggerFxn4__C                              
00015cdc  xdc_runtime_Registry_Module__loggerFxn8__C                              
00015ce0  xdc_runtime_Registry_Module__loggerObj__C                               
00015ce4  xdc_runtime_Startup_execImpl__C                                         
00015ce8  xdc_runtime_Startup_maxPasses__C                                        
00015cec  xdc_runtime_Startup_sfxnRts__C                                          
00015cf0  xdc_runtime_Startup_sfxnTab__C                                          
00015cf4  xdc_runtime_Startup_startModsFxn__C                                     
00015cf8  xdc_runtime_System_Module__gateObj__C                                   
00015cfc  xdc_runtime_System_abortFxn__C                                          
00015d00  xdc_runtime_System_exitFxn__C                                           
00015d04  xdc_runtime_System_extendFxn__C                                         
00015d08  xdc_runtime_System_maxAtexitHandlers__C                                 
00015d0c  xdc_runtime_Text_charTab__C                                             
00015d10  xdc_runtime_Text_nameEmpty__C                                           
00015d14  xdc_runtime_Text_nameStatic__C                                          
00015d18  xdc_runtime_Text_nameUnknown__C                                         
00015d1c  xdc_runtime_Text_nodeTab__C                                             
00015d20  xdc_runtime_Text_visitRopeFxn__C                                        
00015d24  ti_sdo_utils_MultiProc_numProcessors__C                                 
00015d26  ti_sdo_utils_MultiProc_numProcsInCluster__C                             
00015d28  ti_sysbios_BIOS_smpEnabled__C                                           
00015d2a  ti_sysbios_BIOS_swiEnabled__C                                           
00015d2c  ti_sysbios_BIOS_taskEnabled__C                                          
00015d2e  ti_sysbios_family_arm_ducati_Core_syncExits__C                          
00015d30  ti_sysbios_family_arm_ducati_GateSmp_Module__id__C                      
00015d32  ti_sysbios_family_arm_m3_Hwi_Module__id__C                              
00015d34  ti_sysbios_family_arm_m3_Hwi_Module__loggerDefined__C                   
00015d36  ti_sysbios_family_shared_vayu_IntXbar_Module__id__C                     
00015d38  ti_sysbios_gates_GateMutex_Module__id__C                                
00015d3a  ti_sysbios_hal_Hwi_Module__id__C                                        
00015d3c  ti_sysbios_hal_ammu_AMMU_configureAmmu__C                               
00015d3e  ti_sysbios_hal_unicache_Cache_configureCache__C                         
00015d40  ti_sysbios_hal_unicache_Cache_enableCache__C                            
00015d42  ti_sysbios_hal_unicache_Cache_l2CacheSupported__C                       
00015d44  ti_sysbios_heaps_HeapBuf_Module__id__C                                  
00015d46  ti_sysbios_heaps_HeapBuf_trackMaxAllocs__C                              
00015d48  ti_sysbios_heaps_HeapMem_Module__id__C                                  
00015d4a  ti_sysbios_knl_Clock_Module__id__C                                      
00015d4c  ti_sysbios_knl_Clock_Module__loggerDefined__C                           
00015d4e  ti_sysbios_knl_Semaphore_Module__id__C                                  
00015d50  ti_sysbios_knl_Semaphore_Module__loggerDefined__C                       
00015d52  ti_sysbios_knl_Swi_Module__id__C                                        
00015d54  ti_sysbios_knl_Swi_Module__loggerDefined__C                             
00015d56  ti_sysbios_knl_Task_Module__id__C                                       
00015d58  ti_sysbios_knl_Task_Module__loggerDefined__C                            
00015d5a  ti_sysbios_knl_Task_initStackFlag__C                                    
00015d5c  ti_sysbios_timers_dmtimer_Timer_Module__id__C                           
00015d5e  ti_sysbios_timers_dmtimer_Timer_checkFrequency__C                       
00015d60  ti_sysbios_timers_dmtimer_Timer_startupNeeded__C                        
00015d62  ti_trace_SysMin_flushAtExit__C                                          
00015d64  xdc_runtime_Core_Module__id__C                                          
00015d66  xdc_runtime_Error_Module__loggerDefined__C                              
00015d68  xdc_runtime_Error_maxDepth__C                                           
00015d6a  xdc_runtime_Main_Module__id__C                                          
00015d6c  xdc_runtime_Main_Module__loggerDefined__C                               
00015d6e  xdc_runtime_Memory_Module__id__C                                        
00015d70  xdc_runtime_Registry_Module__loggerDefined__C                           
00015d72  xdc_runtime_Text_charCnt__C                                             
00015d74  xdc_runtime_Text_isLoaded__C                                            
00015d76  xdc_runtime_Text_registryModsLastId__C                                  
00015d78  xdc_runtime_Text_unnamedModsLastId__C                                   
00015d80  __TI_static_base__                                                      
000170a8  __TI_Handler_Table_Base                                                 
000170b0  __TI_CINIT_Base                                                         
000170b0  __TI_Handler_Table_Limit                                                
000170d8  __TI_CINIT_Limit                                                        
40000000  ti_sysbios_hal_unicache_Cache_cache                                     
40000400  ti_sysbios_family_arm_ducati_CTM_ctm                                    
40000800  ti_sysbios_hal_ammu_AMMU_mmu                                            
80000000  ti_sysbios_heaps_HeapBuf_Instance_State_0_buf__A                        
80040000  ti_sysbios_heaps_HeapMem_Instance_State_0_buf__A                        
80060000  ti_sysbios_knl_Task_Instance_State_0_stack__A                           
80060800  ti_sysbios_knl_Task_Instance_State_1_stack__A                           
80061000  ti_sysbios_knl_Task_Instance_State_2_stack__A                           
80061800  ti_sysbios_knl_Task_Instance_State_3_stack__A                           
80062000  ti_sysbios_family_arm_ducati_Core_Module_State_0_core1HwiStack__A       
80063000  ti_sysbios_family_arm_m3_Hwi_vnvic                                      
80064000  ti_sysbios_family_arm_m3_Hwi_dispatchTable                              
80064148  ti_sysbios_knl_Swi_Instance_State_0_hookEnv__A                          
8006414c  ti_sysbios_knl_Task_Instance_State_0_hookEnv__A                         
80064150  ti_sysbios_knl_Task_Instance_State_1_hookEnv__A                         
80064154  ti_sysbios_knl_Task_Instance_State_2_hookEnv__A                         
80064158  ti_sysbios_knl_Task_Instance_State_3_hookEnv__A                         
80064178  ti_ipc_family_vayu__Desc                                                
80064184  intInfo                                                                 
80064190  ti_ipc_rpmsg_RPMessage__Desc                                            
800645b4  xdc_runtime_Diags_dictElems                                             
800645c4  ti_deh_Deh_Module__state__V                                             
800645d0  ti_deh_StackDbg_Module__state__V                                        
800645d8  ti_deh_Watchdog_Module_State_0_device__A                                
800645f8  ti_deh_Watchdog_Module_State_0_status__A                                
800645fc  ti_deh_Watchdog_Module__state__V                                        
80064608  ti_ipc_remoteproc_Resource_Module__state__V                             
8006460c  ti_sdo_ipc_family_vayu_NotifySetup_Module_State_0_numPlugged__A         
8006462c  ti_sdo_utils_List_Module__root__V                                       
80064634  ti_sdo_utils_MultiProc_Module_State_0_clusterProcList__A                
80064640  ti_sdo_utils_MultiProc_Module__state__V                                 
80064648  ti_sdo_utils_NameServerRemoteNull_Module__root__V                       
80064650  ti_sysbios_BIOS_Module_State_0_smpThreadType__A                         
80064654  ti_sysbios_family_arm_ducati_Core_Module__state__V                      
80064668  ti_sysbios_family_arm_ducati_GateSmp_Module__root__V                    
80064670  ti_sysbios_family_arm_ducati_Timer_Module__root__V                      
80064678  ti_sysbios_family_arm_ducati_Timer_Module__state__V                     
80064684  ti_sysbios_family_arm_ducati_smp_Power_Module__state__V                 
8006469c  ti_sysbios_family_arm_m3_Hwi_Module__root__V                            
800646a4  ti_sysbios_family_arm_m3_Hwi_Module_State_0_excActive__A                
800646a8  ti_sysbios_family_arm_m3_Hwi_Module_State_0_excContext__A               
800646b0  ti_sysbios_family_arm_m3_Hwi_Module_State_0_excStack__A                 
800646b8  ti_sysbios_family_arm_m3_Hwi_Module_State_0_intAffinityMasks_0__A       
800646c0  ti_sysbios_family_arm_m3_Hwi_Module_State_0_intAffinityMasks_1__A       
800646c8  ti_sysbios_family_arm_m3_Hwi_Module_State_0_intAffinityMasks__A         
800646d0  ti_sysbios_family_shared_vayu_IntXbar_Module__state__V                  
800646d4  ti_sysbios_gates_GateHwi_Module__root__V                                
800646dc  ti_sysbios_gates_GateHwi_Object__table__V                               
800646e4  ti_sysbios_gates_GateMutex_Module__root__V                              
800646ec  ti_sysbios_gates_GateMutexPri_Module__root__V                           
800646f4  ti_sysbios_gates_GateSwi_Module__root__V                                
800646fc  ti_sysbios_hal_Hwi_Module__root__V                                      
80064704  ti_sysbios_hal_Hwi_Object__table__V                                     
80064714  ti_sysbios_hal_Timer_Module__root__V                                    
8006471c  ti_sysbios_heaps_HeapBuf_Module__root__V                                
80064724  ti_sysbios_heaps_HeapBuf_Module__state__V                               
80064728  ti_sysbios_heaps_HeapMem_Module__root__V                                
80064730  ti_sysbios_heaps_HeapMem_Object__table__V                               
80064748  ti_sysbios_knl_Clock_Module__root__V                                    
80064750  ti_sysbios_knl_Queue_Module__root__V                                    
80064758  ti_sysbios_knl_Semaphore_Module__root__V                                
80064760  ti_sysbios_knl_Swi_Module__root__V                                      
80064768  ti_sysbios_knl_Swi_Module__state__V                                     
80064784  ti_sysbios_knl_Task_Module__root__V                                     
8006478c  ti_sysbios_knl_Task_Module_State_0_smpCurSet__A                         
80064798  ti_sysbios_knl_Task_Module_State_0_smpCurMask__A                        
800647a0  ti_sysbios_knl_Task_Module_State_0_smpCurTask__A                        
800647a8  ti_sysbios_knl_Task_Module_State_0_smpReadyQ__A                         
800647b4  ti_sysbios_knl_Task_Module_State_0_idleTask__A                          
800647bc  ti_sysbios_timers_dmtimer_Timer_Module__root__V                         
800647c4  ti_sysbios_timers_dmtimer_Timer_Module__state__V                        
800647d8  ti_sysbios_xdcruntime_GateThreadSupport_Module__root__V                 
800647e0  ti_trace_SysMin_Module__state__V                                        
800647f8  xdc_runtime_Error_Module__state__V                                      
800647fc  xdc_runtime_LoggerSys_Module__root__V                                   
80064804  xdc_runtime_LoggerSys_Object__table__V                                  
8006480c  xdc_runtime_Memory_Module__state__V                                     
80064810  xdc_runtime_Registry_Module__root__V                                    
80064814  xdc_runtime_Registry_Module__state__V                                   
8006481c  xdc_runtime_Startup_Module__state__V                                    
80064824  xdc_runtime_System_Module__state__V                                     
8006482c  xdc_runtime_Text_Module__state__V                                       
80064834  __xdc__init__addr                                                       
80064838  ti_trace_SysMin_Module_State_0_lineBuffers__A                           
80064a40  ti_sysbios_knl_Task_Module_State_0_readyQ__A                            
80064bc0  TSK_idle                                                                
80064bc0  ti_sysbios_knl_Task_Object__table__V                                    
80064d00  ti_sysbios_timers_dmtimer_Timer_Module_State_0_device__A                
80064e70  _Denorm                                                                 
80064e80  _Eps                                                                    
80064e90  _Hugeval                                                                
80064ea0  _Inf                                                                    
80064eb0  _Nan                                                                    
80064ec0  _Snan                                                                   
80064ed0  _Rteps                                                                  
80064ee0  _Xbig                                                                   
80064ee8  _Zero                                                                   
80064ef0  ti_sysbios_knl_Swi_Module_State_0_readyQ__A                             
80064f70  ti_sysbios_timers_dmtimer_Timer_Module_State_0_intFreqs__A              
80064ff0  ti_sysbios_family_shared_vayu_IntXbar_Module_State_0_intXbar__A         
80065064  ti_sysbios_timers_dmtimer_Timer_Object__table__V                        
800650c0  ti_sdo_ipc_family_vayu_InterruptIpu_Module__state__V                    
80065118  ti_sdo_ipc_family_vayu_NotifySetup_Module__state__V                     
80065168  ti_sysbios_family_arm_m3_Hwi_Module_State_0_intAffinity__A              
800651b8  ti_sysbios_family_arm_m3_Hwi_Object__table__V                           
80065200  ti_sysbios_knl_Task_Module__state__V                                    
80065244  ti_sysbios_timers_dmtimer_Timer_Module_State_0_handles__A               
80065284  ti_sysbios_family_arm_ducati_GateSmp_Object__table__V                   
800652bc  ti_sysbios_gates_GateMutex_Object__table__V                             
800652f4  ti_sysbios_family_arm_m3_Hwi_Module__state__V                           
80065328  ti_sysbios_knl_Swi_Object__table__V                                     
80065358  ti_sysbios_knl_Clock_Module__state__V                                   
80065384  ti_sysbios_heaps_HeapBuf_Object__table__V                               
800653ac  ti_sysbios_knl_Semaphore_Object__table__V                               
800653d4  ti_sysbios_BIOS_Module__state__V                                        
800653f8  xdc_runtime_System_Module_State_0_atexitHandlers__A                     
8006541c  IpcPower_idleCount                                                      
80065424  IpcPower_suspendCount                                                   
80065428  IpcPower_resumeCount                                                    
8006542c  IpcPower_clockFxn                                                       
80065440  _lock                                                                   
80065444  _unlock                                                                 
80065448  __TI_cleanup_ptr                                                        
8006544c  __TI_dtors_ptr                                                          
80065450  _Fenv                                                                   
80065454  _Tls_setup__Fenv                                                        
80065458  _Errno                                                                  
8006545c  main_func_sp                                                            
80065460  __stack                                                                 
80066460  __STACK_END                                                             
9f000000  ti_trace_SysMin_Module_State_0_outbuf__A                                
9f007ff8  ti_trace_SysMin_Module_State_0_writeidx__A                              
9f007ffc  ti_trace_SysMin_Module_State_0_readidx__A                               
9f060000  ti_deh_Deh_Module_State_0_outbuf__A                                     
9f070000  ti_sysbios_family_arm_ducati_smp_Power_savedContext                     
9f07027c  ti_sysbios_family_arm_ducati_smp_Power_savedRAM                         
e000e000  ti_sysbios_family_arm_m3_Hwi_nvic                                       
ffffffff  __binit__                                                               
ffffffff  __c_args__                                                              
ffffffff  binit                                                                   
UNDEFED   SHT$$INIT_ARRAY$$Base                                                   
UNDEFED   SHT$$INIT_ARRAY$$Limit                                                  

[993 symbols]
